(dp0
S'multiplayer'
p1
(lp2
I1
aI1
asS'Exubiuz'
p3
(lp4
I1
aI1
asS'now:http://vogue.cm/1OgH5Ko&nbsp;'
p5
(lp6
I1
aI1
asS'T-Mobile'
p7
(lp8
I1
aI1
asS'Athlete?'
p9
(lp10
I1
aI1
asS'A74(M)'
p11
(lp12
I1
aI1
asS'EVERYONE'
p13
(lp14
I1
aI1
asS'Nick@NIKETysongetting'
p15
(lp16
I1
aI1
asS'6pm'
p17
(lp18
I2
aI2
asS'NYC'
p19
(lp20
I1
aI1
asS'Ihttps://instagram.com/p/0e483uzNeG/&nbsp;'
p21
(lp22
I1
aI1
asS'aliens?'
p23
(lp24
I1
aI1
asS'forget'
p25
(lp26
I3
aI3
asS'Foundation'
p27
(lp28
I1
aI1
asS'swag'
p29
(lp30
I1
aI1
asS'Liverpool'
p31
(lp32
I2
aI2
asS'awesome#insurgent#GTAPhotographers@GTAJunkiespic.twitter.com/w6KO0u5UvV'
p33
(lp34
I1
aI1
asS'eligible'
p35
(lp36
I1
aI1
asS'Lathallan'
p37
(lp38
I1
aI1
asS'Watch'
p39
(lp40
I14
aI14
asS'Job'
p41
(lp42
I1
aI1
asS'adding'
p43
(lp44
I1
aI1
asS'dollar.*'
p45
(lp46
I1
aI1
asS'Insta-paradise'
p47
(lp48
I1
aI1
asS'grace:'
p49
(lp50
I1
aI1
asS'sounding.'
p51
(lp52
I1
aI1
asS'Hosp'
p53
(lp54
I1
aI1
asS'standing#WithSyriaand'
p55
(lp56
I1
aI1
asS'sorry'
p57
(lp58
I1
aI1
asS'restock'
p59
(lp60
I1
aI1
asS'worth'
p61
(lp62
I4
aI4
asS'merchant'
p63
(lp64
I1
aI1
asS'@'
p65
(lp66
I1
aI1
asS'risk'
p67
(lp68
I1
aI1
asS'#Competitiontomorrow!'
p69
(lp70
I1
aI1
asS'today?'
p71
(lp72
I3
aI3
asS'Tyne,'
p73
(lp74
I1
aI1
asS'advice.'
p75
(lp76
I1
aI1
asS'get#TheHoteltrending'
p77
(lp78
I1
aI1
asS'every'
p79
(lp80
I2
aI2
asS'updates'
p81
(lp82
I2
aI2
asS'Rules:http://i.victoria.com/ultimate&nbsp;pic.twitter.com/gBnr53ZZDd'
p83
(lp84
I1
aI1
asS'affect'
p85
(lp86
I1
aI1
asS'Steam'
p87
(lp88
I4
aI4
asS'look'
p89
(lp90
I4
aI4
asS'tickets'
p91
(lp92
I4
aI4
asS'#Uncarrier9will'
p93
(lp94
I1
aI1
asS'Dosh'
p95
(lp96
I1
aI1
asS'onhttp://chanel-news.com/-fall-winter-2015-16-rtw&nbsp;pic.twitter.com/aF1241qGaX'
p97
(lp98
I1
aI1
asS'prize'
p99
(lp100
I1
aI1
asS'Campaign'
p101
(lp102
I2
aI2
asS'kisspic.twitter.com/IgDqdUZliO'
p103
(lp104
I1
aI1
asS'nutrition'
p105
(lp106
I1
aI1
asS'Everybody&#39;s'
p107
(lp108
I1
aI1
asS'green-hued'
p109
(lp110
I1
aI1
asS'Classic'
p111
(lp112
I1
aI1
asS'time!'
p113
(lp114
I1
aI1
asS'Ear&#39;'
p115
(lp116
I1
aI1
asS'pawsome'
p117
(lp118
I1
aI1
asS'Annie@DT_Leedsmay'
p119
(lp120
I1
aI1
asS'SNP'
p121
(lp122
I1
aI1
asS'Go'
p123
(lp124
I1
aI1
asS'sleep'
p125
(lp126
I1
aI1
asS'Paul'
p127
(lp128
I1
aI1
asS'N&amp;W'
p129
(lp130
I1
aI1
asS'heading'
p131
(lp132
I1
aI1
asS'Warning*'
p133
(lp134
I1
aI1
asS'confidence'
p135
(lp136
I1
aI1
asS'PlayStation'
p137
(lp138
I1
aI1
asS'equal:'
p139
(lp140
I1
aI1
asS'specially'
p141
(lp142
I1
aI1
asS'tired'
p143
(lp144
I1
aI1
asS'consistent'
p145
(lp146
I1
aI1
asS'direct'
p147
(lp148
I1
aI1
asS'talks'
p149
(lp150
I1
aI1
asS'second'
p151
(lp152
I1
aI1
asS'lithos:http://bit.ly/FunWebSale&nbsp;pic.twitter.com/tllYKZCPDf'
p153
(lp154
I1
aI1
asS'7th'
p155
(lp156
I1
aI1
asS'Gosling,'
p157
(lp158
I1
aI1
asS'even'
p159
(lp160
I1
aI1
asS'Tacoma,'
p161
(lp162
I1
aI1
asS'+'
p163
(lp164
I2
aI1
asS'near'
p165
(lp166
I3
aI3
asS'lights'
p167
(lp168
I1
aI1
asS'above'
p169
(lp170
I1
aI1
asS'new'
p171
(lp172
I29
aI29
asS'tips'
p173
(lp174
I1
aI1
asS'ever'
p175
(lp176
I4
aI4
asS'affect#Highlands&amp;#EileanSiarfrom'
p177
(lp178
I1
aI1
asS'kid.'
p179
(lp180
I1
aI1
asS'story:http://rdcrss.org/belleville&nbsp;'
p181
(lp182
I1
aI1
asS'specialist'
p183
(lp184
I1
aI1
asS'Neville'
p185
(lp186
I1
aI1
asS'Made'
p187
(lp188
I1
aI1
asS'sinks'
p189
(lp190
I1
aI1
asS'today@guidedogspic.twitter.com/aBxtDFhPes'
p191
(lp192
I1
aI1
asS'rugby,'
p193
(lp194
I1
aI1
asS'never'
p195
(lp196
I4
aI4
asS'favorite!),'
p197
(lp198
I1
aI1
asS'here'
p199
(lp200
I10
aI10
asS'Happy#FirstDayOfSpring!http://i.victoria.com/uEH&nbsp;pic.twitter.com/ut6KkUyJOf'
p201
(lp202
I1
aI1
asS'2015/16'
p203
(lp204
I13
aI13
asS'of@yoursmagazinemagazine'
p205
(lp206
I1
aI1
asS'studio'
p207
(lp208
I1
aI1
asS'Follow'
p209
(lp210
I2
aI2
asS'active'
p211
(lp212
I2
aI2
asS'100'
p213
(lp214
I3
aI2
asS'104'
p215
(lp216
I1
aI1
asS'celebration'
p217
(lp218
I1
aI1
asS'kids'
p219
(lp220
I2
aI2
asS'Labrador'
p221
(lp222
I1
aI1
asS'Accessorize'
p223
(lp224
I1
aI1
asS'Sweepstake'
p225
(lp226
I1
aI1
asS'Queen'
p227
(lp228
I2
aI2
asS'details:http://bit.ly/1BeeICD&nbsp;pic.twitter.com/xctTUVcn4L'
p229
(lp230
I1
aI1
asS'Shes'
p231
(lp232
I1
aI1
asS'smoke'
p233
(lp234
I1
aI1
asS'Home'
p235
(lp236
I3
aI3
asS'pack'
p237
(lp238
I1
aI1
asS'eyebrows'
p239
(lp240
I1
aI1
asS'Line?'
p241
(lp242
I1
aI1
asS'secure'
p243
(lp244
I1
aI1
asS'campaign'
p245
(lp246
I1
aI1
asS'escapepic.twitter.com/BGbro2J8GR'
p247
(lp248
I1
aI1
asS'Giving'
p249
(lp250
I1
aI1
asS'Support'
p251
(lp252
I1
aI1
asS'Three'
p253
(lp254
I1
aI1
asS'company!'
p255
(lp256
I1
aI1
asS'psychological'
p257
(lp258
I1
aI1
asS'to#GiveWhatFireTakes:http://rdcrss.org/firehelp&nbsp;pic.twitter.com/OhGUmzDdcj'
p259
(lp260
I1
aI1
asS'Behind'
p261
(lp262
I1
aI1
asS'&#39;poor&#39;http://bbc.in/1AD6cxD&nbsp;'
p263
(lp264
I1
aI1
asS'Let&#39;s'
p265
(lp266
I2
aI2
asS'counts'
p267
(lp268
I2
aI2
asS'excited?'
p269
(lp270
I1
aI1
asS'kitchen!#happyfridayxo'
p271
(lp272
I1
aI1
asS'here:http://ift.tt/1E3CEge&nbsp;'
p273
(lp274
I1
aI1
asS'Rennie'
p275
(lp276
I2
aI2
asS'Star'
p277
(lp278
I3
aI3
asS'would'
p279
(lp280
I4
aI4
asS'Herehttp://bit.ly/1Fqk1oB&nbsp;pic.twitter.com/8c85rfYvUx'
p281
(lp282
I1
aI1
asS'hospital'
p283
(lp284
I1
aI1
asS'Gwynn'
p285
(lp286
I1
aI1
asS'Stay'
p287
(lp288
I1
aI1
asS'music'
p289
(lp290
I1
aI1
asS'Stan'
p291
(lp292
I1
aI1
asS'right.'
p293
(lp294
I2
aI2
asS'tell'
p295
(lp296
I3
aI3
asS'crash:'
p297
(lp298
I1
aI1
asS'...http://bit.ly/1GCGKw4&nbsp;'
p299
(lp300
I1
aI1
asS'supporters'
p301
(lp302
I1
aI1
asS'43'
p303
(lp304
I1
aI1
asS'Extracts'
p305
(lp306
I1
aI1
asS'training'
p307
(lp308
I2
aI2
asS'award'
p309
(lp310
I1
aI1
asS'Teams'
p311
(lp312
I1
aI1
asS'phone'
p313
(lp314
I2
aI2
asS'wouldn&#39;t'
p315
(lp316
I1
aI1
asS'...'
p317
(lp318
I3
aI3
asS'V'
p319
(lp320
I3
aI3
asS'Eastbound'
p321
(lp322
I3
aI3
asS'hold'
p323
(lp324
I1
aI1
asS'&quot;neo-soul,&quot;'
p325
(lp326
I1
aI1
asS'me'
p327
(lp328
I9
aI8
asS'choose?'
p329
(lp330
I1
aI1
asS'claims'
p331
(lp332
I1
aI1
asS'join'
p333
(lp334
I4
aI4
asS'here:http://ift.tt/1ASxCyC&nbsp;'
p335
(lp336
I1
aI1
asS'Headed'
p337
(lp338
I1
aI1
asS'competition!pic.twitter.com/caDgYRhODl'
p339
(lp340
I1
aI1
asS'work'
p341
(lp342
I4
aI4
asS'spec'
p343
(lp344
I1
aI1
asS'society:'
p345
(lp346
I1
aI1
asS'Crows'
p347
(lp348
I1
aI1
asS'crew!@therealjrsmithperk_409@matrix31@realtristan13@i_am_imanbwood_33@matthewdellymozg25https://instagram.com/p/0ExegNCTDI/&nbsp;'
p349
(lp350
I1
aI1
asS'Traveline'
p351
(lp352
I1
aI1
asS'Club.'
p353
(lp354
I1
aI1
asS'about#SleevesUpfor@HuffPostImpacthttp://rdcrss.org/brian&nbsp;'
p355
(lp356
I1
aI1
asS'radicalisation'
p357
(lp358
I1
aI1
asS'my'
p359
(lp360
I36
aI35
asS'App'
p361
(lp362
I1
aI1
asS'What&#39;s'
p363
(lp364
I3
aI3
asS'Standing'
p365
(lp366
I1
aI1
asS'at#Caldercruix.'
p367
(lp368
I1
aI1
asS'Airdrie.'
p369
(lp370
I1
aI1
asS'give'
p371
(lp372
I5
aI5
asS'1930spic.twitter.com/hEYlef7FVj'
p373
(lp374
I1
aI1
asS'skateboard'
p375
(lp376
I1
aI1
asS'Lin'
p377
(lp378
I1
aI1
asS'#COMPETITION!'
p379
(lp380
I1
aI1
asS'athletic-inspired'
p381
(lp382
I1
aI1
asS'british'
p383
(lp384
I1
aI1
asS'want'
p385
(lp386
I5
aI5
asS'Digital'
p387
(lp388
I4
aI3
asS'Travelling'
p389
(lp390
I2
aI2
asS'keep'
p391
(lp392
I3
aI3
asS'@RussellHobbsUKthanks'
p393
(lp394
I1
aI1
asS'returned'
p395
(lp396
I1
aI1
asS'time!#edintravelpic.twitter.com/tXsr4km2lK'
p397
(lp398
I1
aI1
asS'end'
p399
(lp400
I1
aI1
asS'win?'
p401
(lp402
I1
aI1
asS'thing'
p403
(lp404
I2
aI2
asS'EVERYTHING!#W2U#Watches#Sale#SpecialOffer#Savings#Weekend#Discounthttp://www.watches2u.com&nbsp;pic.twitter.com/lCEXneBtnR'
p405
(lp406
I1
aI1
asS'travel'
p407
(lp408
I5
aI5
asS'damage'
p409
(lp410
I1
aI1
asS'Ire'
p411
(lp412
I1
aI1
asS'how'
p413
(lp414
I12
aI12
asS'amazing'
p415
(lp416
I2
aI2
asS'J30'
p417
(lp418
I1
aI1
asS'win.'
p419
(lp420
I1
aI1
asS'to#WINa'
p421
(lp422
I1
aI1
asS'Newswire'
p423
(lp424
I1
aI1
asS'way.#ThisIsMelo'
p425
(lp426
I1
aI1
asS'win!'
p427
(lp428
I1
aI1
asS'III'
p429
(lp430
I3
aI3
asS'eyeballs'
p431
(lp432
I1
aI1
asS'A'
p433
(lp434
I17
aI17
asS'these@KarlieKlossworkouts:http://vogue.cm/199L2zC&nbsp;'
p435
(lp436
I1
aI1
asS'beauty'
p437
(lp438
I1
aI1
asS'Nerd.Simon'
p439
(lp440
I1
aI1
asS'bday'
p441
(lp442
I2
aI2
asS'warm'
p443
(lp444
I2
aI2
asS'after'
p445
(lp446
I7
aI7
asS'kindness!pic.twitter.com/elxahKRfqr'
p447
(lp448
I1
aI1
asS'Can'
p449
(lp450
I1
aI1
asS'homie!!'
p451
(lp452
I1
aI1
asS'Will'
p453
(lp454
I3
aI3
asS'dinosaurs'
p455
(lp456
I1
aI1
asS'wrong'
p457
(lp458
I1
aI1
asS'10!'
p459
(lp460
I1
aI1
asS'Singers,'
p461
(lp462
I1
aI1
asS'201...http://bit.ly/1DH48uK&nbsp;'
p463
(lp464
I1
aI1
asS'handy^^'
p465
(lp466
I1
aI1
asS'new#MichaelKors#SpringSummercollection'
p467
(lp468
I1
aI1
asS'All'
p469
(lp470
I11
aI11
asS'wins'
p471
(lp472
I1
aI1
asS'Rennie:'
p473
(lp474
I1
aI1
asS'reopened.'
p475
(lp476
I1
aI1
asS'appreciate'
p477
(lp478
I3
aI3
asS'between#Airdrieand#Bathgate.'
p479
(lp480
I1
aI1
asS'Art'
p481
(lp482
I1
aI1
asS'2/So'
p483
(lp484
I1
aI1
asS'green'
p485
(lp486
I1
aI1
asS'Another'
p487
(lp488
I2
aI2
asS'enter'
p489
(lp490
I2
aI2
asS'to#WIN100'
p491
(lp492
I1
aI1
asS'#WCWalert!!'
p493
(lp494
I1
aI1
asS'by@yusefhairnychttps://instagram.com/p/z5mkU_hM-r/&nbsp;'
p495
(lp496
I1
aI1
asS'welcome,@RealHughJackman).http://elizabethbanks.com/post/113824632280/i-want-to-join-the-charles-xavier-school-for&nbsp;'
p497
(lp498
I1
aI1
asS'order'
p499
(lp500
I1
aI1
asS'turns'
p501
(lp502
I1
aI1
asS'Blue'
p503
(lp504
I1
aI1
asS'nyc'
p505
(lp506
I1
aI1
asS'Ancient'
p507
(lp508
I1
aI1
asS'Twitter:'
p509
(lp510
I1
aI1
asS'today!'
p511
(lp512
I2
aI2
asS'Lioness'
p513
(lp514
I1
aI1
asS'over'
p515
(lp516
I11
aI10
asS'Ferrell?'
p517
(lp518
I1
aI1
asS'difference?'
p519
(lp520
I1
aI1
asS'today.'
p521
(lp522
I2
aI2
asS'out!pic.twitter.com/ohhObo91ih'
p523
(lp524
I1
aI1
asS'day:http://www.telegraph.co.uk/sponsored/lifestyle/guide-dogs/&nbsp;pic.twitter.com/NCx0WtxV3B'
p525
(lp526
I1
aI1
asS'World#StoryDay!'
p527
(lp528
I1
aI1
asS'before'
p529
(lp530
I3
aI3
asS'1!!http://www.sportlobster.com/post/522443/playing-with-my-kid-cr-junior.html&nbsp;pic.twitter.com/AHIS78oJNa'
p531
(lp532
I1
aI1
asS'difference'
p533
(lp534
I2
aI2
asS'Hit'
p535
(lp536
I1
aI1
asS'Modepic.twitter.com/kLDsDCENPy'
p537
(lp538
I1
aI1
asS'personal'
p539
(lp540
I1
aI1
asS'highlights'
p541
(lp542
I1
aI1
asS'Crossing#selfiecampaign'
p543
(lp544
I1
aI1
asS'Here'
p545
(lp546
I2
aI2
asS'crew'
p547
(lp548
I1
aI1
asS'better'
p549
(lp550
I4
aI4
asS'normalhttp://bit.ly/15xattH&nbsp;'
p551
(lp552
I1
aI1
asS're-location'
p553
(lp554
I1
aI1
asS'Shine'
p555
(lp556
I1
aI1
asS'Coldest'
p557
(lp558
I1
aI1
asS'winners.'
p559
(lp560
I1
aI1
asS'409'
p561
(lp562
I1
aI1
asS'donors'
p563
(lp564
I2
aI2
asS'them'
p565
(lp566
I4
aI4
asS'Kids'
p567
(lp568
I2
aI2
asS'affected'
p569
(lp570
I3
aI3
asS'press'
p571
(lp572
I2
aI2
asS'supporter'
p573
(lp574
I2
aI2
asS'10:00-16:00'
p575
(lp576
I1
aI1
asS'10%'
p577
(lp578
I1
aI1
asS'break'
p579
(lp580
I2
aI2
asS'they'
p581
(lp582
I5
aI5
asS'&#39;cut'
p583
(lp584
I1
aI1
asS'good?!'
p585
(lp586
I1
aI1
asS'Ready-to-Wear'
p587
(lp588
I14
aI14
asS'yourself'
p589
(lp590
I1
aI1
asS'Bolden'
p591
(lp592
I1
aI1
asS'Dumfries'
p593
(lp594
I1
aI1
asS'Liberal'
p595
(lp596
I1
aI1
asS'week,'
p597
(lp598
I1
aI1
asS'week.'
p599
(lp600
I1
aI1
asS'week!'
p601
(lp602
I1
aI1
asS'queues'
p603
(lp604
I1
aI1
asS'debut'
p605
(lp606
I2
aI2
asS'here:http://bit.ly/1LAm1j2&nbsp;pic.twitter.com/49kbCA9uBh'
p607
(lp608
I1
aI1
asS'24.http://smarturl.it/HomeSoundtrack&nbsp;'
p609
(lp610
I1
aI1
asS'Four'
p611
(lp612
I1
aI1
asS'headphones:http://ow.ly/JdVTb&nbsp;pic.twitter.com/vHwNwOKMWl'
p613
(lp614
I1
aI1
asS'Helensburgh-EDB'
p615
(lp616
I1
aI1
asS'fitness'
p617
(lp618
I1
aI1
asS'Curious'
p619
(lp620
I1
aI1
asS'went'
p621
(lp622
I1
aI1
asS'Check'
p623
(lp624
I8
aI8
asS'luck'
p625
(lp626
I1
aI1
asS'Rainbow'
p627
(lp628
I1
aI1
asS'&#10;&#10;See'
p629
(lp630
I3
aI3
asS'today&#39;s@nytimes#crosswordpuzzle.pic.twitter.com/2LoJbM1wMi'
p631
(lp632
I1
aI1
asS'directly'
p633
(lp634
I1
aI1
asS'series'
p635
(lp636
I2
aI2
asS'Wow'
p637
(lp638
I1
aI1
asS'challengeshttp://bbc.in/1AKGes9&nbsp;'
p639
(lp640
I1
aI1
asS'news.'
p641
(lp642
I1
aI1
asS'Thunder'
p643
(lp644
I2
aI2
asS'group'
p645
(lp646
I1
aI1
asS'doesn&#39;t'
p647
(lp648
I1
aI1
asS'celebrating'
p649
(lp650
I4
aI4
asS'Personality?&#10;&#10;http://bit.ly/1ASSpmL&nbsp;pic.twitter.com/N233Drpv2Y'
p651
(lp652
I1
aI1
asS'there&#39;s'
p653
(lp654
I1
aI1
asS'2day'
p655
(lp656
I1
aI1
asS'cathedral'
p657
(lp658
I1
aI1
asS'here:http://bit.ly/1BjdHsU&nbsp;'
p659
(lp660
I1
aI1
asS'by'
p661
(lp662
I31
aI31
asS'day:'
p663
(lp664
I1
aI1
asS'TRUCKS'
p665
(lp666
I1
aI1
asS'a#ShortyAward!#BreakupLetterhttp://bit.ly/1CEaPxM&nbsp;'
p667
(lp668
I1
aI1
asS'restricted'
p669
(lp670
I2
aI2
asS'Gilmour'
p671
(lp672
I2
aI2
asS'wide-open'
p673
(lp674
I1
aI1
asS'hooked'
p675
(lp676
I1
aI1
asS'day.'
p677
(lp678
I2
aI2
asS'day,'
p679
(lp680
I1
aI1
asS'self:'
p681
(lp682
I1
aI1
asS'Roadworks'
p683
(lp684
I1
aI1
asS'journeys#m8m73m74.'
p685
(lp686
I1
aI1
asS'got'
p687
(lp688
I8
aI8
asS'(Youre'
p689
(lp690
I1
aI1
asS'Outside'
p691
(lp692
I1
aI1
asS'Junior'
p693
(lp694
I1
aI1
asS'day!'
p695
(lp696
I2
aI2
asS'DLC'
p697
(lp698
I1
aI1
asS'Join'
p699
(lp700
I7
aI7
asS'city'
p701
(lp702
I1
aI1
asS'Spring-Summer'
p703
(lp704
I1
aI1
asS'the@TAGHeuerteam.#DontCrackUnderPressurehttp://youtu.be/VeiNHmiGq-E&nbsp;'
p705
(lp706
I1
aI1
asS'purple:http://glaad.org/spiritday&nbsp;pic.twitter.com/gmrF8CiUFN'
p707
(lp708
I1
aI1
asS'stars!'
p709
(lp710
I1
aI1
asS'Champions&#10;League'
p711
(lp712
I1
aI1
asS'way!http://l.ctx.ly/r/y1qb&nbsp;pic.twitter.com/3zTcd5np1i'
p713
(lp714
I1
aI1
asS'Planet'
p715
(lp716
I1
aI1
asS'small'
p717
(lp718
I2
aI2
asS'&#39;Whisper'
p719
(lp720
I1
aI1
asS'Sectorhttp://www.thirdsector.co.uk/article/1338925&nbsp;#Bedogsmart'
p721
(lp722
I1
aI1
asS'Handcrafted'
p723
(lp724
I1
aI1
asS'.@TheHungerGames:#Mockingjay(part'
p725
(lp726
I1
aI1
asS'wanted'
p727
(lp728
I1
aI1
asS'Egg'
p729
(lp730
I1
aI1
asS'Psycho'
p731
(lp732
I1
aI1
asS'Criticism'
p733
(lp734
I1
aI1
asS'go.'
p735
(lp736
I1
aI1
asS'BTP'
p737
(lp738
I1
aI1
asS'created'
p739
(lp740
I1
aI1
asS'starts'
p741
(lp742
I2
aI2
asS'National'
p743
(lp744
I1
aI1
asS'Centre'
p745
(lp746
I1
aI1
asS'days'
p747
(lp748
I4
aI4
asS'local'
p749
(lp750
I1
aI1
asS'alcohol'
p751
(lp752
I1
aI1
asS'+1'
p753
(lp754
I1
aI1
asS'Hotline'
p755
(lp756
I1
aI1
asS'#Taurusalways'
p757
(lp758
I1
aI1
asS'Chat'
p759
(lp760
I2
aI2
asS'TIME'
p761
(lp762
I1
aI1
asS'Ryan'
p763
(lp764
I1
aI1
asS'moving'
p765
(lp766
I1
aI1
asS'J28'
p767
(lp768
I2
aI2
asS'Chihuahua'
p769
(lp770
I2
aI2
asS'ownership'
p771
(lp772
I1
aI1
asS'too!'
p773
(lp774
I1
aI1
asS'encapsulation!#Exp43#YearInSpacehttps://flic.kr/s/aHsk8quHEE&nbsp;pic.twitter.com/IHOCIPIxfX'
p775
(lp776
I1
aI1
asS'Please'
p777
(lp778
I7
aI7
asS'Due'
p779
(lp780
I2
aI2
asS'I&#39;ll'
p781
(lp782
I1
aI1
asS'Proud:@aowon'
p783
(lp784
I1
aI1
asS'email'
p785
(lp786
I1
aI1
asS'featured'
p787
(lp788
I1
aI1
asS'another'
p789
(lp790
I3
aI3
asS'calorie'
p791
(lp792
I1
aI1
asS'of@cannykay1'
p793
(lp794
I1
aI1
asS'Excited'
p795
(lp796
I1
aI1
asS'#TBT:'
p797
(lp798
I1
aI1
asS'on@DrOztomorrow!'
p799
(lp800
I1
aI1
asS'prospered&quot;'
p801
(lp802
I1
aI1
asS'service'
p803
(lp804
I4
aI4
asS'top'
p805
(lp806
I1
aI1
asS'engagement'
p807
(lp808
I1
aI1
asS'recruiting'
p809
(lp810
I2
aI2
asS'balloted'
p811
(lp812
I1
aI1
asS'Cupcake'
p813
(lp814
I1
aI1
asS'Less'
p815
(lp816
I1
aI1
asS'needed'
p817
(lp818
I2
aI2
asS'Admirals'
p819
(lp820
I1
aI1
asS'folks.'
p821
(lp822
I1
aI1
asS'.'
p823
(lp824
I1
aI1
asS'Desert'
p825
(lp826
I1
aI1
asS'damaging'
p827
(lp828
I1
aI1
asS'with@FCBarcelonathey&#39;re'
p829
(lp830
I1
aI1
asS'urban'
p831
(lp832
I1
aI1
asS'Townhead'
p833
(lp834
I1
aI1
asS'B'
p835
(lp836
I3
aI3
asS'Rare'
p837
(lp838
I1
aI1
asS'Sure,'
p839
(lp840
I1
aI1
asS'the#Exp42landing'
p841
(lp842
I1
aI1
asS'enough,'
p843
(lp844
I2
aI1
asS'took'
p845
(lp846
I2
aI2
asS'challenge,https://instagram.com/p/ztka2DiTMj/&nbsp;'
p847
(lp848
I1
aI1
asS'Shotts/Carstairs'
p849
(lp850
I1
aI1
asS'5/Journalists'
p851
(lp852
I1
aI1
asS'long,'
p853
(lp854
I1
aI1
asS'done!http://for.tn/19w5aNI&nbsp;'
p855
(lp856
I1
aI1
asS'Fun'
p857
(lp858
I3
aI3
asS'Kratos'
p859
(lp860
I2
aI2
asS'&#39;transformed&#39;http://bbc.in/1Cnptp7&nbsp;#Tyneandwear'
p861
(lp862
I1
aI1
asS'Bridge)'
p863
(lp864
I1
aI1
asS'Rugby'
p865
(lp866
I2
aI2
asS'enough!'
p867
(lp868
I1
aI1
asS'extended.'
p869
(lp870
I1
aI1
asS'Bathgate.'
p871
(lp872
I3
aI3
asS'Bathgate,'
p873
(lp874
I1
aI1
asS'up@rihannawith#FourFiveSeconds&gt;&gt;&gt;http://mtvne.ws/YVGVsp&nbsp;pic.twitter.com/L4OPC85Wkv'
p875
(lp876
I1
aI1
asS'PLOUGHING'
p877
(lp878
I1
aI1
asS'rd'
p879
(lp880
I1
aI1
asS'scenes'
p881
(lp882
I2
aI2
asS'conditions...'
p883
(lp884
I1
aI1
asS'project'
p885
(lp886
I1
aI1
asS'matter'
p887
(lp888
I1
aI1
asS'See'
p889
(lp890
I5
aI5
asS'photos:https://flic.kr/s/aHsk8x38on&nbsp;#NASA#ISS#ISSCrewpic.twitter.com/fUsOE6HrLR'
p891
(lp892
I1
aI1
asS'Sec'
p893
(lp894
I1
aI1
asS'Sc...http://bit.ly/1DGeF9E&nbsp;'
p895
(lp896
I1
aI1
asS'Blu-Ray'
p897
(lp898
I1
aI1
asS'design'
p899
(lp900
I1
aI1
asS'hacking'
p901
(lp902
I1
aI1
asS'old,'
p903
(lp904
I1
aI1
asS'14th:http://bit.ly/1LArqqk&nbsp;Includes'
p905
(lp906
I1
aI1
asS'perspective'
p907
(lp908
I1
aI1
asS'happy?http://bbc.in/1FIUHum&nbsp;'
p909
(lp910
I1
aI1
asS'themse...http://bit.ly/1xFUmlp&nbsp;'
p911
(lp912
I1
aI1
asS'fashion'
p913
(lp914
I2
aI2
asS'that?!'
p915
(lp916
I1
aI1
asS'teams?'
p917
(lp918
I1
aI1
asS'Multiplayer'
p919
(lp920
I1
aI1
asS'Morbidly'
p921
(lp922
I2
aI2
asS'indyref'
p923
(lp924
I1
aI1
asS'well,'
p925
(lp926
I1
aI1
asS'presents!https://cards.twitter.com/cards/18ce53ung4j/et3b&nbsp;'
p927
(lp928
I1
aI1
asS'seen'
p929
(lp930
I3
aI3
asS'UKhttp://l.ctx.ly/r/y25r&nbsp;pic.twitter.com/ICsNIaNsM0'
p931
(lp932
I1
aI1
asS'mins'
p933
(lp934
I1
aI1
asS'have@BekoUKpartnered'
p935
(lp936
I1
aI1
asS'tells'
p937
(lp938
I1
aI1
asS'guys,'
p939
(lp940
I1
aI1
asS'year!#Beko25pic.twitter.com/keqN324o8l'
p941
(lp942
I1
aI1
asS'Tom&#39;s'
p943
(lp944
I1
aI1
asS'treat?'
p945
(lp946
I1
aI1
asS'do!'
p947
(lp948
I1
aI1
asS'-'
p949
(lp950
I39
aI31
asS'Manager'
p951
(lp952
I2
aI2
asS'&quot;nothing'
p953
(lp954
I1
aI1
asS'Band'
p955
(lp956
I1
aI1
asS'fitting'
p957
(lp958
I1
aI1
asS'They'
p959
(lp960
I3
aI3
asS'season'
p961
(lp962
I1
aI1
asS'onhttps://instagram.com/p/0HEwGZzNem/&nbsp;'
p963
(lp964
I1
aI1
asS'Happiest'
p965
(lp966
I1
aI1
asS'Official#GTAOnlinelivestreams'
p967
(lp968
I1
aI1
asS'Bank'
p969
(lp970
I1
aI1
asS'continuous'
p971
(lp972
I1
aI1
asS'long.#SwagChampHaha!https://instagram.com/p/z3bRm0CTPA/&nbsp;'
p973
(lp974
I1
aI1
asS'Wish'
p975
(lp976
I1
aI1
asS'AF.#GoRunIt#notMe#butgoodforyoupic.twitter.com/ZUsKVbKOFd'
p977
(lp978
I1
aI1
asS'involving'
p979
(lp980
I1
aI1
asS'at#TocketsMillis'
p981
(lp982
I1
aI1
asS'plenty'
p983
(lp984
I1
aI1
asS'simulator@StationCDRKelly#Exp43#YearInSpacehttps://flic.kr/s/aHsk8quHEE&nbsp;pic.twitter.com/ehzDvmbPvI'
p985
(lp986
I1
aI1
asS'Alabama'
p987
(lp988
I1
aI1
asS'the#Soyuzunder'
p989
(lp990
I1
aI1
asS'Haymarket.'
p991
(lp992
I1
aI1
asS'Whats'
p993
(lp994
I1
aI1
asS'treats'
p995
(lp996
I1
aI1
asS'Tumblr,'
p997
(lp998
I1
aI1
asS'ballin!'
p999
(lp1000
I1
aI1
asS'alarm'
p1001
(lp1002
I1
aI1
asS'clock'
p1003
(lp1004
I1
aI1
asS'dog'
p1005
(lp1006
I5
aI5
asS'on@YahooSportshttp://yhoo.it/carmelo&nbsp;'
p1007
(lp1008
I2
aI2
asS'.@SMSAudiogiving'
p1009
(lp1010
I1
aI1
asS'Maria@dt_Ballymenawill'
p1011
(lp1012
I1
aI1
asS'strong!'
p1013
(lp1014
I1
aI1
asS'definitely'
p1015
(lp1016
I2
aI2
asS'overnight'
p1017
(lp1018
I1
aI1
asS'Election'
p1019
(lp1020
I1
aI1
asS'Want'
p1021
(lp1022
I5
aI5
asS'mainland:'
p1023
(lp1024
I1
aI1
asS'Its'
p1025
(lp1026
I3
aI3
asS'Clean?'
p1027
(lp1028
I1
aI1
asS'mid-morning'
p1029
(lp1030
I1
aI1
asS'1000&#39;s'
p1031
(lp1032
I1
aI1
asS'ringtones'
p1033
(lp1034
I1
aI1
asS'labels'
p1035
(lp1036
I1
aI1
asS'nominated'
p1037
(lp1038
I1
aI1
asS'part...http://bit.ly/1Bi3Nrx&nbsp;'
p1039
(lp1040
I1
aI1
asS'Skylar'
p1041
(lp1042
I1
aI1
asS'to/from'
p1043
(lp1044
I1
aI1
asS'busy,'
p1045
(lp1046
I1
aI1
asS'&#39;Ebola-proof&#39;'
p1047
(lp1048
I1
aI1
asS'Day!'
p1049
(lp1050
I3
aI3
asS'hes'
p1051
(lp1052
I1
aI1
asS'athttp://bit.ly/1MS6mZM&nbsp;pic.twitter.com/QfdoGLUqsc'
p1053
(lp1054
I1
aI1
asS'busy'
p1055
(lp1056
I3
aI3
asS'crossfit'
p1057
(lp1058
I1
aI1
asS'us:http://vogue.cm/1OfJh4Q&nbsp;pic.twitter.com/wRbI6OvJbv'
p1059
(lp1060
I1
aI1
asS'appliances'
p1061
(lp1062
I1
aI1
asS'RT@realchillwall:#SanFrancisco&#10;TALIB'
p1063
(lp1064
I1
aI1
asS'Bid'
p1065
(lp1066
I1
aI1
asS'can&#39;t'
p1067
(lp1068
I3
aI3
asS'&#39;TRAINED'
p1069
(lp1070
I1
aI1
asS'LIVE'
p1071
(lp1072
I2
aI2
asS'mind!#PackYourBagspic.twitter.com/gpXShlUR96'
p1073
(lp1074
I1
aI1
asS'at#baselworld2015,'
p1075
(lp1076
I1
aI1
asS'Ashdown:'
p1077
(lp1078
I1
aI1
asS'headphoneshttp://ow.ly/IDzR6&nbsp;pic.twitter.com/lu9zl5N7vp'
p1079
(lp1080
I1
aI1
asS'announce'
p1081
(lp1082
I2
aI2
asS'nine-year'
p1083
(lp1084
I1
aI1
asS'Orkney'
p1085
(lp1086
I1
aI1
asS'Congrats@serenawilliamsat'
p1087
(lp1088
I1
aI1
asS'wearing'
p1089
(lp1090
I1
aI1
asS'do'
p1091
(lp1092
I11
aI10
asS'competition:http://life.ao.com/wp-content/uploads/2015/03/Twitter-TsCs-180315.pdf&nbsp;'
p1093
(lp1094
I1
aI1
asS'Padalka,'
p1095
(lp1096
I3
aI3
asS'rampage.'
p1097
(lp1098
I1
aI1
asS'jabhttp://bbc.in/1AWx2Qu&nbsp;'
p1099
(lp1100
I1
aI1
asS'watch'
p1101
(lp1102
I2
aI2
asS'secrets:http://vogue.cm/1C7jeb3&nbsp;'
p1103
(lp1104
I1
aI1
asS'an@andrewdostpic.twitter.com/OszC5H9bPR'
p1105
(lp1106
I1
aI1
asS'album:http://youtu.be/ssVvkfcL9HI&nbsp;'
p1107
(lp1108
I1
aI1
asS'cushion'
p1109
(lp1110
I1
aI1
asS'wedding'
p1111
(lp1112
I1
aI1
asS'Quick'
p1113
(lp1114
I2
aI2
asS'15'
p1115
(lp1116
I3
aI3
asS'w/B'
p1117
(lp1118
I1
aI1
asS'Wraptious'
p1119
(lp1120
I1
aI1
asS'incredible.'
p1121
(lp1122
I1
aI1
asS'08:40'
p1123
(lp1124
I1
aI1
asS'weekend?'
p1125
(lp1126
I1
aI1
asS'Tests.These'
p1127
(lp1128
I1
aI1
asS'birthday.pic.twitter.com/SyQdK2pGey'
p1129
(lp1130
I1
aI1
asS'Over'
p1131
(lp1132
I2
aI2
asS'galaxy?'
p1133
(lp1134
I1
aI1
asS'happy:http://vogue.cm/19a8FrZ&nbsp;'
p1135
(lp1136
I1
aI1
asS'bad'
p1137
(lp1138
I1
aI1
asS'far-right'
p1139
(lp1140
I1
aI1
asS'-http://www.scotrail.co.uk/sport&nbsp;'
p1141
(lp1142
I1
aI1
asS'94!@nickjfrost@edgarwright@simonpeggpic.twitter.com/WvXGqdvVV0'
p1143
(lp1144
I1
aI1
asS'weekend.'
p1145
(lp1146
I4
aI4
asS'release'
p1147
(lp1148
I1
aI1
asS'them.'
p1149
(lp1150
I2
aI2
asS'Tweet.https://blog.twitter.com/2015/nine-years-and-counting&nbsp;pic.twitter.com/49pLA4A1Jj'
p1151
(lp1152
I1
aI1
asS'gotta'
p1153
(lp1154
I1
aI1
asS'&quot;unparallelled&quot;'
p1155
(lp1156
I1
aI1
asS'disaster'
p1157
(lp1158
I1
aI1
asS'Cumbernauld'
p1159
(lp1160
I1
aI1
asS'Heres'
p1161
(lp1162
I1
aI1
asS'Hire'
p1163
(lp1164
I1
aI1
asS'in@ChrisElliRetailstore'
p1165
(lp1166
I1
aI1
asS'1Goal!!!!!#TheLand'
p1167
(lp1168
I1
aI1
asS'AED'
p1169
(lp1170
I1
aI1
asS'LIBYA&#39;:'
p1171
(lp1172
I1
aI1
asS'spattered'
p1173
(lp1174
I1
aI1
asS'25/11'
p1175
(lp1176
I1
aI1
asS'PS4'
p1177
(lp1178
I4
aI4
asS'subject'
p1179
(lp1180
I1
aI1
asS'year@nfumare'
p1181
(lp1182
I2
aI2
asS'campaigners'
p1183
(lp1184
I2
aI1
asS'Edition'
p1185
(lp1186
I1
aI1
asS'lots'
p1187
(lp1188
I2
aI2
asS'away'
p1189
(lp1190
I4
aI4
asS'shaved'
p1191
(lp1192
I1
aI1
asS'Style&#10;&#10;@donbgphoto&#10;thebunkerphotostudio'
p1193
(lp1194
I1
aI1
asS'Play&quot;#GTAOnlineAdversary'
p1195
(lp1196
I1
aI1
asS'discovers'
p1197
(lp1198
I1
aI1
asS'embroidery'
p1199
(lp1200
I1
aI1
asS'drawn'
p1201
(lp1202
I3
aI3
asS'Syria.'
p1203
(lp1204
I1
aI1
asS'we&#39;ve'
p1205
(lp1206
I4
aI4
asS'the@PlenishCleanseteam'
p1207
(lp1208
I1
aI1
asS'we'
p1209
(lp1210
I18
aI17
asS'men'
p1211
(lp1212
I1
aI1
asS'Central'
p1213
(lp1214
I1
aI1
asS'calls@JohnLegerebest'
p1215
(lp1216
I1
aI1
asS'nature'
p1217
(lp1218
I1
aI1
asS'were'
p1219
(lp1220
I3
aI3
asS'...quick'
p1221
(lp1222
I1
aI1
asS'we!!!!'
p1223
(lp1224
I1
aI1
asS'cut'
p1225
(lp1226
I2
aI2
asS'wear'
p1227
(lp1228
I3
aI3
asS'easing,'
p1229
(lp1230
I2
aI2
asS'&#10;This'
p1231
(lp1232
I1
aI1
asS'news'
p1233
(lp1234
I3
aI3
asS'Pegg.http://facebook.com/officialsimonpegg&nbsp;'
p1235
(lp1236
I1
aI1
asS'info:http://bit.ly/1BB1xA9&nbsp;'
p1237
(lp1238
I1
aI1
asS'kitchen'
p1239
(lp1240
I1
aI1
asS'Verizon/AT&amp;T'
p1241
(lp1242
I1
aI1
asS'Peter'
p1243
(lp1244
I1
aI1
asS'PSN'
p1245
(lp1246
I2
aI2
asS'athttp://scotrail.co.uk/disruption&nbsp;#Caldercruix^CT'
p1247
(lp1248
I1
aI1
asS'country'
p1249
(lp1250
I1
aI1
asS'Blessed'
p1251
(lp1252
I1
aI1
asS'against'
p1253
(lp1254
I2
aI2
asS'games'
p1255
(lp1256
I1
aI1
asS'Catholics'
p1257
(lp1258
I1
aI1
asS'Navy'
p1259
(lp1260
I1
aI1
asS'Aberdeen'
p1261
(lp1262
I1
aI1
asS'good.#cleantaste'
p1263
(lp1264
I1
aI1
asS'Arent'
p1265
(lp1266
I1
aI1
asS'winter.'
p1267
(lp1268
I2
aI2
asS'Football'
p1269
(lp1270
I1
aI1
asS'tough'
p1271
(lp1272
I1
aI1
asS'Freebies,'
p1273
(lp1274
I1
aI1
asS'33.'
p1275
(lp1276
I1
aI1
asS'guaranteed'
p1277
(lp1278
I1
aI1
asS'new@Nikex'
p1279
(lp1280
I1
aI1
asS'showers,'
p1281
(lp1282
I1
aI1
asS'She&#39;s'
p1283
(lp1284
I2
aI2
asS'engulfs'
p1285
(lp1286
I1
aI1
asS'@attcustomer'
p1287
(lp1288
I1
aI1
asS'Shout'
p1289
(lp1290
I1
aI1
asS'store.http://l.ctx.ly/r/y4g0&nbsp;#SALEpic.twitter.com/D3bgvW4qEo'
p1291
(lp1292
I1
aI1
asS'Daisy#missing#darlington#longnewton#coathamwoodsPlease'
p1293
(lp1294
I1
aI1
asS'.@jimcramerhi'
p1295
(lp1296
I1
aI1
asS'jersey.#BigBrackethttp://yhoo.it/carmelo&nbsp;'
p1297
(lp1298
I1
aI1
asS'DJ'
p1299
(lp1300
I1
aI1
asS'Helensburghpic.twitter.com/Gi9jPb4mNK'
p1301
(lp1302
I1
aI1
asS'speak'
p1303
(lp1304
I1
aI1
asS'now,'
p1305
(lp1306
I2
aI2
asS'now.'
p1307
(lp1308
I1
aI1
asS'tan,'
p1309
(lp1310
I1
aI1
asS'Want@andrewdostto'
p1311
(lp1312
I1
aI1
asS'here:http://www.fashionfoiegras.com/&nbsp;'
p1313
(lp1314
I1
aI1
asS'you&#39;re'
p1315
(lp1316
I4
aI4
asS'now!'
p1317
(lp1318
I3
aI3
asS'been'
p1319
(lp1320
I22
aI21
asS'for#Windto'
p1321
(lp1322
I1
aI1
asS'beer'
p1323
(lp1324
I1
aI1
asS'much'
p1325
(lp1326
I5
aI5
asS'tina'
p1327
(lp1328
I1
aI1
asS'Bloodborne:http://bit.ly/1C0IQWR&nbsp;Out'
p1329
(lp1330
I1
aI1
asS'expected'
p1331
(lp1332
I1
aI1
asS'entered'
p1333
(lp1334
I4
aI4
asS'BIRTHDAY!!'
p1335
(lp1336
I1
aI1
asS'to#winhttp://bit.ly/AhXMA6&nbsp;in'
p1337
(lp1338
I1
aI1
asS'website'
p1339
(lp1340
I1
aI1
asS'obese'
p1341
(lp1342
I2
aI2
asS'life'
p1343
(lp1344
I3
aI3
asS'families'
p1345
(lp1346
I1
aI1
asS'spring,'
p1347
(lp1348
I1
aI1
asS'Mothers'
p1349
(lp1350
I1
aI1
asS'drugs'
p1351
(lp1352
I2
aI2
asS'&#39;Half'
p1353
(lp1354
I1
aI1
asS'#Heists,'
p1355
(lp1356
I1
aI1
asS'CF'
p1357
(lp1358
I1
aI1
asS'Flyover'
p1359
(lp1360
I1
aI1
asS'life...http://l.ctx.ly/r/y036&nbsp;pic.twitter.com/yC4duXZQjs'
p1361
(lp1362
I1
aI1
asS'We&#39;ll'
p1363
(lp1364
I1
aI1
asS'craft'
p1365
(lp1366
I1
aI1
asS'bullying'
p1367
(lp1368
I1
aI1
asS'Zipparah,'
p1369
(lp1370
I1
aI1
asS'brightening'
p1371
(lp1372
I1
aI1
asS'CR'
p1373
(lp1374
I2
aI1
asS'(and'
p1375
(lp1376
I1
aI1
asS'that.........Blue'
p1377
(lp1378
I1
aI1
asS'tonights#TheHotel8pm'
p1379
(lp1380
I1
aI1
asS'MAJOR'
p1381
(lp1382
I1
aI1
asS'has'
p1383
(lp1384
I18
aI18
asS'AM&#10;&#10;Today:'
p1385
(lp1386
I1
aI1
asS'Rihanna!http://hbazaar.co/6013FmIv&nbsp;pic.twitter.com/KOa2r6xn1c'
p1387
(lp1388
I1
aI1
asS'Night!http://jpjoy.co/8aikdx&nbsp;'
p1389
(lp1390
I1
aI1
asS'ever:http://bgr.com/2015/03/18/t-mobile-uncarrier-9-small-businesses/&nbsp;'
p1391
(lp1392
I1
aI1
asS'n'
p1393
(lp1394
I1
aI1
asS'posted!https://flic.kr/s/aHsk982BKj&nbsp;#NASA#MMSpic.twitter.com/CJ5SQEdp6o'
p1395
(lp1396
I1
aI1
asS'evening'
p1397
(lp1398
I3
aI3
asS'travel.'
p1399
(lp1400
I2
aI2
asS'LA'
p1401
(lp1402
I1
aI1
asS'Block.'
p1403
(lp1404
I1
aI1
asS'photographed'
p1405
(lp1406
I1
aI1
asS'brother@Becksmeister&#39;s'
p1407
(lp1408
I1
aI1
asS'launched'
p1409
(lp1410
I1
aI1
asS'stop'
p1411
(lp1412
I1
aI1
asS'played'
p1413
(lp1414
I1
aI1
asS'ofhttp://ThisIsMelo.com&nbsp;has'
p1415
(lp1416
I1
aI1
asS'is'
p1417
(lp1418
I67
aI63
asS'GO!'
p1419
(lp1420
I1
aI1
asS'it'
p1421
(lp1422
I33
aI33
asS'Progress...'
p1423
(lp1424
I1
aI1
asS'Mens'
p1425
(lp1426
I2
aI2
asS'(Sun'
p1427
(lp1428
I1
aI1
asS'everyone&#39;s'
p1429
(lp1430
I1
aI1
asS'im'
p1431
(lp1432
I1
aI1
asS'in'
p1433
(lp1434
I119
aI111
asS'campaigning'
p1435
(lp1436
I1
aI1
asS'Snapchat!'
p1437
(lp1438
I1
aI1
asS'with#ErniePrize!http://jpjoy.co/vXFxod&nbsp;'
p1439
(lp1440
I1
aI1
asS'Tell'
p1441
(lp1442
I4
aI4
asS'@RihrihFreak:'
p1443
(lp1444
I1
aI1
asS'if'
p1445
(lp1446
I5
aI5
asS'confirmed'
p1447
(lp1448
I1
aI1
asS'claim.'
p1449
(lp1450
I1
aI1
asS'things'
p1451
(lp1452
I2
aI2
asS'make'
p1453
(lp1454
I14
aI13
asS'Craig!!!!!'
p1455
(lp1456
I1
aI1
asS'Southbound'
p1457
(lp1458
I1
aI1
asS'onhttp://chanel-news.com/-fall-winter-2015-16-rtw&nbsp;pic.twitter.com/jwV7jGILFq'
p1459
(lp1460
I1
aI1
asS'&#10;&#10;ohrangutang'
p1461
(lp1462
I1
aI1
asS'patient'
p1463
(lp1464
I1
aI1
asS'damages'
p1465
(lp1466
I1
aI1
asS'&quot;8-Year-Old'
p1467
(lp1468
I1
aI1
asS'big'
p1469
(lp1470
I10
aI9
asS'with@BloodyBeetroots&amp;'
p1471
(lp1472
I1
aI1
asS'worry,'
p1473
(lp1474
I1
aI1
asS'meets'
p1475
(lp1476
I1
aI1
asS'it&#39;s@glaad#spiritday!'
p1477
(lp1478
I1
aI1
asS'AUCTION'
p1479
(lp1480
I1
aI1
asS'Maybe'
p1481
(lp1482
I2
aI2
asS'the#DreamworksHOMEsoundtrack'
p1483
(lp1484
I1
aI1
asS'Salmond&#39;s'
p1485
(lp1486
I1
aI1
asS'kit'
p1487
(lp1488
I2
aI2
asS'thishttps://instagram.com/p/0G9dexTNUK/&nbsp;'
p1489
(lp1490
I1
aI1
asS'fake.'
p1491
(lp1492
I1
aI1
asS'Bristol'
p1493
(lp1494
I1
aI1
asS'uno)'
p1495
(lp1496
I1
aI1
asS'guardian'
p1497
(lp1498
I1
aI1
asS'opportunity'
p1499
(lp1500
I1
aI1
asS'now.pic.twitter.com/u6HvvwH3PQ'
p1501
(lp1502
I1
aI1
asS'thoughts'
p1503
(lp1504
I1
aI1
asS'(nearly)'
p1505
(lp1506
I1
aI1
asS'67,'
p1507
(lp1508
I1
aI1
asS'*CLEAR*'
p1509
(lp1510
I2
aI2
asS'dog.pic.twitter.com/lxoQIKZh6Q'
p1511
(lp1512
I1
aI1
asS'rally:'
p1513
(lp1514
I1
aI1
asS'youre'
p1515
(lp1516
I3
aI3
asS'suffering'
p1517
(lp1518
I2
aI2
asS'live!!'
p1519
(lp1520
I1
aI1
asS'with@Facebook#NBAAllStarNYC#ThisIsMe7opic.twitter.com/5fBukDvvil'
p1521
(lp1522
I1
aI1
asS'week:http://vogue.cm/1MWQQKk&nbsp;'
p1523
(lp1524
I1
aI1
asS'contact'
p1525
(lp1526
I2
aI2
asS'controlhttp://bbc.in/1GXRp4y&nbsp;'
p1527
(lp1528
I1
aI1
asS'hearts'
p1529
(lp1530
I1
aI1
asS'the'
p1531
(lp1532
I221
aI195
asS'you&#39;ll'
p1533
(lp1534
I2
aI2
asS'much!'
p1535
(lp1536
I1
aI1
asS'left'
p1537
(lp1538
I2
aI2
asS'shoe.#brasseriechanelMore'
p1539
(lp1540
I1
aI1
asS'via@racked:http://bit.ly/1xmes9u&nbsp;pic.twitter.com/yHGMrLBIBB'
p1541
(lp1542
I1
aI1
asS'matter!pic.twitter.com/CXjxE9kpjJ'
p1543
(lp1544
I1
aI1
asS'Thank'
p1545
(lp1546
I7
aI6
asS'just'
p1547
(lp1548
I16
aI16
asS'Lots'
p1549
(lp1550
I1
aI1
asS'lost?http://bbc.in/1AD6a95&nbsp;'
p1551
(lp1552
I1
aI1
asS'sporting'
p1553
(lp1554
I1
aI1
asS'@andipeterslooks'
p1555
(lp1556
I1
aI1
asS'kitties.pic.twitter.com/f0DD8zxIot'
p1557
(lp1558
I1
aI1
asS'donates'
p1559
(lp1560
I1
aI1
asS'thanks'
p1561
(lp1562
I3
aI3
asS'@RussellHobbsUKsending'
p1563
(lp1564
I1
aI1
asS'Win!'
p1565
(lp1566
I1
aI1
asS'Div'
p1567
(lp1568
I1
aI1
asS'Happy'
p1569
(lp1570
I14
aI14
asS'undocks'
p1571
(lp1572
I1
aI1
asS'plans:'
p1573
(lp1574
I1
aI1
asS'burns'
p1575
(lp1576
I1
aI1
asS'Sometimes'
p1577
(lp1578
I1
aI1
asS'Tess#FindTess'
p1579
(lp1580
I1
aI1
asS'Murrayfield.'
p1581
(lp1582
I1
aI1
asS'character'
p1583
(lp1584
I3
aI2
asS'heard'
p1585
(lp1586
I1
aI1
asS'Soundtrack'
p1587
(lp1588
I1
aI1
asS'countrys'
p1589
(lp1590
I1
aI1
asS'easy'
p1591
(lp1592
I4
aI4
asS'Jim,'
p1593
(lp1594
I1
aI1
asS'News'
p1595
(lp1596
I1
aI1
asS'save'
p1597
(lp1598
I2
aI2
asS'hat'
p1599
(lp1600
I1
aI1
asS'St.'
p1601
(lp1602
I3
aI2
asS'take'
p1603
(lp1604
I6
aI6
asS'http://THISISMELO.COM&nbsp;RT'
p1605
(lp1606
I1
aI1
asS'ago.'
p1607
(lp1608
I1
aI1
asS'Merry'
p1609
(lp1610
I1
aI1
asS'Watches2U'
p1611
(lp1612
I1
aI1
asS'Cleaner?pic.twitter.com/tPtjljow9I'
p1613
(lp1614
I1
aI1
asS'tmrw'
p1615
(lp1616
I1
aI1
asS'fact:'
p1617
(lp1618
I1
aI1
asS'show#brasseriechanelpic.twitter.com/jHhEhBNtgr'
p1619
(lp1620
I1
aI1
asS'consisted'
p1621
(lp1622
I1
aI1
asS'low...http://bit.ly/1DH48uU&nbsp;'
p1623
(lp1624
I1
aI1
asS'shadow'
p1625
(lp1626
I1
aI1
asS'designers'
p1627
(lp1628
I1
aI1
asS'chicest'
p1629
(lp1630
I1
aI1
asS'apart'
p1631
(lp1632
I1
aI1
asS'shoulder'
p1633
(lp1634
I1
aI1
asS'Heart'
p1635
(lp1636
I1
aI1
asS'Palais'
p1637
(lp1638
I1
aI1
asS'w/#VSUltimateChallenge+#Contest!'
p1639
(lp1640
I1
aI1
asS'appearing'
p1641
(lp1642
I1
aI1
asS'Win!!!#Cavs#TheLand'
p1643
(lp1644
I1
aI1
asS'gift'
p1645
(lp1646
I1
aI1
asS'Also'
p1647
(lp1648
I1
aI1
asS'Nexus'
p1649
(lp1650
I1
aI1
asS'myself).'
p1651
(lp1652
I1
aI1
asS'hunt'
p1653
(lp1654
I1
aI1
asS'country.'
p1655
(lp1656
I1
aI1
asS'southbound#goodnews'
p1657
(lp1658
I1
aI1
asS'PS4pic.twitter.com/8rVBG0WMqc'
p1659
(lp1660
I1
aI1
asS'o&#39;'
p1661
(lp1662
I1
aI1
asS'specific'
p1663
(lp1664
I1
aI1
asS'5,'
p1665
(lp1666
I1
aI1
asS'Are'
p1667
(lp1668
I6
aI5
asS'delayed/cancelled.'
p1669
(lp1670
I1
aI1
asS'night'
p1671
(lp1672
I7
aI7
asS'AT&amp;T'
p1673
(lp1674
I1
aI1
asS'Hysterically'
p1675
(lp1676
I1
aI1
asS'right'
p1677
(lp1678
I7
aI6
asS'Children&#39;s'
p1679
(lp1680
I1
aI1
asS'trained'
p1681
(lp1682
I1
aI1
asS'deal'
p1683
(lp1684
I1
aI1
asS'people'
p1685
(lp1686
I10
aI10
asS'HS'
p1687
(lp1688
I1
aI1
asS'enjoy@TMobile!!http://bit.ly/1FdhXS7&nbsp;'
p1689
(lp1690
I1
aI1
asS'Now!'
p1691
(lp1692
I1
aI1
asS'Been'
p1693
(lp1694
I2
aI2
asS'know.'
p1695
(lp1696
I1
aI1
asS'PERFECTION,@Sara_Sampaio!'
p1697
(lp1698
I1
aI1
asS'@ScotRail2nd'
p1699
(lp1700
I1
aI1
asS'#PantyPartytime!'
p1701
(lp1702
I1
aI1
asS'co-founder!http://cnet.co/1OdJTrz&nbsp;'
p1703
(lp1704
I1
aI1
asS'home@dt_leeds-'
p1705
(lp1706
I1
aI1
asS'the#M74heading'
p1707
(lp1708
I1
aI1
asS'Edinburgh'
p1709
(lp1710
I7
aI5
asS'Malibu'
p1711
(lp1712
I1
aI1
asS'show.#brasseriechanelMore'
p1713
(lp1714
I4
aI4
asS'at#percyWoodlooking'
p1715
(lp1716
I1
aI1
asS'Annan'
p1717
(lp1718
I1
aI1
asS'for'
p1719
(lp1720
I129
aI119
asS'Siege'
p1721
(lp1722
I1
aI1
asS'Leo'
p1723
(lp1724
I1
aI1
asS'today!!#photoshop#dogstrust#chihuahuahttps://instagram.com/p/0czndQTXFM/&nbsp;'
p1725
(lp1726
I1
aI1
asS'comments'
p1727
(lp1728
I1
aI1
asS'creative'
p1729
(lp1730
I1
aI1
asS'Gifts'
p1731
(lp1732
I1
aI1
asS'everything'
p1733
(lp1734
I2
aI2
asS'tonight?'
p1735
(lp1736
I1
aI1
asS'latest#competitionfor'
p1737
(lp1738
I1
aI1
asS'Facebook'
p1739
(lp1740
I1
aI1
asS'onhttp://chanel-news.com/-fall-winter-2015-16-rtw&nbsp;pic.twitter.com/QjgZuwx80U'
p1741
(lp1742
I1
aI1
asS'cancelled.'
p1743
(lp1744
I1
aI1
asS'clean!https://cards.twitter.com/cards/18ce53ung4j/eger&nbsp;'
p1745
(lp1746
I1
aI1
asS'adorable'
p1747
(lp1748
I1
aI1
asS'collaboration'
p1749
(lp1750
I3
aI3
asS'He'
p1751
(lp1752
I3
aI3
asS'Remastered'
p1753
(lp1754
I1
aI1
asS'winpic.twitter.com/WFWwKxh6nb'
p1755
(lp1756
I1
aI1
asS'Ale...http://bit.ly/1HbmFR7&nbsp;'
p1757
(lp1758
I1
aI1
asS'pls'
p1759
(lp1760
I1
aI1
asS'Herehttp://bit.ly/1ACzegO&nbsp;pic.twitter.com/eOsZFkiCKg'
p1761
(lp1762
I1
aI1
asS'corn'
p1763
(lp1764
I1
aI1
asS'collection.#brasseriechanelpic.twitter.com/72ej5E4O5G'
p1765
(lp1766
I1
aI1
asS'MONEY'
p1767
(lp1768
I1
aI1
asS'illustration'
p1769
(lp1770
I1
aI1
asS'dedication,'
p1771
(lp1772
I1
aI1
asS'fingertips?'
p1773
(lp1774
I1
aI1
asS'Place'
p1775
(lp1776
I1
aI1
asS'gavehttps://instagram.com/p/zyljxZiTJL/&nbsp;'
p1777
(lp1778
I1
aI1
asS'super'
p1779
(lp1780
I2
aI2
asS'back!https://flic.kr/s/aHsk8x38on&nbsp;#NASA#ISSCrew#ISSpic.twitter.com/bikYgMOO5Q'
p1781
(lp1782
I1
aI1
asS'First'
p1783
(lp1784
I5
aI5
asS'voice,'
p1785
(lp1786
I1
aI1
asS'journeyhttp://www.scotrail.co.uk/sport&nbsp;'
p1787
(lp1788
I1
aI1
asS'Beckham'
p1789
(lp1790
I1
aI1
asS'months'
p1791
(lp1792
I2
aI2
asS'assault'
p1793
(lp1794
I1
aI1
asS'finalehttp://jpjoy.co/vXFxod&nbsp;http://jpjoy.co/Z9pSV4&nbsp;'
p1795
(lp1796
I1
aI1
asS'afternoon'
p1797
(lp1798
I1
aI1
asS'companion.'
p1799
(lp1800
I1
aI1
asS'cherish'
p1801
(lp1802
I1
aI1
asS'Cameron'
p1803
(lp1804
I1
aI1
asS'Games'
p1805
(lp1806
I1
aI1
asS'Still'
p1807
(lp1808
I1
aI1
asS'Elche.'
p1809
(lp1810
I1
aI1
asS'Best'
p1811
(lp1812
I3
aI3
asS'Coming'
p1813
(lp1814
I1
aI1
asS'Cut'
p1815
(lp1816
I1
aI1
asS'Easter@HotelChocolat@johnlewisretailvia@giveasyoulivehttp://www.giveasyoulive.com/join/guidedogs&nbsp;pic.twitter.com/IAFNPqH3Hg'
p1817
(lp1818
I1
aI1
asS'info,'
p1819
(lp1820
I2
aI2
asS'Nike'
p1821
(lp1822
I1
aI1
asS'debate:'
p1823
(lp1824
I1
aI1
asS'Make'
p1825
(lp1826
I4
aI4
asS'Scotland'
p1827
(lp1828
I4
aI3
asS'son'
p1829
(lp1830
I2
aI2
asS'down'
p1831
(lp1832
I6
aI6
asS'pair'
p1833
(lp1834
I5
aI5
asS'donated'
p1835
(lp1836
I1
aI1
asS'the#RedCross!http://rdcrss.org/LDSfilm&nbsp;pic.twitter.com/5Uq3LApciz'
p1837
(lp1838
I1
aI1
asS'balanced'
p1839
(lp1840
I1
aI1
asS'old'
p1841
(lp1842
I3
aI3
asS'IMPORTANT:'
p1843
(lp1844
I1
aI1
asS'parade'
p1845
(lp1846
I1
aI1
asS'up?pic.twitter.com/2jcsIq5LDD'
p1847
(lp1848
I1
aI1
asS'Ends'
p1849
(lp1850
I2
aI2
asS'bid:'
p1851
(lp1852
I1
aI1
asS'support'
p1853
(lp1854
I8
aI8
asS'flying'
p1855
(lp1856
I1
aI1
asS'&#10;#topcompany'
p1857
(lp1858
I1
aI1
asS'why'
p1859
(lp1860
I8
aI7
asS'fields:'
p1861
(lp1862
I1
aI1
asS'screens?'
p1863
(lp1864
I1
aI1
asS'quiet'
p1865
(lp1866
I2
aI2
asS'here:http://ift.tt/1KFJu23&nbsp;'
p1867
(lp1868
I1
aI1
asS'way'
p1869
(lp1870
I9
aI9
asS'editions'
p1871
(lp1872
I1
aI1
asS'was'
p1873
(lp1874
I13
aI12
asS'war'
p1875
(lp1876
I2
aI2
asS'Tune'
p1877
(lp1878
I2
aI2
asS'happy'
p1879
(lp1880
I3
aI3
asS'Congratulations'
p1881
(lp1882
I1
aI1
asS'in#Bridgwateron'
p1883
(lp1884
I1
aI1
asS'our#RND2015Auctions'
p1885
(lp1886
I1
aI1
asS'slip'
p1887
(lp1888
I2
aI2
asS'form'
p1889
(lp1890
I1
aI1
asS'offer'
p1891
(lp1892
I1
aI1
asS'attempted'
p1893
(lp1894
I1
aI1
asS'gorgeous'
p1895
(lp1896
I2
aI2
asS'bust.#BigBrackettime'
p1897
(lp1898
I1
aI1
asS'4-player'
p1899
(lp1900
I1
aI1
asS'strike'
p1901
(lp1902
I1
aI1
asS'heat'
p1903
(lp1904
I1
aI1
asS'hear'
p1905
(lp1906
I2
aI2
asS'solar'
p1907
(lp1908
I1
aI1
asS'leads!'
p1909
(lp1910
I1
aI1
asS'removed'
p1911
(lp1912
I1
aI1
asS'true'
p1913
(lp1914
I2
aI2
asS'Watchhttp://woobox.com/thvrws/2xewcc&nbsp;'
p1915
(lp1916
I1
aI1
asS'Frankie'
p1917
(lp1918
I1
aI1
asS'sis@YesJulz!!!'
p1919
(lp1920
I1
aI1
asS'congratulations'
p1921
(lp1922
I1
aI1
asS'bur...http://bit.ly/1GCGHAw&nbsp;'
p1923
(lp1924
I1
aI1
asS'Greatness@KingJames!#TheLand'
p1925
(lp1926
I1
aI1
asS'inside'
p1927
(lp1928
I1
aI1
asS'morning'
p1929
(lp1930
I1
aI1
asS'until'
p1931
(lp1932
I2
aI2
asS'minuteshttp://tscot.org/01c86226&nbsp;#TSIncident'
p1933
(lp1934
I1
aI1
asS'athttp://www.nerdblock.com/r/Simonpegg&nbsp;.'
p1935
(lp1936
I1
aI1
asS'odds:'
p1937
(lp1938
I1
aI1
asS'hair?...'
p1939
(lp1940
I1
aI1
asS'zodiac'
p1941
(lp1942
I1
aI1
asS'End.'
p1943
(lp1944
I1
aI1
asS'150'
p1945
(lp1946
I1
aI1
asS'you!https://instagram.com/p/0KFGFBiTHS/&nbsp;'
p1947
(lp1948
I1
aI1
asS'Conned'
p1949
(lp1950
I1
aI1
asS'proved'
p1951
(lp1952
I1
aI1
asS'Visit@ShorewoodParkswebsite-find'
p1953
(lp1954
I1
aI1
asS'Six'
p1955
(lp1956
I1
aI1
asS'get#TheHotel3millionViewersForSausagescan'
p1957
(lp1958
I1
aI1
asS'Cent'
p1959
(lp1960
I1
aI1
asS'drive'
p1961
(lp1962
I1
aI1
asS'btwn'
p1963
(lp1964
I4
aI4
asS'exist'
p1965
(lp1966
I1
aI1
asS'fashioned'
p1967
(lp1968
I1
aI1
asS'brother!'
p1969
(lp1970
I1
aI1
asS'check'
p1971
(lp1972
I6
aI6
asS'sir!!!#TheLand#Playoffs2015#StriveForGreatness'
p1973
(lp1974
I1
aI1
asS'incident.#edintravel'
p1975
(lp1976
I1
aI1
asS'first.....'
p1977
(lp1978
I1
aI1
asS'tix'
p1979
(lp1980
I1
aI1
asS'Live#GreatnessAwaitshttp://thndr.it/1L6FQ1r&nbsp;'
p1981
(lp1982
I1
aI1
asS'no'
p1983
(lp1984
I1
aI1
asS'TUNISIA'
p1985
(lp1986
I1
aI1
asS'fanfare'
p1987
(lp1988
I1
aI1
asS'when'
p1989
(lp1990
I3
aI3
asS'til'
p1991
(lp1992
I1
aI1
asS'Running'
p1993
(lp1994
I1
aI1
asS'setting'
p1995
(lp1996
I1
aI1
asS'role'
p1997
(lp1998
I3
aI3
asS'holding'
p1999
(lp2000
I1
aI1
asS'digital'
p2001
(lp2002
I1
aI1
asS'test'
p2003
(lp2004
I1
aI1
asS'kettleTea'
p2005
(lp2006
I1
aI1
asS'picture'
p2007
(lp2008
I1
aI1
asS'W.Churchill#quote'
p2009
(lp2010
I1
aI1
asS'tonight,'
p2011
(lp2012
I1
aI1
asS'University'
p2013
(lp2014
I1
aI1
asS'Square!'
p2015
(lp2016
I1
aI1
asS'Hunt'
p2017
(lp2018
I1
aI1
asS'update'
p2019
(lp2020
I1
aI1
asS'Antoniohttp://ble.ac/1wCCD2Q&nbsp;@uninterrupted'
p2021
(lp2022
I1
aI1
asS'tonight.'
p2023
(lp2024
I3
aI3
asS'Milngavie'
p2025
(lp2026
I1
aI1
asS'Consistency'
p2027
(lp2028
I1
aI1
asS'describing'
p2029
(lp2030
I1
aI1
asS'aware'
p2031
(lp2032
I1
aI1
asS'weekend'
p2033
(lp2034
I4
aI4
asS'kid!!!'
p2035
(lp2036
I1
aI1
asS'died'
p2037
(lp2038
I2
aI1
asS'billion'
p2039
(lp2040
I1
aI1
asS'Color'
p2041
(lp2042
I1
aI1
asS'Win'
p2043
(lp2044
I4
aI4
asS'jacket'
p2045
(lp2046
I1
aI1
asS'Jess'
p2047
(lp2048
I2
aI2
asS'Second'
p2049
(lp2050
I1
aI1
asS'Wit'
p2051
(lp2052
I1
aI1
asS'had'
p2053
(lp2054
I2
aI2
asS'time'
p2055
(lp2056
I12
aI12
asS'5pic.twitter.com/L5Y3usOIxN'
p2057
(lp2058
I1
aI1
asS'serious'
p2059
(lp2060
I3
aI2
asS'lineup'
p2061
(lp2062
I3
aI3
asS'#MSYpassenger'
p2063
(lp2064
I1
aI1
asS'shop'
p2065
(lp2066
I2
aI2
asS'Blessing'
p2067
(lp2068
I1
aI1
asS':)'
p2069
(lp2070
I1
aI1
asS'Thanks@HitFixfor'
p2071
(lp2072
I1
aI1
asS'dishing'
p2073
(lp2074
I1
aI1
asS'You&#39;re'
p2075
(lp2076
I1
aI1
asS'global'
p2077
(lp2078
I1
aI1
asS'focus'
p2079
(lp2080
I1
aI1
asS'Genius.&#10;&#10;http://bit.ly/1GJuhqd&nbsp;pic.twitter.com/nbIH1dmp0U'
p2081
(lp2082
I1
aI1
asS'tip'
p2083
(lp2084
I1
aI1
asS'turne...http://bit.ly/1DI5Uff&nbsp;'
p2085
(lp2086
I1
aI1
asS'Trailerhttps://uk.yahoo.com/movies/man-up-simon-pegg-and-lake-bell-star-in-exclusive-114120188166.html?soc_src=unv-sh&amp;soc_trk=tw&nbsp;HC'
p2087
(lp2088
I1
aI1
asS'Pride'
p2089
(lp2090
I1
aI1
asS'Breakdown,'
p2091
(lp2092
I4
aI4
asS'Today'
p2093
(lp2094
I2
aI2
asS'row'
p2095
(lp2096
I1
aI1
asS'house-trained'
p2097
(lp2098
I1
aI1
asS'essentials'
p2099
(lp2100
I1
aI1
asS'zone'
p2101
(lp2102
I1
aI1
asS'questions?'
p2103
(lp2104
I1
aI1
asS'Incredible'
p2105
(lp2106
I1
aI1
asS'Dave'
p2107
(lp2108
I1
aI1
asS'cub.'
p2109
(lp2110
I1
aI1
asS'finally'
p2111
(lp2112
I1
aI1
asS'Vista&quot;'
p2113
(lp2114
I1
aI1
asS'losses:'
p2115
(lp2116
I1
aI1
asS'Believe'
p2117
(lp2118
I1
aI1
asS'Day'
p2119
(lp2120
I4
aI4
asS'Secondary'
p2121
(lp2122
I2
aI2
asS'new@SacoorBrosMECollection.'
p2123
(lp2124
I1
aI1
asS'our#GTAOnlineAdversary'
p2125
(lp2126
I1
aI1
asS'Princes'
p2127
(lp2128
I7
aI7
asS'Get.'
p2129
(lp2130
I1
aI1
asS'withhttp://Expansys.com&nbsp;.#expansyss3giveaway'
p2131
(lp2132
I1
aI1
asS'Plus'
p2133
(lp2134
I3
aI3
asS'entries'
p2135
(lp2136
I1
aI1
asS'Elizabeth'
p2137
(lp2138
I1
aI1
asS'dress:http://vogue.cm/1HbKDbr&nbsp;'
p2139
(lp2140
I1
aI1
asS'night.pic.twitter.com/JbByHLMemi'
p2141
(lp2142
I1
aI1
asS'LICENSED'
p2143
(lp2144
I1
aI1
asS'upgrade#M8#M73#M74starts'
p2145
(lp2146
I1
aI1
asS'Pacific.'
p2147
(lp2148
I1
aI1
asS'minute'
p2149
(lp2150
I1
aI1
asS'responders'
p2151
(lp2152
I1
aI1
asS'best.'
p2153
(lp2154
I1
aI1
asS'Just'
p2155
(lp2156
I9
aI9
asS'presented'
p2157
(lp2158
I1
aI1
asS':D'
p2159
(lp2160
I1
aI1
asS'Keith'
p2161
(lp2162
I1
aI1
asS'REVIEW'
p2163
(lp2164
I1
aI1
asS'6pm!http://jpjoy.co/vXFxod&nbsp;'
p2165
(lp2166
I1
aI1
asS'puppy'
p2167
(lp2168
I1
aI1
asS'travels'
p2169
(lp2170
I1
aI1
asS'get#MarioCarton'
p2171
(lp2172
I1
aI1
asS'the#BBunchthis'
p2173
(lp2174
I1
aI1
asS'team'
p2175
(lp2176
I7
aI7
asS'Queensferry'
p2177
(lp2178
I1
aI1
asS'round'
p2179
(lp2180
I1
aI1
asS'yall'
p2181
(lp2182
I3
aI2
asS'of@robbiewilliams&#39;s'
p2183
(lp2184
I1
aI1
asS'Damaged'
p2185
(lp2186
I1
aI1
asS'douchebag?!'
p2187
(lp2188
I1
aI1
asS'says'
p2189
(lp2190
I1
aI1
asS'Campaigners'
p2191
(lp2192
I1
aI1
asS'peek'
p2193
(lp2194
I1
aI1
asS'Joyers!pic.twitter.com/mlatpU0Hbd'
p2195
(lp2196
I1
aI1
asS'prediction'
p2197
(lp2198
I1
aI1
asS'sign'
p2199
(lp2200
I1
aI1
asS'editor:http://vogue.cm/1I74IAE&nbsp;'
p2201
(lp2202
I1
aI1
asS'garden.#rehomepic.twitter.com/TphZcGoN8H'
p2203
(lp2204
I1
aI1
asS'arm'
p2205
(lp2206
I1
aI1
asS'run'
p2207
(lp2208
I5
aI5
asS'concertpic.twitter.com/H4FYyIHyQO'
p2209
(lp2210
I1
aI1
asS'M9'
p2211
(lp2212
I1
aI1
asS'M8'
p2213
(lp2214
I7
aI6
asS'Red'
p2215
(lp2216
I5
aI5
asS'xx17'
p2217
(lp2218
I2
aI2
asS'Head'
p2219
(lp2220
I1
aI1
asS'athttp://fastaw15.com&nbsp;#ThisIsMe7o#FASTAW15'
p2221
(lp2222
I1
aI1
asS'Bruce'
p2223
(lp2224
I2
aI2
asS'pleased'
p2225
(lp2226
I2
aI2
asS'Poppet'
p2227
(lp2228
I1
aI1
asS'4FREE'
p2229
(lp2230
I1
aI1
asS'Hear'
p2231
(lp2232
I1
aI1
asS'L.A.'
p2233
(lp2234
I1
aI1
asS'illustrations'
p2235
(lp2236
I1
aI1
asS'international'
p2237
(lp2238
I1
aI1
asS'Day!http://l.ctx.ly/r/y3tv&nbsp;pic.twitter.com/nP063dnJ45'
p2239
(lp2240
I1
aI1
asS'staff'
p2241
(lp2242
I4
aI4
asS'axed'
p2243
(lp2244
I2
aI1
asS'access.http://bit.ly/1I1Cpnh&nbsp;'
p2245
(lp2246
I1
aI1
asS'Me'
p2247
(lp2248
I3
aI3
asS'supporting'
p2249
(lp2250
I1
aI1
asS'Merchant:'
p2251
(lp2252
I1
aI1
asS'cuts:'
p2253
(lp2254
I1
aI1
asS'today&#39;s'
p2255
(lp2256
I1
aI1
asS'Brilliant'
p2257
(lp2258
I1
aI1
asS'CEO@johnlegereof'
p2259
(lp2260
I1
aI1
asS'makeup'
p2261
(lp2262
I1
aI1
asS'Think'
p2263
(lp2264
I1
aI1
asS'ridin'
p2265
(lp2266
I1
aI1
asS'water'
p2267
(lp2268
I1
aI1
asS'2:30'
p2269
(lp2270
I1
aI1
asS'5pm'
p2271
(lp2272
I1
aI1
asS'#GlobalCitizenFestivalsoundcheck'
p2273
(lp2274
I1
aI1
asS'Zaid#WithSyriahttp://bit.ly/1xaPNzc&nbsp;'
p2275
(lp2276
I1
aI1
asS'congestion'
p2277
(lp2278
I2
aI2
asS'pm.'
p2279
(lp2280
I1
aI1
asS'David'
p2281
(lp2282
I2
aI2
asS'My'
p2283
(lp2284
I6
aI6
asS'change'
p2285
(lp2286
I1
aI1
asS'wait'
p2287
(lp2288
I2
aI2
asS'boy'
p2289
(lp2290
I1
aI1
asS'now.http://hungrgam.es/MJfilm&nbsp;'
p2291
(lp2292
I1
aI1
asS'Deal'
p2293
(lp2294
I1
aI1
asS'new@nilerodgersmusic'
p2295
(lp2296
I1
aI1
asS'brilliant'
p2297
(lp2298
I3
aI3
asS'shift'
p2299
(lp2300
I1
aI1
asS'one!http://l.ctx.ly/r/y0dr&nbsp;#OneDirectionpic.twitter.com/xxHADBbVnb'
p2301
(lp2302
I1
aI1
asS'Your'
p2303
(lp2304
I2
aI2
asS'queue'
p2305
(lp2306
I1
aI1
asS'boi'
p2307
(lp2308
I2
aI1
asS'cookie?http://blueballbuster.co.uk/&nbsp;'
p2309
(lp2310
I1
aI1
asS'CHARITY'
p2311
(lp2312
I1
aI1
asS'homecoming'
p2313
(lp2314
I1
aI1
asS'bed?'
p2315
(lp2316
I1
aI1
asS'love'
p2317
(lp2318
I10
aI10
asS'Tocketts'
p2319
(lp2320
I1
aI1
asS'campaign.You'
p2321
(lp2322
I1
aI1
asS'forward+test'
p2323
(lp2324
I1
aI1
asS'GLC'
p2325
(lp2326
I1
aI1
asS'When'
p2327
(lp2328
I4
aI4
asS'Lifey'
p2329
(lp2330
I1
aI1
asS'(Sat'
p2331
(lp2332
I1
aI1
asS'Heists'
p2333
(lp2334
I1
aI1
asS'Director&#39;s'
p2335
(lp2336
I1
aI1
asS'1st'
p2337
(lp2338
I3
aI3
asS'0871'
p2339
(lp2340
I1
aI1
asS'Om!'
p2341
(lp2342
I1
aI1
asS'season.'
p2343
(lp2344
I1
aI1
asS'&#10;http://bit.ly/1BibNJj&nbsp;'
p2345
(lp2346
I1
aI1
asS'transplant'
p2347
(lp2348
I1
aI1
asS'3/23,'
p2349
(lp2350
I1
aI1
asS'remember:http://vogue.cm/1I7XTPx&nbsp;pic.twitter.com/prxL8dtnEI'
p2351
(lp2352
I1
aI1
asS'Obsessed'
p2353
(lp2354
I1
aI1
asS'fawn.'
p2355
(lp2356
I1
aI1
asS'positive'
p2357
(lp2358
I1
aI1
asS'La'
p2359
(lp2360
I1
aI1
asS'visit'
p2361
(lp2362
I2
aI2
asS'predictions'
p2363
(lp2364
I2
aI2
asS'nude:http://vogue.cm/1C7bh5t&nbsp;'
p2365
(lp2366
I1
aI1
asS'actor&amp;TIP'
p2367
(lp2368
I1
aI1
asS'live'
p2369
(lp2370
I6
aI6
asS'approach'
p2371
(lp2372
I1
aI1
asS'collaborating'
p2373
(lp2374
I1
aI1
asS'sighted'
p2375
(lp2376
I1
aI1
asS'Fierce'
p2377
(lp2378
I1
aI1
asS'thru'
p2379
(lp2380
I4
aI3
asS'in-ear'
p2381
(lp2382
I1
aI1
asS'today'
p2383
(lp2384
I6
aI6
asS'loving'
p2385
(lp2386
I2
aI2
asS'soft,'
p2387
(lp2388
I1
aI1
asS'news!!'
p2389
(lp2390
I1
aI1
asS'These'
p2391
(lp2392
I1
aI1
asS'Monday.'
p2393
(lp2394
I1
aI1
asS'lovely@cannykay1-'
p2395
(lp2396
I1
aI1
asS'Bea'
p2397
(lp2398
I1
aI1
asS'Ashes'
p2399
(lp2400
I1
aI1
asS'teaser'
p2401
(lp2402
I1
aI1
asS'Square'
p2403
(lp2404
I1
aI1
asS'Time'
p2405
(lp2406
I1
aI1
asS'cases'
p2407
(lp2408
I1
aI1
asS'Cleaner'
p2409
(lp2410
I2
aI2
asS'on@Spotify!pic.twitter.com/X4o30PyGnz'
p2411
(lp2412
I1
aI1
asS'Family'
p2413
(lp2414
I2
aI2
asS'film,'
p2415
(lp2416
I1
aI1
asS'car'
p2417
(lp2418
I3
aI3
asS'love,&quot;'
p2419
(lp2420
I1
aI1
asS'flu'
p2421
(lp2422
I2
aI2
asS'Relatives'
p2423
(lp2424
I1
aI1
asS'MMS'
p2425
(lp2426
I3
aI3
asS'cat'
p2427
(lp2428
I1
aI1
asS'reading'
p2429
(lp2430
I1
aI1
asS'wallet'
p2431
(lp2432
I1
aI1
asS'Chat!'
p2433
(lp2434
I1
aI1
asS'values'
p2435
(lp2436
I1
aI1
asS'can'
p2437
(lp2438
I20
aI20
asS'following'
p2439
(lp2440
I4
aI3
asS'Our'
p2441
(lp2442
I5
aI5
asS'Out'
p2443
(lp2444
I2
aI2
asS'claim'
p2445
(lp2446
I1
aI1
asS'dedicated'
p2447
(lp2448
I1
aI1
asS'stream'
p2449
(lp2450
I4
aI4
asS'3/23.http://i.victoria.com/0hz&nbsp;pic.twitter.com/G3nGlBSUKK'
p2451
(lp2452
I1
aI1
asS'awesome'
p2453
(lp2454
I2
aI2
asS'decidi...http://bit.ly/1FM6qIp&nbsp;'
p2455
(lp2456
I1
aI1
asS'drawer'
p2457
(lp2458
I2
aI1
asS'Panthers!'
p2459
(lp2460
I1
aI1
asS'chic'
p2461
(lp2462
I1
aI1
asS'counting'
p2463
(lp2464
I1
aI1
asS'plan,'
p2465
(lp2466
I1
aI1
asS'pink'
p2467
(lp2468
I3
aI3
asS'That&#39;s'
p2469
(lp2470
I2
aI2
asS'winter'
p2471
(lp2472
I2
aI2
asS'Customize'
p2473
(lp2474
I1
aI1
asS'the#DreamWorksHOMEsoundtrack'
p2475
(lp2476
I1
aI1
asS'patients/staff'
p2477
(lp2478
I1
aI1
asS'range'
p2479
(lp2480
I3
aI3
asS'Glasgow'
p2481
(lp2482
I8
aI8
asS'1'
p2483
(lp2484
I7
aI6
asS'beat'
p2485
(lp2486
I1
aI1
asS'Our#RND15Auction'
p2487
(lp2488
I1
aI1
asS'Fruit'
p2489
(lp2490
I1
aI1
asS'onhttp://chanel-news.com/-fall-winter-2015-16-rtw&nbsp;#brasseriechanel'
p2491
(lp2492
I2
aI2
asS'Rebel'
p2493
(lp2494
I1
aI1
asS'H'
p2495
(lp2496
I1
aI1
asS'accessories'
p2497
(lp2498
I1
aI1
asS'plus'
p2499
(lp2500
I1
aI1
asS'Why'
p2501
(lp2502
I3
aI3
asS'pint'
p2503
(lp2504
I1
aI1
asS'ahead#BePrepared'
p2505
(lp2506
I1
aI1
asS'Modes'
p2507
(lp2508
I3
aI3
asS'cocktail'
p2509
(lp2510
I1
aI1
asS'delays#m8m73m74.'
p2511
(lp2512
I1
aI1
asS'may'
p2513
(lp2514
I4
aI4
asS'Always'
p2515
(lp2516
I1
aI1
asS'try?pic.twitter.com/n25KtcwF7g'
p2517
(lp2518
I1
aI1
asS'spot'
p2519
(lp2520
I2
aI2
asS'Paisley'
p2521
(lp2522
I2
aI2
asS'keys,'
p2523
(lp2524
I1
aI1
asS'the#eclipse2015pic.twitter.com/wYaUSUE7aD'
p2525
(lp2526
I1
aI1
asS'boards'
p2527
(lp2528
I1
aI1
asS'designed'
p2529
(lp2530
I2
aI2
asS'Kendrick'
p2531
(lp2532
I1
aI1
asS'cardiac'
p2533
(lp2534
I1
aI1
asS'thathttps://instagram.com/p/0N0Xc4zNb9/&nbsp;'
p2535
(lp2536
I1
aI1
asS'Naomi.'
p2537
(lp2538
I1
aI1
asS'Yall'
p2539
(lp2540
I1
aI1
asS'View'
p2541
(lp2542
I3
aI3
asS'bro@realtristan13.'
p2543
(lp2544
I1
aI1
asS'Exclusive'
p2545
(lp2546
I2
aI2
asS'using@StoryCorpsapp:http://bit.ly/1MStKo8&nbsp;'
p2547
(lp2548
I1
aI1
asS'surfing'
p2549
(lp2550
I1
aI1
asS'&#39;hopeful&#39;'
p2551
(lp2552
I1
aI1
asS'(@apponlinelive'
p2553
(lp2554
I1
aI1
asS'onhttp://chanel-news.com/-fall-winter-2015-16-rtw&nbsp;pic.twitter.com/mqkWqL7Man'
p2555
(lp2556
I1
aI1
asS'Frankie@DT_Kenilworthis'
p2557
(lp2558
I1
aI1
asS'ruling#uncarrier9?!pic.twitter.com/52qOi0XnQ6'
p2559
(lp2560
I1
aI1
asS'tale'
p2561
(lp2562
I1
aI1
asS'picks!https://cards.twitter.com/cards/18ce53ung4j/e7rm&nbsp;'
p2563
(lp2564
I1
aI1
asS'so'
p2565
(lp2566
I13
aI12
asS'@RussellHobbsUKThanks'
p2567
(lp2568
I1
aI1
asS'tall'
p2569
(lp2570
I1
aI1
asS'talk'
p2571
(lp2572
I1
aI1
asS'Blender'
p2573
(lp2574
I1
aI1
asS'cute'
p2575
(lp2576
I1
aI1
asS'Recovery'
p2577
(lp2578
I1
aI1
asS'Around&quot;'
p2579
(lp2580
I1
aI1
asS'We&#39;re'
p2581
(lp2582
I11
aI11
asS'mainly'
p2583
(lp2584
I1
aI1
asS'warninghttp://bbc.in/1B4woke&nbsp;'
p2585
(lp2586
I1
aI1
asS'years'
p2587
(lp2588
I13
aI13
asS'Rihanna'
p2589
(lp2590
I3
aI3
asS'Sales,'
p2591
(lp2592
I1
aI1
asS'jimmy'
p2593
(lp2594
I1
aI1
asS'be@periscopeco&#39;d'
p2595
(lp2596
I1
aI1
asS'equip'
p2597
(lp2598
I1
aI1
asS'White'
p2599
(lp2600
I1
aI1
asS'still'
p2601
(lp2602
I8
aI8
asS'blocked'
p2603
(lp2604
I1
aI1
asS'RT'
p2605
(lp2606
I17
aI17
asS'police'
p2607
(lp2608
I1
aI1
asS'thank'
p2609
(lp2610
I5
aI5
asS'Arkleston'
p2611
(lp2612
I2
aI2
asS'interesting'
p2613
(lp2614
I1
aI1
asS'did.'
p2615
(lp2616
I1
aI1
asS'months.'
p2617
(lp2618
I1
aI1
asS'continue'
p2619
(lp2620
I2
aI2
asS'won!'
p2621
(lp2622
I1
aI1
asS'#LeanInTogether#DefineYourselfpic.twitter.com/IhWEzqhmWR'
p2623
(lp2624
I1
aI1
asS'World'
p2625
(lp2626
I3
aI3
asS'main'
p2627
(lp2628
I1
aI1
asS'visiting'
p2629
(lp2630
I1
aI1
asS'toys.pic.twitter.com/KRISMYXjgI'
p2631
(lp2632
I1
aI1
asS'#glasgow-'
p2633
(lp2634
I1
aI1
asS'lonely'
p2635
(lp2636
I1
aI1
asS'views'
p2637
(lp2638
I1
aI1
asS'conversations'
p2639
(lp2640
I1
aI1
asS'antibiotics&#39;http://bbc.in/1FGfqi8&nbsp;'
p2641
(lp2642
I1
aI1
asS'Kyle'
p2643
(lp2644
I1
aI1
asS'Blessings'
p2645
(lp2646
I1
aI1
asS'lunch'
p2647
(lp2648
I1
aI1
asS'year.'
p2649
(lp2650
I1
aI1
asS'Gillian'
p2651
(lp2652
I1
aI1
asS'at:http://bit.ly/1xkLUNQ&nbsp;pic.twitter.com/4tOpuZ2Nq1'
p2653
(lp2654
I1
aI1
asS'me!https://instagram.com/p/0WRBMiJXW7/&nbsp;'
p2655
(lp2656
I1
aI1
asS'not'
p2657
(lp2658
I11
aI10
asS'R.'
p2659
(lp2660
I1
aI1
asS'now'
p2661
(lp2662
I18
aI15
asS'kids,'
p2663
(lp2664
I1
aI1
asS'killed'
p2665
(lp2666
I4
aI3
asS'&gt;'
p2667
(lp2668
I1
aI1
asS'Vogue'
p2669
(lp2670
I1
aI1
asS'wont'
p2671
(lp2672
I1
aI1
asS'of@gorillazbandby'
p2673
(lp2674
I1
aI1
asS'name'
p2675
(lp2676
I1
aI1
asS'Their'
p2677
(lp2678
I1
aI1
asS'Fundraising.'
p2679
(lp2680
I1
aI1
asS'onhttp://www.working-bees.com&nbsp;Join'
p2681
(lp2682
I1
aI1
asS'tweet!'
p2683
(lp2684
I1
aI1
asS'Falkirk'
p2685
(lp2686
I1
aI1
asS'revert'
p2687
(lp2688
I1
aI1
asS'Mentality#GTAOnlinepic.twitter.com/L46akqMraC'
p2689
(lp2690
I1
aI1
asS'soon.'
p2691
(lp2692
I1
aI1
asS'soon,'
p2693
(lp2694
I1
aI1
asS'next:http://bit.ly/1H9r7MC&nbsp;pic.twitter.com/9GAIzv0u5O'
p2695
(lp2696
I1
aI1
asS'Simply'
p2697
(lp2698
I1
aI1
asS'modespic.twitter.com/Gsh41ENvKJ'
p2699
(lp2700
I1
aI1
asS'info:http://bit.ly/19gIDEq&nbsp;'
p2701
(lp2702
I1
aI1
asS'Mill'
p2703
(lp2704
I1
aI1
asS'last'
p2705
(lp2706
I1
aI1
asS'Organization@cavs!'
p2707
(lp2708
I1
aI1
asS'square'
p2709
(lp2710
I1
aI1
asS'Perk'
p2711
(lp2712
I1
aI1
asS'revised'
p2713
(lp2714
I1
aI1
asS'chicashttps://instagram.com/p/z-4anNTNTX/&nbsp;'
p2715
(lp2716
I1
aI1
asS'hospice'
p2717
(lp2718
I1
aI1
asS'Live'
p2719
(lp2720
I2
aI2
asS'Ooh&#39;s'
p2721
(lp2722
I1
aI1
asS'Routine'
p2723
(lp2724
I1
aI1
asS'Learned'
p2725
(lp2726
I1
aI1
asS'VIDEO:'
p2727
(lp2728
I6
aI6
asS'disasters'
p2729
(lp2730
I2
aI2
asS'Sedona'
p2731
(lp2732
I1
aI1
asS'Vamos'
p2733
(lp2734
I1
aI1
asS'album'
p2735
(lp2736
I1
aI1
asS'living'
p2737
(lp2738
I1
aI1
asS'100k'
p2739
(lp2740
I1
aI1
asS'route.'
p2741
(lp2742
I2
aI2
asS'Welcome'
p2743
(lp2744
I2
aI2
asS'Pocket'
p2745
(lp2746
I1
aI1
asS'RTW'
p2747
(lp2748
I1
aI1
asS'Journey'
p2749
(lp2750
I1
aI1
asS'show#brasseriechanelhttps://www.youtube.com/watch?v=eKPRfbxUNXQ&nbsp;'
p2751
(lp2752
I1
aI1
asS'Gift'
p2753
(lp2754
I1
aI1
asS'cause!#W2U#RedNoseDay#RND15#Watches#WIN'
p2755
(lp2756
I1
aI1
asS'unique.#PerfectMatchpic.twitter.com/ixQpVZtkwE'
p2757
(lp2758
I1
aI1
asS'Bridgeton/Dalmarnock'
p2759
(lp2760
I1
aI1
asS'won&#39;t'
p2761
(lp2762
I1
aI1
asS'calorie!'
p2763
(lp2764
I1
aI1
asS'shows'
p2765
(lp2766
I1
aI1
asS'disaster.'
p2767
(lp2768
I2
aI2
asS'earlier'
p2769
(lp2770
I4
aI4
asS'RT!'
p2771
(lp2772
I5
aI5
asS'posted!https://flic.kr/s/aHsk982BKj&nbsp;#NASA#mmslaunch#MMSpic.twitter.com/MZxBpE2upk'
p2773
(lp2774
I1
aI1
asS'onward'
p2775
(lp2776
I1
aI1
asS'million'
p2777
(lp2778
I1
aI1
asS'Cover'
p2779
(lp2780
I1
aI1
asS'careers.'
p2781
(lp2782
I1
aI1
asS'fire.'
p2783
(lp2784
I2
aI2
asS'directions.'
p2785
(lp2786
I2
aI2
asS'demanding'
p2787
(lp2788
I1
aI1
asS'plea'
p2789
(lp2790
I1
aI1
asS'Pumped'
p2791
(lp2792
I1
aI1
asS'about#GiveWhatFireTakes:http://rdcrss.org/twlp-firetakes&nbsp;pic.twitter.com/geC8ECDGcT'
p2793
(lp2794
I1
aI1
asS'on#VivaRonaldo.'
p2795
(lp2796
I1
aI1
asS'Options'
p2797
(lp2798
I1
aI1
asS'card'
p2799
(lp2800
I1
aI1
asS'care'
p2801
(lp2802
I1
aI1
asS'scheduled.'
p2803
(lp2804
I1
aI1
asS'Walking'
p2805
(lp2806
I1
aI1
asS'Son!http://bit.ly/1LG5pGT&nbsp;Celebrate'
p2807
(lp2808
I1
aI1
asS'Being'
p2809
(lp2810
I1
aI1
asS'NW'
p2811
(lp2812
I1
aI1
asS'100%'
p2813
(lp2814
I1
aI1
asS'need.&#10;&#10;#TamraDhttps://instagram.com/p/0Dtd9nzNTl/&nbsp;'
p2815
(lp2816
I1
aI1
asS'Harbour'
p2817
(lp2818
I1
aI1
asS'honest'
p2819
(lp2820
I2
aI2
asS'turn'
p2821
(lp2822
I1
aI1
asS'OlliOlli2.'
p2823
(lp2824
I1
aI1
asS'Continue'
p2825
(lp2826
I1
aI1
asS'place'
p2827
(lp2828
I4
aI3
asS'Brodie'
p2829
(lp2830
I1
aI1
asS'now.#halamadridhttp://bit.ly/1bfpQtN&nbsp;pic.twitter.com/3BG2SJgazA'
p2831
(lp2832
I1
aI1
asS'work...'
p2833
(lp2834
I1
aI1
asS'think'
p2835
(lp2836
I1
aI1
asS'first'
p2837
(lp2838
I9
aI9
asS'wit#Ohand#thecatnamedPIG#DreamworksAnimationHOMEhttps://instagram.com/p/0OXNuLBM4o/&nbsp;'
p2839
(lp2840
I1
aI1
asS'jennnrosales'
p2841
(lp2842
I1
aI1
asS'Suicide'
p2843
(lp2844
I1
aI1
asS'guessing'
p2845
(lp2846
I1
aI1
asS'Cross#GiveWhatFireTakes:http://rdcrss.org/twlp-firetakes&nbsp;pic.twitter.com/FXWBbW32II'
p2847
(lp2848
I1
aI1
asS'1555.'
p2849
(lp2850
I1
aI1
asS'one'
p2851
(lp2852
I13
aI13
asS'history#nefollowers@NewcastleNE1pic.twitter.com/9u4qPQvsO4'
p2853
(lp2854
I1
aI1
asS'our#BBunch!'
p2855
(lp2856
I1
aI1
asS'&quot;Where'
p2857
(lp2858
I1
aI1
asS'Trailerhttps://uk.yahoo.com/movies/man-up-simon-pegg-and-lake-bell-star-in-exclusive-114120188166.html?soc_src=unv-sh&amp;soc_trk=tw&nbsp;via@yahoomovies'
p2859
(lp2860
I1
aI1
asS'vote'
p2861
(lp2862
I2
aI2
asS'ring'
p2863
(lp2864
I2
aI2
asS'#GlasgowHyndland'
p2865
(lp2866
I1
aI1
asS'open'
p2867
(lp2868
I6
aI6
asS'tomorrow'
p2869
(lp2870
I4
aI4
asS'millions'
p2871
(lp2872
I1
aI1
asS'boss...'
p2873
(lp2874
I1
aI1
asS'Pubs'
p2875
(lp2876
I1
aI1
asS'little'
p2877
(lp2878
I3
aI3
asS'town!https://instagram.com/p/0Gspd4TNbL/&nbsp;'
p2879
(lp2880
I1
aI1
asS'Monday'
p2881
(lp2882
I5
aI5
asS'08:31'
p2883
(lp2884
I1
aI1
asS'Wanted'
p2885
(lp2886
I1
aI1
asS'And'
p2887
(lp2888
I1
aI1
asS'returns'
p2889
(lp2890
I1
aI1
asS'2'
p2891
(lp2892
I9
aI8
asS'Date'
p2893
(lp2894
I1
aI1
asS'Cromer'
p2895
(lp2896
I2
aI2
asS'Post'
p2897
(lp2898
I1
aI1
asS'from#Airdrie'
p2899
(lp2900
I1
aI1
asS'speaking'
p2901
(lp2902
I1
aI1
asS'launchhttps://flic.kr/s/aHsk982BKj&nbsp;pic.twitter.com/o20tYWDXxj'
p2903
(lp2904
I1
aI1
asS'excellent'
p2905
(lp2906
I1
aI1
asS'favourite?pic.twitter.com/QNGGdH1szt'
p2907
(lp2908
I1
aI1
asS'Buster'
p2909
(lp2910
I1
aI1
asS'on,'
p2911
(lp2912
I1
aI1
asS'that'
p2913
(lp2914
I15
aI15
asS'$100,000'
p2915
(lp2916
I1
aI1
asS'memo'
p2917
(lp2918
I1
aI1
asS'on!'
p2919
(lp2920
I1
aI1
asS'J22.'
p2921
(lp2922
I1
aI1
asS'from#globalcitizenfesttaken'
p2923
(lp2924
I1
aI1
asS'cheese!!#rehomepic.twitter.com/MmUJPO6XVU'
p2925
(lp2926
I1
aI1
asS'released'
p2927
(lp2928
I2
aI2
asS'Spain.'
p2929
(lp2930
I1
aI1
asS'copy'
p2931
(lp2932
I1
aI1
asS'than'
p2933
(lp2934
I6
aI6
asS'Replacement'
p2935
(lp2936
I1
aI1
asS'11'
p2937
(lp2938
I1
aI1
asS'10'
p2939
(lp2940
I6
aI6
asS'12'
p2941
(lp2942
I2
aI2
asS'Love'
p2943
(lp2944
I4
aI4
asS'14'
p2945
(lp2946
I1
aI1
asS'17'
p2947
(lp2948
I1
aI1
asS'RT@TommyLasorda:'
p2949
(lp2950
I1
aI1
asS'18'
p2951
(lp2952
I1
aI1
asS'for#KillMeThreeTimesstarring'
p2953
(lp2954
I1
aI1
asS'future'
p2955
(lp2956
I1
aI1
asS'old@GuideDogspup'
p2957
(lp2958
I2
aI2
asS'Sectorhttp://www.thirdsector.co.uk/article/1338925&nbsp;'
p2959
(lp2960
I1
aI1
asS'things:'
p2961
(lp2962
I1
aI1
asS'1,'
p2963
(lp2964
I3
aI3
asS'collectionhttp://bit.ly/1OdWxa5&nbsp;pic.twitter.com/hbAEluKnc7'
p2965
(lp2966
I1
aI1
asS'1.'
p2967
(lp2968
I1
aI1
asS'and'
p2969
(lp2970
I107
aI100
asS'morehttp://www.fashionfoiegras.com/2015/03/style-update-and-special-announcement.html&nbsp;'
p2971
(lp2972
I1
aI1
asS'DM'
p2973
(lp2974
I3
aI3
asS'Court'
p2975
(lp2976
I1
aI1
asS'tasted'
p2977
(lp2978
I1
aI1
asS'Mayhttp://on.fb.me/19uNm5z&nbsp;pic.twitter.com/WTUQ0fa31V'
p2979
(lp2980
I1
aI1
asS'turned'
p2981
(lp2982
I1
aI1
asS'backing@ProstateUKs#MenUnitedcampaignhttp://menunited.prostatecanceruk.org/?p=pes&nbsp;Remember,'
p2983
(lp2984
I1
aI1
asS'effect.pic.twitter.com/2BrpOorw7H'
p2985
(lp2986
I1
aI1
asS'say'
p2987
(lp2988
I1
aI1
asS'Call'
p2989
(lp2990
I1
aI1
asS'coming!'
p2991
(lp2992
I1
aI1
asS'flag!#randomfactpic.twitter.com/Gra5MSdd45'
p2993
(lp2994
I1
aI1
asS'recover'
p2995
(lp2996
I1
aI1
asS'saw'
p2997
(lp2998
I2
aI2
asS'any'
p2999
(lp3000
I2
aI2
asS'marathon'
p3001
(lp3002
I1
aI1
asS'now!!'
p3003
(lp3004
I1
aI1
asS'?#TowardsTheSun'
p3005
(lp3006
I1
aI1
asS'Do'
p3007
(lp3008
I4
aI4
asS'Enjoying'
p3009
(lp3010
I2
aI2
asS'offering'
p3011
(lp3012
I1
aI1
asS'Airdrie&amp;Bathgate'
p3013
(lp3014
I1
aI1
asS'De'
p3015
(lp3016
I1
aI1
asS'Carriageway'
p3017
(lp3018
I2
aI2
asS'note'
p3019
(lp3020
I2
aI2
asS'&#10;&#10;http://bit.ly/1EDgiCJ&nbsp;'
p3021
(lp3022
I1
aI1
asS'I&#39;d'
p3023
(lp3024
I1
aI1
asS'online'
p3025
(lp3026
I3
aI3
asS'interior'
p3027
(lp3028
I1
aI1
asS'9/And'
p3029
(lp3030
I1
aI1
asS'Dr'
p3031
(lp3032
I1
aI1
asS'channel'
p3033
(lp3034
I1
aI1
asS'I&#39;m'
p3035
(lp3036
I8
aI7
asS'200'
p3037
(lp3038
I1
aI1
asS'sure'
p3039
(lp3040
I2
aI2
asS'altered'
p3041
(lp3042
I1
aI1
asS'normal'
p3043
(lp3044
I3
aI3
asS'track'
p3045
(lp3046
I1
aI1
asS'yall!'
p3047
(lp3048
I1
aI1
asS'Monsoon'
p3049
(lp3050
I1
aI1
asS'delayhttp://bbc.in/1AUA20T&nbsp;'
p3051
(lp3052
I1
aI1
asS'donation'
p3053
(lp3054
I3
aI3
asS'importantly'
p3055
(lp3056
I1
aI1
asS'at@TKMaxx_UK'
p3057
(lp3058
I1
aI1
asS'freshman'
p3059
(lp3060
I1
aI1
asS'cleared'
p3061
(lp3062
I1
aI1
asS'tonight.pic.twitter.com/rQPdNcvsAu'
p3063
(lp3064
I1
aI1
asS'YOU!&#10;https://www.kickstarter.com/projects/thirdcontact/kosmos-create-a-scifi-show&nbsp;@lisabriercliffe@MarcIntheOC@MicheleTMusic@garysanders1'
p3065
(lp3066
I1
aI1
asS'Trainer'
p3067
(lp3068
I1
aI1
asS'forever'
p3069
(lp3070
I1
aI1
asS'Trust'
p3071
(lp3072
I2
aI2
asS'especially'
p3073
(lp3074
I1
aI1
asS'City,'
p3075
(lp3076
I1
aI1
asS'failure'
p3077
(lp3078
I1
aI1
asS'proud'
p3079
(lp3080
I3
aI3
asS'Scattered'
p3081
(lp3082
I1
aI1
asS'sale'
p3083
(lp3084
I2
aI2
asS'Don&#39;t'
p3085
(lp3086
I6
aI6
asS'tooth'
p3087
(lp3088
I1
aI1
asS'idea.'
p3089
(lp3090
I1
aI1
asS'cooker...'
p3091
(lp3092
I1
aI1
asS'masturbation'
p3093
(lp3094
I1
aI1
asS'via@FanBridge.'
p3095
(lp3096
I1
aI1
asS'do#twinningbetter'
p3097
(lp3098
I1
aI1
asS'walking'
p3099
(lp3100
I1
aI1
asS'shot'
p3101
(lp3102
I1
aI1
asS'WA'
p3103
(lp3104
I1
aI1
asS'show'
p3105
(lp3106
I8
aI8
asS'voter'
p3107
(lp3108
I1
aI1
asS'mo.#Caldercruix.'
p3109
(lp3110
I1
aI1
asS'shoe'
p3111
(lp3112
I1
aI1
asS'for#FREE!#W2U'
p3113
(lp3114
I1
aI1
asS'be...http://bit.ly/1DH48uQ&nbsp;'
p3115
(lp3116
I1
aI1
asS'ground'
p3117
(lp3118
I1
aI1
asS'it&#39;s'
p3119
(lp3120
I8
aI8
asS'by#ChenMan&#10;@yusefhairnyc@mylahmorales#BazaarChinahttps://instagram.com/p/0GULEAhM3b/&nbsp;'
p3121
(lp3122
I1
aI1
asS'We'
p3123
(lp3124
I18
aI18
asS'Woman'
p3125
(lp3126
I1
aI1
asS'office'
p3127
(lp3128
I1
aI1
asS'today!#GoodAdviceIn4Words#W2Uhttp://bit.ly/1iD5U5b&nbsp;#Watches'
p3129
(lp3130
I1
aI1
asS'countryside,'
p3131
(lp3132
I1
aI1
asS'Kansas'
p3133
(lp3134
I1
aI1
asS'-@RockstarGameswith@BloodyBeetroots+'
p3135
(lp3136
I1
aI1
asS'behind'
p3137
(lp3138
I2
aI2
asS'this,#GTAVw/@RockstarGames@twitch#NYCpic.twitter.com/A1ztb7Ht8H'
p3139
(lp3140
I1
aI1
asS'Handing'
p3141
(lp3142
I1
aI1
asS'Subconscious'
p3143
(lp3144
I1
aI1
asS'only'
p3145
(lp3146
I9
aI9
asS'going'
p3147
(lp3148
I10
aI9
asS'black'
p3149
(lp3150
I1
aI1
asS'body.&#10;Tears'
p3151
(lp3152
I1
aI1
asS'Services'
p3153
(lp3154
I3
aI3
asS'watching'
p3155
(lp3156
I1
aI1
asS'loadinghttps://vine.co/v/OQeBVIAD26q&nbsp;'
p3157
(lp3158
I1
aI1
asS'bridge'
p3159
(lp3160
I1
aI1
asS'match.#halamadridhttp://www.sportlobster.com/post/529399/training-session-for-the-next.html&nbsp;pic.twitter.com/HHWWvNlLJ3'
p3161
(lp3162
I1
aI1
asS'Largs'
p3163
(lp3164
I1
aI1
asS'get'
p3165
(lp3166
I16
aI16
asS'Louis'
p3167
(lp3168
I1
aI1
asS'Leaves'
p3169
(lp3170
I1
aI1
asS'between'
p3171
(lp3172
I10
aI9
asS'draw#Giveawaypic.twitter.com/gn5ZD2xO.'
p3173
(lp3174
I1
aI1
asS'She'
p3175
(lp3176
I2
aI2
asS'truly'
p3177
(lp3178
I2
aI2
asS'Turn'
p3179
(lp3180
I1
aI1
asS'hailed'
p3181
(lp3182
I1
aI1
asS'drummer'
p3183
(lp3184
I1
aI1
asS'trade'
p3185
(lp3186
I2
aI2
asS'Having'
p3187
(lp3188
I1
aI1
asS'celebrate'
p3189
(lp3190
I3
aI3
asS'Dallas!'
p3191
(lp3192
I1
aI1
asS'closure'
p3193
(lp3194
I1
aI1
asS'timepiece'
p3195
(lp3196
I1
aI1
asS'win#Pistonstix!http://bit.ly/FUN4REC&nbsp;'
p3197
(lp3198
I1
aI1
asS'artist'
p3199
(lp3200
I1
aI1
asS'rise:http://vogue.cm/1FNS62l&nbsp;pic.twitter.com/e0ryvsC9cD'
p3201
(lp3202
I1
aI1
asS'naked'
p3203
(lp3204
I1
aI1
asS'quicklyhttp://ow.ly/KvyZC&nbsp;#uncarrierpic.twitter.com/0zuLoOX24S'
p3205
(lp3206
I1
aI1
asS'miles'
p3207
(lp3208
I1
aI1
asS'5-star@foodgovFood'
p3209
(lp3210
I1
aI1
asS'friends,'
p3211
(lp3212
I1
aI1
asS'lords'
p3213
(lp3214
I1
aI1
asS'friends.'
p3215
(lp3216
I1
aI1
asS'where'
p3217
(lp3218
I2
aI2
asS'16th'
p3219
(lp3220
I2
aI2
asS'husband'
p3221
(lp3222
I1
aI1
asS'bulgaria'
p3223
(lp3224
I1
aI1
asS'on,#RedCrescentis'
p3225
(lp3226
I1
aI1
asS'Britain&#39;s'
p3227
(lp3228
I1
aI1
asS'10/11C,'
p3229
(lp3230
I1
aI1
asS'Light&quot;#GTAV@RockstarGames@GTAJunkies@GTASnapmatic@PlanetRockstar@SanAndreasSnaps@SnapmaticArtpic.twitter.com/VXDN6fscXc'
p3231
(lp3232
I1
aI1
asS'closures'
p3233
(lp3234
I2
aI2
asS'Fascinating'
p3235
(lp3236
I1
aI1
asS'asleep'
p3237
(lp3238
I1
aI1
asS'because.#Fridayhttps://instagram.com/p/0LwCktJXeE/&nbsp;'
p3239
(lp3240
I1
aI1
asS'Grand'
p3241
(lp3242
I1
aI1
asS'calendar'
p3243
(lp3244
I1
aI1
asS'sport'
p3245
(lp3246
I1
aI1
asS'encouraged'
p3247
(lp3248
I1
aI1
asS'helping@REC_Detroitstay'
p3249
(lp3250
I1
aI1
asS'That'
p3251
(lp3252
I5
aI5
asS'*less'
p3253
(lp3254
I1
aI1
asS'review'
p3255
(lp3256
I1
aI1
asS'munching'
p3257
(lp3258
I1
aI1
asS'forecast'
p3259
(lp3260
I1
aI1
asS'weapons'
p3261
(lp3262
I1
aI1
asS'3'
p3263
(lp3264
I7
aI6
asS'Largs/Ardrossan'
p3265
(lp3266
I2
aI2
asS'a#GIVEAWAYright'
p3267
(lp3268
I1
aI1
asS'83%'
p3269
(lp3270
I1
aI1
asS'Beef'
p3271
(lp3272
I1
aI1
asS'Instructor'
p3273
(lp3274
I1
aI1
asS'across'
p3275
(lp3276
I3
aI3
asS'decks'
p3277
(lp3278
I1
aI1
asS'see@KendrickPerkinsout'
p3279
(lp3280
I1
aI1
asS'Pavilion'
p3281
(lp3282
I1
aI1
asS'store#ThisIsMe7o#TeamMe7o#BigThingsHappeningpic.twitter.com/0kEzFpwlvK'
p3283
(lp3284
I1
aI1
asS'carr'
p3285
(lp3286
I2
aI2
asS'Overnight'
p3287
(lp3288
I1
aI1
asS'Ch4#SausageSunday#SausageApartheid#TheHotel3MillionViewersForSausages'
p3289
(lp3290
I1
aI1
asS'course!'
p3291
(lp3292
I1
aI1
asS'Team'
p3293
(lp3294
I4
aI4
asS'small:http://rdcrss.org/tw-firetakes&nbsp;pic.twitter.com/4AZ6rzxVCn'
p3295
(lp3296
I1
aI1
asS'article'
p3297
(lp3298
I1
aI1
asS'come'
p3299
(lp3300
I2
aI2
asS'available:http://bit.ly/TACtalentshow&nbsp;pic.twitter.com/UggLkqqgTc'
p3301
(lp3302
I1
aI1
asS'Ryder&#39;s'
p3303
(lp3304
I1
aI1
asS'#Springhas'
p3305
(lp3306
I2
aI2
asS'possible.#edintravel'
p3307
(lp3308
I1
aI1
asS'them?pic.twitter.com/RpX6o05uLU'
p3309
(lp3310
I1
aI1
asS'guys!@nateruessmusicjust'
p3311
(lp3312
I1
aI1
asS'many'
p3313
(lp3314
I4
aI4
asS'voicemail'
p3315
(lp3316
I1
aI1
asS'Spider'
p3317
(lp3318
I1
aI1
asS'Stevie@DT_Shrewsburyis'
p3319
(lp3320
I1
aI1
asS'way.'
p3321
(lp3322
I1
aI1
asS'avail.'
p3323
(lp3324
I1
aI1
asS'#GiveWhatFireTakeswas'
p3325
(lp3326
I1
aI1
asS'comes'
p3327
(lp3328
I1
aI1
asS'&quot;Hasta'
p3329
(lp3330
I1
aI1
asS'Jeremy'
p3331
(lp3332
I1
aI1
asS'Sullivan,'
p3333
(lp3334
I1
aI1
asS'appliances!http://bit.ly/Zanussi-Livestream&nbsp;'
p3335
(lp3336
I1
aI1
asS'color'
p3337
(lp3338
I1
aI1
asS'singles,'
p3339
(lp3340
I1
aI1
asS'pot'
p3341
(lp3342
I2
aI2
asS'Were'
p3343
(lp3344
I4
aI4
asS'football'
p3345
(lp3346
I1
aI1
asS'29'
p3347
(lp3348
I1
aI1
asS'Note'
p3349
(lp3350
I1
aI1
asS'Pearl'
p3351
(lp3352
I1
aI1
asS'67'
p3353
(lp3354
I1
aI1
asS'68'
p3355
(lp3356
I1
aI1
asS'Psst,'
p3357
(lp3358
I1
aI1
asS'order?'
p3359
(lp3360
I1
aI1
asS'Buy'
p3361
(lp3362
I2
aI2
asS'Assembly'
p3363
(lp3364
I1
aI1
asS'classics!http://l.ctx.ly/r/y512&nbsp;pic.twitter.com/nUpA0FVI6Y'
p3365
(lp3366
I1
aI1
asS'carer'
p3367
(lp3368
I1
aI1
asS'RJ&#39;s#HappyBirthdayRihannapost#HeMeltsMyHeart@rihannahttp://Instagram.com/p/zV5KRbENhN/&nbsp;'
p3369
(lp3370
I1
aI1
asS'Knew'
p3371
(lp3372
I1
aI1
asS'between@dogstrustand'
p3373
(lp3374
I1
aI1
asS'play/app'
p3375
(lp3376
I1
aI1
asS'@domisatwitor'
p3377
(lp3378
I1
aI1
asS'Louishttp://ift.tt/1OdwBeI&nbsp;'
p3379
(lp3380
I1
aI1
asS'collided'
p3381
(lp3382
I1
aI1
asS'ICYMI'
p3383
(lp3384
I1
aI1
asS'normally.'
p3385
(lp3386
I1
aI1
asS'featuring'
p3387
(lp3388
I1
aI1
asS'lanes'
p3389
(lp3390
I5
aI5
asS'Pre'
p3391
(lp3392
I1
aI1
asS'Rotary'
p3393
(lp3394
I2
aI2
asS'Items,'
p3395
(lp3396
I1
aI1
asS'movies'
p3397
(lp3398
I1
aI1
asS'Set'
p3399
(lp3400
I1
aI1
asS'photos'
p3401
(lp3402
I6
aI6
asS'statuepic.twitter.com/bMKeGfbkqL'
p3403
(lp3404
I1
aI1
asS'wake'
p3405
(lp3406
I1
aI1
asS'on#M8at'
p3407
(lp3408
I1
aI1
asS'Learn'
p3409
(lp3410
I3
aI3
asS'Not,'
p3411
(lp3412
I1
aI1
asS'Wooho!'
p3413
(lp3414
I1
aI1
asS'those'
p3415
(lp3416
I3
aI3
asS'aid'
p3417
(lp3418
I1
aI1
asS'case'
p3419
(lp3420
I2
aI2
asS'myself'
p3421
(lp3422
I1
aI1
asS'2.'
p3423
(lp3424
I1
aI1
asS'10th#brasseriechanelpic.twitter.com/EyucXgaesN'
p3425
(lp3426
I1
aI1
asS'these'
p3427
(lp3428
I7
aI7
asS'Give'
p3429
(lp3430
I1
aI1
asS'engineering'
p3431
(lp3432
I1
aI1
asS'125,000'
p3433
(lp3434
I1
aI1
asS'BICYCLES'
p3435
(lp3436
I1
aI1
asS'visit.'
p3437
(lp3438
I1
aI1
asS'ongoing'
p3439
(lp3440
I1
aI1
asS'H&#39;lands'
p3441
(lp3442
I1
aI1
asS'stops.'
p3443
(lp3444
I1
aI1
asS'life.'
p3445
(lp3446
I1
aI1
asS'abducted'
p3447
(lp3448
I1
aI1
asS'Weds'
p3449
(lp3450
I1
aI1
asS'coolest'
p3451
(lp3452
I1
aI1
asS'operate'
p3453
(lp3454
I1
aI1
asS'to@guidedogs.'
p3455
(lp3456
I1
aI1
asS'forever!https://cards.twitter.com/cards/18ce53ung4j/eceb&nbsp;'
p3457
(lp3458
I1
aI1
asS'ha!#tweetoftheday@DWAnimation#HOME'
p3459
(lp3460
I1
aI1
asS'Additional'
p3461
(lp3462
I1
aI1
asS'early-adopters,'
p3463
(lp3464
I1
aI1
asS'Slick'
p3465
(lp3466
I1
aI1
asS'sleeping'
p3467
(lp3468
I1
aI1
asS'Looking'
p3469
(lp3470
I4
aI4
asS'middle'
p3471
(lp3472
I1
aI1
asS'good'
p3473
(lp3474
I7
aI7
asS'Next'
p3475
(lp3476
I3
aI3
asS'Converse?'
p3477
(lp3478
I1
aI1
asS'bags'
p3479
(lp3480
I1
aI1
asS'different'
p3481
(lp3482
I1
aI1
asS'Towards'
p3483
(lp3484
I1
aI1
asS'Anti-racism'
p3485
(lp3486
I2
aI1
asS'granted'
p3487
(lp3488
I1
aI1
asS'collection.#brasseriechanelpic.twitter.com/Jo2EFSa0HX'
p3489
(lp3490
I1
aI1
asS'trip'
p3491
(lp3492
I1
aI1
asS'webcasting#GlobalCitizenFestivallive.http://www.msnbc.com&nbsp;'
p3493
(lp3494
I1
aI1
asS'Mobile'
p3495
(lp3496
I1
aI1
asS'Individual'
p3497
(lp3498
I1
aI1
asS'pad'
p3499
(lp3500
I1
aI1
asS'Blood'
p3501
(lp3502
I1
aI1
asS'events'
p3503
(lp3504
I2
aI2
asS'success.pic.twitter.com/mt51sfIkOF'
p3505
(lp3506
I1
aI1
asS'week'
p3507
(lp3508
I3
aI3
asS'on.&quot;'
p3509
(lp3510
I1
aI1
asS'I'
p3511
(lp3512
I31
aI25
asS'at#globalcitizenfestivalhttps://www.youtube.com/watch?v=A0v5RmEs_b0&nbsp;'
p3513
(lp3514
I1
aI1
asS'IT'
p3515
(lp3516
I1
aI1
asS'Barcelona'
p3517
(lp3518
I1
aI1
asS'rebuild:http://rdcrss.org/japaneq&nbsp;'
p3519
(lp3520
I1
aI1
asS'wired'
p3521
(lp3522
I1
aI1
asS'IN'
p3523
(lp3524
I1
aI1
asS'and#HeatThingsUp.http://i.victoria.com/mVY&nbsp;pic.twitter.com/Gi7nR034gQ'
p3525
(lp3526
I1
aI1
asS'Follow@TeamMe7o&amp;'
p3527
(lp3528
I1
aI1
asS'21st)'
p3529
(lp3530
I1
aI1
asS'*UPDATE*'
p3531
(lp3532
I1
aI1
asS'bottlethe'
p3533
(lp3534
I1
aI1
asS'Own'
p3535
(lp3536
I2
aI2
asS'supertide'
p3537
(lp3538
I2
aI1
asS'Birthday@twitter:'
p3539
(lp3540
I1
aI1
asS'Buses'
p3541
(lp3542
I2
aI2
asS'Bridge.'
p3543
(lp3544
I1
aI1
asS'Is'
p3545
(lp3546
I1
aI1
asS'page'
p3547
(lp3548
I1
aI1
asS'It'
p3549
(lp3550
I4
aI4
asS'breezy'
p3551
(lp3552
I1
aI1
asS'May'
p3553
(lp3554
I1
aI1
asS'...http://bit.ly/1BiM1EC&nbsp;'
p3555
(lp3556
I1
aI1
asS'Im'
p3557
(lp3558
I3
aI3
asS'of#BeyondChampionships!#IPROMISEhttp://beyondchampionships.com/&nbsp;pic.twitter.com/nA91NtimuM'
p3559
(lp3560
I1
aI1
asS'In'
p3561
(lp3562
I5
aI5
asS'model'
p3563
(lp3564
I1
aI1
asS'Dogalogue&#39;s'
p3565
(lp3566
I1
aI1
asS'&quot;Come'
p3567
(lp3568
I1
aI1
asS'If'
p3569
(lp3570
I5
aI5
asS'It&#39;s'
p3571
(lp3572
I7
aI7
asS'summer'
p3573
(lp3574
I1
aI1
asS'Rapture:http://go.ign.com/AlZyoSs&nbsp;pic.twitter.com/d5rJjWU3lF'
p3575
(lp3576
I1
aI1
asS'Service'
p3577
(lp3578
I1
aI1
asS'being'
p3579
(lp3580
I4
aI4
asS'money'
p3581
(lp3582
I1
aI1
asS'BACK'
p3583
(lp3584
I1
aI1
asS'April.pic.twitter.com/QbSxjfTxPM'
p3585
(lp3586
I1
aI1
asS'study:http://www.randomhouse.com/book/223401/becoming-steve-jobs-by-brent-schlender-and-rick-tetzeli&nbsp;'
p3587
(lp3588
I1
aI1
asS'steamer'
p3589
(lp3590
I1
aI1
asS'Up:'
p3591
(lp3592
I2
aI2
asS'mo.'
p3593
(lp3594
I1
aI1
asS'More#Exp42landing'
p3595
(lp3596
I1
aI1
asS'fashionable:@drassenovs'
p3597
(lp3598
I1
aI1
asS'announcement'
p3599
(lp3600
I1
aI1
asS'Centenary'
p3601
(lp3602
I1
aI1
asS'gossip?'
p3603
(lp3604
I1
aI1
asS'TO'
p3605
(lp3606
I1
aI1
asS'Albawhy'
p3607
(lp3608
I1
aI1
asS'CR7#Mercurialon@Nikefootballs'
p3609
(lp3610
I1
aI1
asS'lets'
p3611
(lp3612
I1
aI1
asS'gym,'
p3613
(lp3614
I1
aI1
asS'Giveaway'
p3615
(lp3616
I1
aI1
asS'Scores'
p3617
(lp3618
I1
aI1
asS'Adding'
p3619
(lp3620
I1
aI1
asS'-#HappyStPatsThrow'
p3621
(lp3622
I1
aI1
asS'coming.&#10;Enjoy'
p3623
(lp3624
I1
aI1
asS'the@CelticFCand@dundeeunitedfcgame,'
p3625
(lp3626
I1
aI1
asS'around'
p3627
(lp3628
I4
aI4
asS'read'
p3629
(lp3630
I1
aI1
asS'Many'
p3631
(lp3632
I1
aI1
asS'Eclipse'
p3633
(lp3634
I1
aI1
asS'Rating!pic.twitter.com/1qXh2wYg92'
p3635
(lp3636
I1
aI1
asS'Project'
p3637
(lp3638
I1
aI1
asS'Mont'
p3639
(lp3640
I1
aI1
asS'traffic'
p3641
(lp3642
I3
aI3
asS'simulator#Exp43#YearInSpacehttps://flic.kr/s/aHsk8quHEE&nbsp;pic.twitter.com/4oXMn856Wa'
p3643
(lp3644
I1
aI1
asS'accepted'
p3645
(lp3646
I1
aI1
asS'spokesman@brianjboyletalks'
p3647
(lp3648
I1
aI1
asS'Shop'
p3649
(lp3650
I1
aI1
asS'collection.#brasseriechanelpic.twitter.com/y5LoZbe1iM'
p3651
(lp3652
I1
aI1
asS'Zip,'
p3653
(lp3654
I1
aI1
asS'fortune'
p3655
(lp3656
I1
aI1
asS'AbleGamers'
p3657
(lp3658
I1
aI1
asS'Butterfly&#39;'
p3659
(lp3660
I1
aI1
asS'plane'
p3661
(lp3662
I1
aI1
asS'Share'
p3663
(lp3664
I1
aI1
asS'posted!'
p3665
(lp3666
I1
aI1
asS'09.27.14'
p3667
(lp3668
I1
aI1
asS'Sportlobster'
p3669
(lp3670
I3
aI3
asS'audience'
p3671
(lp3672
I1
aI1
asS'A985'
p3673
(lp3674
I1
aI1
asS'London'
p3675
(lp3676
I1
aI1
asS'either'
p3677
(lp3678
I1
aI1
asS'fully'
p3679
(lp3680
I1
aI1
asS'gon&#39;'
p3681
(lp3682
I1
aI1
asS'nice'
p3683
(lp3684
I1
aI1
asS'Huntly'
p3685
(lp3686
I1
aI1
asS'accidentally'
p3687
(lp3688
I1
aI1
asS'Drumgelloch'
p3689
(lp3690
I1
aI1
asS'lap?!'
p3691
(lp3692
I1
aI1
asS'of#ManUp-'
p3693
(lp3694
I1
aI1
asS'-#wewontstop!!http://usat.ly/1FEOAqT&nbsp;'
p3695
(lp3696
I1
aI1
asS'Symposium!https://flic.kr/s/aHsk8YXKXT&nbsp;#NASA#NACA100pic.twitter.com/1ZrNOEf0j6'
p3697
(lp3698
I1
aI1
asS'West'
p3699
(lp3700
I4
aI4
asS'Since'
p3701
(lp3702
I1
aI1
asS'of@NASAAdministrator'
p3703
(lp3704
I1
aI1
asS'competition'
p3705
(lp3706
I5
aI5
asS'calling'
p3707
(lp3708
I1
aI1
asS'pool.#BigBrackettime'
p3709
(lp3710
I1
aI1
asS'Collectables&#10;&#10;TV,'
p3711
(lp3712
I1
aI1
asS'Dermot'
p3713
(lp3714
I1
aI1
asS'images'
p3715
(lp3716
I2
aI2
asS'Destroy'
p3717
(lp3718
I1
aI1
asS'Leonard.'
p3719
(lp3720
I1
aI1
asS'bombers:'
p3721
(lp3722
I1
aI1
asS'Listen'
p3723
(lp3724
I2
aI2
asS'beautifulpic.twitter.com/5crlxNX6vW'
p3725
(lp3726
I1
aI1
asS'my@RussellHobbsUK#britafilter'
p3727
(lp3728
I1
aI1
asS'competition!http://goo.gl/Clm7W&nbsp;#Win#CompetitionPlease'
p3729
(lp3730
I1
aI1
asS'videos.'
p3731
(lp3732
I1
aI1
asS'Men'
p3733
(lp3734
I3
aI3
asS'badass?'
p3735
(lp3736
I1
aI1
asS'Answers'
p3737
(lp3738
I1
aI1
asS'moon'
p3739
(lp3740
I1
aI1
asS'Skills'
p3741
(lp3742
I1
aI1
asS'critical'
p3743
(lp3744
I1
aI1
asS'provider'
p3745
(lp3746
I1
aI1
asS'Saint-Michel'
p3747
(lp3748
I1
aI1
asS'Sue'
p3749
(lp3750
I1
aI1
asS'NACA'
p3751
(lp3752
I1
aI1
asS'Zaid'
p3753
(lp3754
I1
aI1
asS'Mar.'
p3755
(lp3756
I1
aI1
asS'each'
p3757
(lp3758
I1
aI1
asS'Pepper'
p3759
(lp3760
I1
aI1
asS'Internships'
p3761
(lp3762
I1
aI1
asS':&#39;))'
p3763
(lp3764
I1
aI1
asS'broken'
p3765
(lp3766
I2
aI2
asS'tuned...#ThisIsMe7o#TeamMe7opic.twitter.com/mn7ZF26NFi'
p3767
(lp3768
I1
aI1
asS'pies?'
p3769
(lp3770
I1
aI1
asS'Patriotic'
p3771
(lp3772
I1
aI1
asS'prepared'
p3773
(lp3774
I1
aI1
asS'Playing'
p3775
(lp3776
I1
aI1
asS'6/Twitter'
p3777
(lp3778
I1
aI1
asS'on'
p3779
(lp3780
I75
aI71
asS'Revolution'
p3781
(lp3782
I1
aI1
asS'of'
p3783
(lp3784
I133
aI121
asS'favorite'
p3785
(lp3786
I2
aI2
asS'11.30'
p3787
(lp3788
I1
aI1
asS'them.Thank'
p3789
(lp3790
I1
aI1
asS'side'
p3791
(lp3792
I1
aI1
asS'Inverness'
p3793
(lp3794
I1
aI1
asS'fell'
p3795
(lp3796
I1
aI1
asS'nothing'
p3797
(lp3798
I1
aI1
asS'greatly'
p3799
(lp3800
I1
aI1
asS'Bus'
p3801
(lp3802
I2
aI2
asS'app:http://tlscot.com/app&nbsp;or'
p3803
(lp3804
I1
aI1
asS'mean'
p3805
(lp3806
I1
aI1
asS'or'
p3807
(lp3808
I18
aI18
asS'out.'
p3809
(lp3810
I2
aI2
asS'Apphttp://gonike.me/Football_App&nbsp;pic.twitter.com/AV50LohFXi'
p3811
(lp3812
I1
aI1
asS'Bags'
p3813
(lp3814
I1
aI1
asS'ladies'
p3815
(lp3816
I2
aI2
asS'REGISTER'
p3817
(lp3818
I1
aI1
asS'Congrats'
p3819
(lp3820
I2
aI2
asS'Pegg.pic.twitter.com/S4ToOS4zWs'
p3821
(lp3822
I1
aI1
asS'tomorrow,@msnbcwill'
p3823
(lp3824
I1
aI1
asS'copies'
p3825
(lp3826
I1
aI1
asS'morning!'
p3827
(lp3828
I2
aI2
asS'Add'
p3829
(lp3830
I1
aI1
asS'from@steam_games.'
p3831
(lp3832
I1
aI1
asS'But'
p3833
(lp3834
I1
aI1
asS'cool#artfrom'
p3835
(lp3836
I1
aI1
asS'mark'
p3837
(lp3838
I1
aI1
asS'morning,'
p3839
(lp3840
I2
aI2
asS'your'
p3841
(lp3842
I64
aI59
asS'morning.'
p3843
(lp3844
I3
aI3
asS'what&#39;s'
p3845
(lp3846
I1
aI1
asS'Poppet?'
p3847
(lp3848
I1
aI1
asS'her'
p3849
(lp3850
I15
aI14
asS'area'
p3851
(lp3852
I1
aI1
asS'there'
p3853
(lp3854
I5
aI5
asS'NE'
p3855
(lp3856
I1
aI1
asS'Gardens'
p3857
(lp3858
I1
aI1
asS'start'
p3859
(lp3860
I7
aI7
asS'Pharrell&#39;s'
p3861
(lp3862
I1
aI1
asS'decay&#39;http://bbc.in/1B4mNcY&nbsp;'
p3863
(lp3864
I1
aI1
asS'worshippers'
p3865
(lp3866
I1
aI1
asS'lot'
p3867
(lp3868
I1
aI1
asS'bubble'
p3869
(lp3870
I1
aI1
asS'soon!http://twitch.tv/rockstargames&nbsp;#GTAOnlineAdversary'
p3871
(lp3872
I1
aI1
asS'PS4,'
p3873
(lp3874
I2
aI2
asS'8K+'
p3875
(lp3876
I1
aI1
asS'us!)'
p3877
(lp3878
I1
aI1
asS'Winner'
p3879
(lp3880
I1
aI1
asS'Remember'
p3881
(lp3882
I3
aI3
asS'enough'
p3883
(lp3884
I1
aI1
asS'Kincardine'
p3885
(lp3886
I1
aI1
asS'Play:http://bit.ly/1FhwKva&nbsp;pic.twitter.com/mxppXtnlgO'
p3887
(lp3888
I1
aI1
asS'clothes,'
p3889
(lp3890
I1
aI1
asS'delayed'
p3891
(lp3892
I1
aI1
asS'amongst'
p3893
(lp3894
I1
aI1
asS'you?'
p3895
(lp3896
I1
aI1
asS'75!'
p3897
(lp3898
I1
aI1
asS'Brown&#39;s'
p3899
(lp3900
I1
aI1
asS'#glasgow#M82'
p3901
(lp3902
I1
aI1
asS'services.'
p3903
(lp3904
I1
aI1
asS'Tunis'
p3905
(lp3906
I1
aI1
asS'promote'
p3907
(lp3908
I1
aI1
asS'with'
p3909
(lp3910
I45
aI43
asS'Guide'
p3911
(lp3912
I3
aI3
asS'Miliband'
p3913
(lp3914
I1
aI1
asS'75,'
p3915
(lp3916
I1
aI1
asS'pull'
p3917
(lp3918
I1
aI1
asS'*Yellow'
p3919
(lp3920
I1
aI1
asS'this.http://i.victoria.com/GE0&nbsp;pic.twitter.com/AqBZLuq964'
p3921
(lp3922
I1
aI1
asS'Glasgow.'
p3923
(lp3924
I1
aI1
asS'smartphone,'
p3925
(lp3926
I1
aI1
asS'Glasgow,'
p3927
(lp3928
I1
aI1
asS'practically'
p3929
(lp3930
I1
aI1
asS'Twin'
p3931
(lp3932
I1
aI1
asS'flats'
p3933
(lp3934
I1
aI1
asS'Edinburgh?'
p3935
(lp3936
I1
aI1
asS'Retweet'
p3937
(lp3938
I1
aI1
asS'gone'
p3939
(lp3940
I1
aI1
asS'final,'
p3941
(lp3942
I1
aI1
asS'words:'
p3943
(lp3944
I1
aI1
asS'S'
p3945
(lp3946
I1
aI1
asS'Delays'
p3947
(lp3948
I1
aI1
asS'with@CindyCrawfordand'
p3949
(lp3950
I1
aI1
asS'moved'
p3951
(lp3952
I1
aI1
asS'sales'
p3953
(lp3954
I1
aI1
asS'deep'
p3955
(lp3956
I1
aI1
asS'an'
p3957
(lp3958
I23
aI23
asS'research,'
p3959
(lp3960
I1
aI1
asS'How'
p3961
(lp3962
I7
aI7
asS'as'
p3963
(lp3964
I17
aI15
asS'tasty'
p3965
(lp3966
I1
aI1
asS'at'
p3967
(lp3968
I47
aI46
asS'Hop'
p3969
(lp3970
I1
aI1
asS'walks'
p3971
(lp3972
I1
aI1
asS'politics'
p3973
(lp3974
I1
aI1
asS'hearts!'
p3975
(lp3976
I1
aI1
asS'spends'
p3977
(lp3978
I1
aI1
asS'film'
p3979
(lp3980
I1
aI1
asS'Hughenden'
p3981
(lp3982
I2
aI2
asS'Real'
p3983
(lp3984
I2
aI2
asS'Monica'
p3985
(lp3986
I1
aI1
asS'sunshinepic.twitter.com/A6I07rkjtu'
p3987
(lp3988
I1
aI1
asS'Read'
p3989
(lp3990
I3
aI3
asS'packaging,'
p3991
(lp3992
I1
aI1
asS'quick,'
p3993
(lp3994
I1
aI1
asS'housework'
p3995
(lp3996
I1
aI1
asS'terminating'
p3997
(lp3998
I1
aI1
asS'5'
p3999
(lp4000
I2
aI2
asS'6:44pm'
p4001
(lp4002
I1
aI1
asS'you'
p4003
(lp4004
I72
aI65
asS'really'
p4005
(lp4006
I1
aI1
asS'from@ATTand@VerizonWireless'
p4007
(lp4008
I1
aI1
asS'poor'
p4009
(lp4010
I1
aI1
asS'requested'
p4011
(lp4012
I1
aI1
asS'Great'
p4013
(lp4014
I5
aI5
asS'hey'
p4015
(lp4016
I2
aI2
asS'diaries'
p4017
(lp4018
I1
aI1
asS'Country'
p4019
(lp4020
I2
aI2
asS'to@FOX8NOLAhow'
p4021
(lp4022
I1
aI1
asS'M898'
p4023
(lp4024
I2
aI1
asS'important'
p4025
(lp4026
I1
aI1
asS'Coast,'
p4027
(lp4028
I1
aI1
asS'Nose'
p4029
(lp4030
I1
aI1
asS'Coast.'
p4031
(lp4032
I1
aI1
asS'chris'
p4033
(lp4034
I1
aI1
asS'Nations'
p4035
(lp4036
I1
aI1
asS'guys)pic.twitter.com/VNjAcmDTFg'
p4037
(lp4038
I1
aI1
asS'pool'
p4039
(lp4040
I1
aI1
asS'sale!'
p4041
(lp4042
I1
aI1
asS'&#39;Subconscious&#39;'
p4043
(lp4044
I1
aI1
asS'mourned'
p4045
(lp4046
I1
aI1
asS'of#techw/@made@katalystlive@intel.'
p4047
(lp4048
I1
aI1
asS'2009'
p4049
(lp4050
I1
aI1
asS'greeting?'
p4051
(lp4052
I1
aI1
asS'xx37.'
p4053
(lp4054
I1
aI1
asS'3-5'
p4055
(lp4056
I1
aI1
asS'here:http://ift.tt/1AXodeW&nbsp;'
p4057
(lp4058
I1
aI1
asS'hard-working'
p4059
(lp4060
I1
aI1
asS'Fancy'
p4061
(lp4062
I2
aI2
asS'having'
p4063
(lp4064
I3
aI3
asS'Moderator'
p4065
(lp4066
I2
aI1
asS'Years&quot;'
p4067
(lp4068
I1
aI1
asS'Street'
p4069
(lp4070
I9
aI9
asS'u'
p4071
(lp4072
I7
aI6
asS'memories??http://l.ctx.ly/r/xydo&nbsp;pic.twitter.com/3UifH9fWMx'
p4073
(lp4074
I1
aI1
asS'Year'
p4075
(lp4076
I1
aI1
asS'baby!!!!'
p4077
(lp4078
I1
aI1
asS'signalling'
p4079
(lp4080
I1
aI1
asS'starting'
p4081
(lp4082
I1
aI1
asS'original'
p4083
(lp4084
I2
aI2
asS'roasting'
p4085
(lp4086
I1
aI1
asS'all'
p4087
(lp4088
I30
aI29
asS'surrounded'
p4089
(lp4090
I1
aI1
asS'tomorrows'
p4091
(lp4092
I1
aI1
asS'cough'
p4093
(lp4094
I1
aI1
asS'caused'
p4095
(lp4096
I2
aI2
asS'lack'
p4097
(lp4098
I1
aI1
asS'jazz.http://trib.al/WLvs6Tb&nbsp;pic.twitter.com/WuHpbTyMop'
p4099
(lp4100
I1
aI1
asS'founded'
p4101
(lp4102
I1
aI1
asS'here:http://bit.ly/GordonLeeds&nbsp;#rehomepic.twitter.com/hjkiyE9rLB'
p4103
(lp4104
I1
aI1
asS'here:http://www.ournameisfun.com/post/101207230366/andrew-wants-to-record-your-voicemail-greeting&nbsp;#FUN4RECpic.twitter.com/cRcD1SMy07'
p4105
(lp4106
I1
aI1
asS'Take'
p4107
(lp4108
I2
aI2
asS'cooperative'
p4109
(lp4110
I1
aI1
asS'1,000!http://jpjoy.co/l0zRvb&nbsp;pic.twitter.com/fsW1c6G0Y6'
p4111
(lp4112
I1
aI1
asS'follow'
p4113
(lp4114
I1
aI1
asS'Motherwell,'
p4115
(lp4116
I1
aI1
asS'children'
p4117
(lp4118
I3
aI3
asS'extra'
p4119
(lp4120
I2
aI2
asS'Producers'
p4121
(lp4122
I1
aI1
asS'glimpse'
p4123
(lp4124
I1
aI1
asS'welcoming.'
p4125
(lp4126
I1
aI1
asS'hunting'
p4127
(lp4128
I1
aI1
asS'ceremony.#Soyuztrio'
p4129
(lp4130
I1
aI1
asS'Elle'
p4131
(lp4132
I1
aI1
asS'spirit'
p4133
(lp4134
I1
aI1
asS'to'
p4135
(lp4136
I233
aI194
asS'road'
p4137
(lp4138
I1
aI1
asS'cleared,'
p4139
(lp4140
I1
aI1
asS'1080p'
p4141
(lp4142
I1
aI1
asS'Mongoliahttp://www.mymodernmet.com/profiles/blogs/hamid-sardar-afkhami-reindeer-people&nbsp;pic.twitter.com/5ZPkHlTxP0'
p4143
(lp4144
I1
aI1
asS'AKA@__Jerwin__pic.twitter.com/03KhjTtHQP'
p4145
(lp4146
I1
aI1
asS'Partially'
p4147
(lp4148
I1
aI1
asS'activities'
p4149
(lp4150
I1
aI1
asS'Training'
p4151
(lp4152
I1
aI1
asS'woman'
p4153
(lp4154
I4
aI4
asS'ThunderUp'
p4155
(lp4156
I1
aI1
asS'#CaldercruixEmergency'
p4157
(lp4158
I1
aI1
asS'song'
p4159
(lp4160
I3
aI3
asS'very'
p4161
(lp4162
I7
aI6
asS'by@vickysarkpic.twitter.com/GjDmlOVMO5'
p4163
(lp4164
I1
aI1
asS'is,'
p4165
(lp4166
I1
aI1
asS'not):http://vogue.cm/1BemA7b&nbsp;'
p4167
(lp4168
I1
aI1
asS'guns&quot;'
p4169
(lp4170
I1
aI1
asS'you.#ThisIsCle#GrumpysRocks#GoCavs'
p4171
(lp4172
I1
aI1
asS'medicine'
p4173
(lp4174
I1
aI1
asS'fan'
p4175
(lp4176
I1
aI1
asS'alternative?pic.twitter.com/KwZ9FOGUgG'
p4177
(lp4178
I1
aI1
asS'BODY&#10;&#10;I'
p4179
(lp4180
I1
aI1
asS'fab'
p4181
(lp4182
I2
aI2
asS'winning'
p4183
(lp4184
I2
aI2
asS'tomorrow,'
p4185
(lp4186
I1
aI1
asS'Here&#39;s'
p4187
(lp4188
I7
aI7
asS'at#PercyWoodcould'
p4189
(lp4190
I1
aI1
asS'treating'
p4191
(lp4192
I1
aI1
asS'7.45pm'
p4193
(lp4194
I1
aI1
asS'neurological'
p4195
(lp4196
I1
aI1
asS'--'
p4197
(lp4198
I1
aI1
asS'size:http://vogue.cm/1MUBC8C&nbsp;'
p4199
(lp4200
I1
aI1
asS'list'
p4201
(lp4202
I1
aI1
asS'joined'
p4203
(lp4204
I1
aI1
asS'J27'
p4205
(lp4206
I2
aI2
asS'Juice'
p4207
(lp4208
I1
aI1
asS'Kill'
p4209
(lp4210
I1
aI1
asS'J22'
p4211
(lp4212
I3
aI3
asS'for#JBC.'
p4213
(lp4214
I1
aI1
asS'Townhead/'
p4215
(lp4216
I1
aI1
asS'Vita'
p4217
(lp4218
I1
aI1
asS'20th'
p4219
(lp4220
I2
aI2
asS'you!http://www.percywood.co.uk/sales/re-location-packages/&nbsp;'
p4221
(lp4222
I1
aI1
asS'GREAT'
p4223
(lp4224
I1
aI1
asS'raccoonspic.twitter.com/WOnEXsj3if'
p4225
(lp4226
I1
aI1
asS'Browse'
p4227
(lp4228
I1
aI1
asS'LIVE:http://twitch.tv/rockstargames&nbsp;#NowPlayingThe'
p4229
(lp4230
I1
aI1
asS'well.#sliceofshoulderpic.twitter.com/9xq7jbtCbx'
p4231
(lp4232
I1
aI1
asS'hour.'
p4233
(lp4234
I1
aI1
asS'track.'
p4235
(lp4236
I1
aI1
asS'past'
p4237
(lp4238
I1
aI1
asS'zero'
p4239
(lp4240
I2
aI2
asS'phone&quot;'
p4241
(lp4242
I1
aI1
asS'lightning,'
p4243
(lp4244
I1
aI1
asS'on@YahooSportsto'
p4245
(lp4246
I1
aI1
asS'query'
p4247
(lp4248
I1
aI1
asS'further'
p4249
(lp4250
I1
aI1
asS'East'
p4251
(lp4252
I1
aI1
asS'Gave'
p4253
(lp4254
I1
aI1
asS'here:http://ift.tt/1EEB0ms&nbsp;'
p4255
(lp4256
I1
aI1
asS'what'
p4257
(lp4258
I11
aI11
asS'Gets'
p4259
(lp4260
I1
aI1
asS'brackets'
p4261
(lp4262
I1
aI1
asS'Tourney.'
p4263
(lp4264
I1
aI1
asS'sun'
p4265
(lp4266
I1
aI1
asS'anniversary'
p4267
(lp4268
I2
aI2
asS'Resort,'
p4269
(lp4270
I1
aI1
asS'Mar).'
p4271
(lp4272
I1
aI1
asS'me!!'
p4273
(lp4274
I1
aI1
asS'issues'
p4275
(lp4276
I1
aI1
asS'brothers@kevinlove@KyrieIrving@RealTristan13@matthewdellyon'
p4277
(lp4278
I1
aI1
asS'tribute'
p4279
(lp4280
I1
aI1
asS'50.00.FF&amp;'
p4281
(lp4282
I1
aI1
asS'public'
p4283
(lp4284
I3
aI3
asS'Isles.'
p4285
(lp4286
I1
aI1
asS'Isles,'
p4287
(lp4288
I1
aI1
asS'full'
p4289
(lp4290
I4
aI4
asS'Cosmonaut'
p4291
(lp4292
I1
aI1
asS'10-60%'
p4293
(lp4294
I1
aI1
asS'Pimp'
p4295
(lp4296
I1
aI1
asS'seats@carnegiehallfor@slsosold'
p4297
(lp4298
I1
aI1
asS'Our&#39;s'
p4299
(lp4300
I1
aI1
asS'storyhttp://l.ctx.ly/r/xzdv&nbsp;pic.twitter.com/mOKigKHcGP'
p4301
(lp4302
I1
aI1
asS'Herald'
p4303
(lp4304
I1
aI1
asS'suicide'
p4305
(lp4306
I1
aI1
asS'operating'
p4307
(lp4308
I1
aI1
asS'free'
p4309
(lp4310
I6
aI6
asS'directions'
p4311
(lp4312
I2
aI2
asS'strong'
p4313
(lp4314
I2
aI2
asS'legend'
p4315
(lp4316
I1
aI1
asS'brickhttp://bgr.co/1BQfQjq&nbsp;by@bwreedbgr'
p4317
(lp4318
I1
aI1
asS'&quot;Breaking'
p4319
(lp4320
I1
aI1
asS'Business'
p4321
(lp4322
I1
aI1
asS'ahead'
p4323
(lp4324
I2
aI2
asS'DISCOUNTS'
p4325
(lp4326
I1
aI1
asS'life!&#10;https://amp.twimg.com/v/7f06c649-66b6-4fb5-bd5e-a222c28385c1&nbsp;'
p4327
(lp4328
I1
aI1
asS'CEO,'
p4329
(lp4330
I1
aI1
asS'inspired'
p4331
(lp4332
I1
aI1
asS'experience'
p4333
(lp4334
I2
aI2
asS'pics'
p4335
(lp4336
I1
aI1
asS'prior'
p4337
(lp4338
I2
aI2
asS'Cant'
p4339
(lp4340
I1
aI1
asS'healthier'
p4341
(lp4342
I1
aI1
asS'the#weekend!'
p4343
(lp4344
I1
aI1
asS'90%'
p4345
(lp4346
I1
aI1
asS'action'
p4347
(lp4348
I2
aI2
asS'now!#ChrisElli#Brightonpic.twitter.com/57xtZjHFQy'
p4349
(lp4350
I1
aI1
asS'at@refinery29.'
p4351
(lp4352
I1
aI1
asS'must-see'
p4353
(lp4354
I1
aI1
asS'&quot;xoxo&quot;'
p4355
(lp4356
I1
aI1
asS'Holiday#Competition.'
p4357
(lp4358
I1
aI1
asS'via'
p4359
(lp4360
I5
aI4
asS'family'
p4361
(lp4362
I5
aI5
asS'buses'
p4363
(lp4364
I3
aI3
asS'try?https://cards.twitter.com/cards/18ce53ung4j/epky&nbsp;'
p4365
(lp4366
I1
aI1
asS'moorland'
p4367
(lp4368
I1
aI1
asS'young'
p4369
(lp4370
I3
aI3
asS'screens'
p4371
(lp4372
I1
aI1
asS'ask'
p4373
(lp4374
I1
aI1
asS'Cardinal'
p4375
(lp4376
I2
aI1
asS'Dolly'
p4377
(lp4378
I1
aI1
asS'parties.'
p4379
(lp4380
I1
aI1
asS'gunmen'
p4381
(lp4382
I1
aI1
asS'America!'
p4383
(lp4384
I1
aI1
asS'athttp://ustre.am/zV1i/1&nbsp;)'
p4385
(lp4386
I1
aI1
asS'lots!'
p4387
(lp4388
I1
aI1
asS'pragmaticinsanity.tumblr'
p4389
(lp4390
I1
aI1
asS'Lived'
p4391
(lp4392
I1
aI1
asS'takes'
p4393
(lp4394
I2
aI2
asS'veg'
p4395
(lp4396
I1
aI1
asS'for@OfficialLexusUK&amp;@Lexus_Woodfordgenerous'
p4397
(lp4398
I1
aI1
asS'my#CR7Shirtscampaign!'
p4399
(lp4400
I1
aI1
asS'two'
p4401
(lp4402
I6
aI5
asS'induction'
p4403
(lp4404
I1
aI1
asS'Congress,'
p4405
(lp4406
I1
aI1
asS'pearl'
p4407
(lp4408
I1
aI1
asS'watch.'
p4409
(lp4410
I1
aI1
asS'#proud#bringithome#409'
p4411
(lp4412
I1
aI1
asS'6'
p4413
(lp4414
I2
aI2
asS'OUR'
p4415
(lp4416
I1
aI1
asS'Morning!pic.twitter.com/UF3NHMRHEj'
p4417
(lp4418
I1
aI1
asS'unthinkable'
p4419
(lp4420
I1
aI1
asS'Ferrytoll,'
p4421
(lp4422
I1
aI1
asS'more'
p4423
(lp4424
I11
aI11
asS'flat'
p4425
(lp4426
I1
aI1
asS'Miranda@DT_Loughboroughwith'
p4427
(lp4428
I1
aI1
asS'guestshttp://rsg.ms/090fcaa&nbsp;pic.twitter.com/F3ZyCfI43y'
p4429
(lp4430
I1
aI1
asS'Apparently,'
p4431
(lp4432
I1
aI1
asS'Yep,'
p4433
(lp4434
I1
aI1
asS'RT&#39;s'
p4435
(lp4436
I1
aI1
asS'company'
p4437
(lp4438
I1
aI1
asS'Fantastic'
p4439
(lp4440
I1
aI1
asS'St'
p4441
(lp4442
I7
aI6
asS'landed'
p4443
(lp4444
I1
aI1
asS'So'
p4445
(lp4446
I4
aI4
asS'broke'
p4447
(lp4448
I2
aI2
asS'known'
p4449
(lp4450
I1
aI1
asS'ofhttps://instagram.com/p/0IxfUizNUg/&nbsp;'
p4451
(lp4452
I1
aI1
asS'glad'
p4453
(lp4454
I2
aI2
asS'@GBarlowOfficialhotel'
p4455
(lp4456
I1
aI1
asS'helped'
p4457
(lp4458
I1
aI1
asS'keeping'
p4459
(lp4460
I2
aI2
asS'nerdy!http://l.ctx.ly/r/y13w&nbsp;pic.twitter.com/LlCqn21f9Q'
p4461
(lp4462
I1
aI1
asS'Adidas'
p4463
(lp4464
I1
aI1
asS'KWELI'
p4465
(lp4466
I1
aI1
asS'cooler'
p4467
(lp4468
I1
aI1
asS'friendly'
p4469
(lp4470
I1
aI1
asS'bomber'
p4471
(lp4472
I1
aI1
asS'10http://zagg.to/DYL4g2&nbsp;'
p4473
(lp4474
I1
aI1
asS'budgets'
p4475
(lp4476
I1
aI1
asS'learn'
p4477
(lp4478
I1
aI1
asS'The@ulalaunchAtlas'
p4479
(lp4480
I1
aI1
asS'Tomorrow'
p4481
(lp4482
I3
aI3
asS'history'
p4483
(lp4484
I2
aI2
asS'nights&quot;'
p4485
(lp4486
I1
aI1
asS'panic#eclipse2015pic.twitter.com/Kdnj6mO5Gx'
p4487
(lp4488
I1
aI1
asS'launching'
p4489
(lp4490
I2
aI2
asS'good?!http://bit.ly/1EvczEv&nbsp;'
p4491
(lp4492
I1
aI1
asS'Hahahahttps://instagram.com/p/0VtSjwiTKd/&nbsp;'
p4493
(lp4494
I1
aI1
asS'CEO'
p4495
(lp4496
I2
aI2
asS'share'
p4497
(lp4498
I4
aI4
asS'AMAZING'
p4499
(lp4500
I1
aI1
asS'smartphone'
p4501
(lp4502
I1
aI1
asS'congregant'
p4503
(lp4504
I1
aI1
asS'sense'
p4505
(lp4506
I1
aI1
asS'Milngavie-Edinburgh'
p4507
(lp4508
I1
aI1
asS'station'
p4509
(lp4510
I1
aI1
asS'magenta'
p4511
(lp4512
I1
aI1
asS'FORECAST'
p4513
(lp4514
I1
aI1
asS'Cause'
p4515
(lp4516
I1
aI1
asS'leaderboard.http://lnk.to/cT4Lf&nbsp;pic.twitter.com/Rq30IhWfWG'
p4517
(lp4518
I1
aI1
asS'!'
p4519
(lp4520
I2
aI2
asS'information'
p4521
(lp4522
I1
aI1
asS'needs'
p4523
(lp4524
I2
aI2
asS'collection.&#10;https://amp.twimg.com/v/58cddbc5-9b70-4dce-a24a-40d077e3bc94&nbsp;'
p4525
(lp4526
I1
aI1
asS'here:http://ift.tt/1ASDB6x&nbsp;'
p4527
(lp4528
I1
aI1
asS'began:'
p4529
(lp4530
I1
aI1
asS'persistence'
p4531
(lp4532
I1
aI1
asS'newhttp://thisismelo.com&nbsp;next'
p4533
(lp4534
I1
aI1
asS'Join#NoraChattyin'
p4535
(lp4536
I1
aI1
asS'Friendly'
p4537
(lp4538
I1
aI1
asS'up...'
p4539
(lp4540
I1
aI1
asS'love@TheMalonesGB#Gogglebox#Rottweiler'
p4541
(lp4542
I1
aI1
asS'their....'
p4543
(lp4544
I1
aI1
asS'patron@simonpeggwho'
p4545
(lp4546
I1
aI1
asS'pleasure'
p4547
(lp4548
I1
aI1
asS'I&#39;ve'
p4549
(lp4550
I3
aI2
asS'Andrew:http://www.ournameisfun.com/post/110131366776/a-message-from-nate-jack-andrew&nbsp;'
p4551
(lp4552
I1
aI1
asS'Mirror'
p4553
(lp4554
I1
aI1
asS'@domisatwitsend'
p4555
(lp4556
I1
aI1
asS'Dog'
p4557
(lp4558
I2
aI2
asS'what?!https://Instagram.com/p/0T_zjBu8d6/&nbsp;'
p4559
(lp4560
I1
aI1
asS'Lagerfeld#brasseriechanelpic.twitter.com/yd4jCR4fMN'
p4561
(lp4562
I1
aI1
asS'shooting'
p4563
(lp4564
I1
aI1
asS'blood'
p4565
(lp4566
I2
aI2
asS'coming'
p4567
(lp4568
I6
aI6
asS'Amazing@kidsrockliveshow'
p4569
(lp4570
I1
aI1
asS'a'
p4571
(lp4572
I171
aI145
asS'funday'
p4573
(lp4574
I1
aI1
asS'Snapmatics:http://rsg.ms/5fd27cf&nbsp;#GTAVpic.twitter.com/hiDrjgFKEh'
p4575
(lp4576
I1
aI1
asS'xxx7'
p4577
(lp4578
I1
aI1
asS'43@StationCDRKellyis'
p4579
(lp4580
I1
aI1
asS'anytime'
p4581
(lp4582
I1
aI1
asS'Lagerfeld'
p4583
(lp4584
I2
aI2
asS'broadcasting'
p4585
(lp4586
I1
aI1
asS'mourn'
p4587
(lp4588
I1
aI1
asS'9:26:53'
p4589
(lp4590
I1
aI1
asS'Armed'
p4591
(lp4592
I1
aI1
asS'Nerd'
p4593
(lp4594
I1
aI1
asS'our#GiveWhatFireTakescampaign:http://rdcrss.org/twlp-firetakes&nbsp;'
p4595
(lp4596
I1
aI1
asS'What'
p4597
(lp4598
I13
aI12
asS'Boov@DT_Snettertonlikes'
p4599
(lp4600
I1
aI1
asS'help'
p4601
(lp4602
I9
aI9
asS'slowly.@dt_essex(Basildon)pic.twitter.com/mPROefTRQY'
p4603
(lp4604
I1
aI1
asS'Games!#Compexathletes#pexing#StriveForGreatness@mikemancias1https://instagram.com/p/z8-XRYiTIx/&nbsp;'
p4605
(lp4606
I1
aI1
asS'bowl'
p4607
(lp4608
I1
aI1
asS'Birthdays'
p4609
(lp4610
I1
aI1
asS'details.http://lothianbuses.com/plan-a-journey/status-board&nbsp;'
p4611
(lp4612
I1
aI1
asS'soon'
p4613
(lp4614
I2
aI2
asS'phone...#youaretheman'
p4615
(lp4616
I1
aI1
asS'playing'
p4617
(lp4618
I1
aI1
asS'cook'
p4619
(lp4620
I1
aI1
asS'already'
p4621
(lp4622
I1
aI1
asS'through'
p4623
(lp4624
I2
aI2
asS'committee'
p4625
(lp4626
I1
aI1
asS'committed'
p4627
(lp4628
I1
aI1
asS'Atlas'
p4629
(lp4630
I2
aI2
asS'athttp://ScotRail.co.uk/disruption&nbsp;.'
p4631
(lp4632
I1
aI1
asS'its'
p4633
(lp4634
I7
aI7
asS'25'
p4635
(lp4636
I2
aI2
asS'style'
p4637
(lp4638
I2
aI2
asS'Full'
p4639
(lp4640
I3
aI3
asS'March'
p4641
(lp4642
I3
aI3
asS'21'
p4643
(lp4644
I2
aI2
asS'22'
p4645
(lp4646
I1
aI1
asS'call'
p4647
(lp4648
I4
aI3
asS'Greta'
p4649
(lp4650
I1
aI1
asS'now!!!!'
p4651
(lp4652
I1
aI1
asS'responsible'
p4653
(lp4654
I1
aI1
asS'RT#nipclub#findtess#tesshttp://twitter.com/MsLuLuPuppy/status/497561130634842113/photo/1pic.twitter.com/dxzyZVGg4m&nbsp;/s/K3y8&#10;&#10;http://m.twitter.com/tc1242000&nbsp;&#10;#NCTCpals'
p4655
(lp4656
I1
aI1
asS'late'
p4657
(lp4658
I1
aI1
asS'paper!http://store.ournameisfun.com&nbsp;pic.twitter.com/6Pt4AtFiqC'
p4659
(lp4660
I1
aI1
asS'2!'
p4661
(lp4662
I1
aI1
asS'Bidding'
p4663
(lp4664
I1
aI1
asS'2,'
p4665
(lp4666
I2
aI2
asS'followers'
p4667
(lp4668
I2
aI2
asS'travelling'
p4669
(lp4670
I3
aI3
asS'might'
p4671
(lp4672
I3
aI3
asS'too.#MMXXLhttps://instagram.com/p/0JYPs7JXS8/&nbsp;'
p4673
(lp4674
I1
aI1
asS'Vinyl'
p4675
(lp4676
I2
aI2
asS'it.'
p4677
(lp4678
I1
aI1
asS'someone'
p4679
(lp4680
I2
aI2
asS'return'
p4681
(lp4682
I2
aI2
asS'Trailerhttp://simonpegg.net/2015/02/20/kill-me-three-times-red-band-trailer/&nbsp;'
p4683
(lp4684
I1
aI1
asS'ya'
p4685
(lp4686
I1
aI1
asS'voice!'
p4687
(lp4688
I1
aI1
asS'Jobs.'
p4689
(lp4690
I1
aI1
asS'hunter'
p4691
(lp4692
I1
aI1
asS'it!'
p4693
(lp4694
I1
aI1
asS'Sheringham'
p4695
(lp4696
I2
aI2
asS'fancy'
p4697
(lp4698
I1
aI1
asS'Also,'
p4699
(lp4700
I1
aI1
asS'yr'
p4701
(lp4702
I1
aI1
asS'3/23http://rsg.ms/3b177a0&nbsp;pic.twitter.com/c0KcP4hM65'
p4703
(lp4704
I1
aI1
asS'@FragranceFTDN'
p4705
(lp4706
I1
aI1
asS'fire#M8W/B'
p4707
(lp4708
I1
aI1
asS'always'
p4709
(lp4710
I4
aI4
asS'&gt;To'
p4711
(lp4712
I1
aI1
asS'think!https://cards.twitter.com/cards/18ce53ung4j/ec16&nbsp;'
p4713
(lp4714
I1
aI1
asS'here:http://bit.ly/1Esfuhq&nbsp;#W2U#Watchespic.twitter.com/E6JYxhbXbR'
p4715
(lp4716
I1
aI1
asS'tear'
p4717
(lp4718
I1
aI1
asS'equality?'
p4719
(lp4720
I1
aI1
asS'how@loveeashlynis'
p4721
(lp4722
I1
aI1
asS'7/Journalists'
p4723
(lp4724
I1
aI1
asS'Thanks'
p4725
(lp4726
I4
aI4
asS'also,'
p4727
(lp4728
I1
aI1
asS'Scottish'
p4729
(lp4730
I1
aI1
asS'&#10;&#10;#HumpDay#curves#thick#strong#booty#glutes#calves#legs#wcw#bikinihttps://instagram.com/p/0YgT1jTNZ4/&nbsp;'
p4731
(lp4732
I1
aI1
asS'found'
p4733
(lp4734
I4
aI4
asS'Sounds'
p4735
(lp4736
I1
aI1
asS'breakdown.'
p4737
(lp4738
I1
aI1
asS'at@CentralParkNYCpic.twitter.com/vFDAjqM4uR'
p4739
(lp4740
I1
aI1
asS'best!'
p4741
(lp4742
I1
aI1
asS'trailer'
p4743
(lp4744
I2
aI2
asS'sketches'
p4745
(lp4746
I1
aI1
asS'breakdown'
p4747
(lp4748
I1
aI1
asS'everyone'
p4749
(lp4750
I2
aI2
asS'End'
p4751
(lp4752
I1
aI1
asS'Congratulations!'
p4753
(lp4754
I1
aI1
asS'#glasgowTraffic'
p4755
(lp4756
I1
aI1
asS'hard'
p4757
(lp4758
I2
aI2
asS'Sports'
p4759
(lp4760
I3
aI3
asS'&quot;everyone'
p4761
(lp4762
I1
aI1
asS'here:http://bit.ly/1HaYcrx&nbsp;pic.twitter.com/lsFyzrzSny'
p4763
(lp4764
I1
aI1
asS'Retro'
p4765
(lp4766
I2
aI2
asS'$1.8'
p4767
(lp4768
I1
aI1
asS'Mum'
p4769
(lp4770
I1
aI1
asS'event'
p4771
(lp4772
I1
aI1
asS'More'
p4773
(lp4774
I7
aI7
asS'@C4Countdown:'
p4775
(lp4776
I1
aI1
asS'lipstick'
p4777
(lp4778
I2
aI2
asS'4pm'
p4779
(lp4780
I1
aI1
asS'since'
p4781
(lp4782
I3
aI3
asS'anothermagazine'
p4783
(lp4784
I1
aI1
asS'health'
p4785
(lp4786
I2
aI2
asS'7'
p4787
(lp4788
I2
aI2
asS'1/personpic.twitter.com/u7EwPQGKU8'
p4789
(lp4790
I1
aI1
asS'issue'
p4791
(lp4792
I1
aI1
asS'Warriors-inspired'
p4793
(lp4794
I1
aI1
asS'pair.'
p4795
(lp4796
I1
aI1
asS'with@BloodyBeetrootsand'
p4797
(lp4798
I1
aI1
asS'Join@guidedogsfor'
p4799
(lp4800
I1
aI1
asS'you?@VivaRonaldohttp://vivaronaldo.com&nbsp;'
p4801
(lp4802
I1
aI1
asS'help#Vanuatuin'
p4803
(lp4804
I1
aI1
asS'pub'
p4805
(lp4806
I1
aI1
asS'Leaving'
p4807
(lp4808
I2
aI2
asS'reason'
p4809
(lp4810
I2
aI2
asS'WA!'
p4811
(lp4812
I1
aI1
asS'Nine'
p4813
(lp4814
I1
aI1
asS'on@VEVO!pic.twitter.com/lLkgYd1Zxl'
p4815
(lp4816
I1
aI1
asS'put'
p4817
(lp4818
I1
aI1
asS'enter!...http://fb.me/1y4B3NUrI&nbsp;'
p4819
(lp4820
I1
aI1
asS'3@Jumpman23#M11All-Star'
p4821
(lp4822
I1
aI1
asS'Block'
p4823
(lp4824
I1
aI1
asS'FASCINATING.'
p4825
(lp4826
I1
aI1
asS'Chronograph'
p4827
(lp4828
I2
aI2
asS'El'
p4829
(lp4830
I1
aI1
asS'owners'
p4831
(lp4832
I1
aI1
asS'benefits'
p4833
(lp4834
I1
aI1
asS'Simons'
p4835
(lp4836
I2
aI2
asS'onhttp://chanel-news.com/-fall-winter-2015-16-rtw&nbsp;&#10;https://amp.twimg.com/v/9a53a90c-6651-4a7b-94b0-d7f2c6419c77&nbsp;'
p4837
(lp4838
I1
aI1
asS'running'
p4839
(lp4840
I9
aI9
asS'Past'
p4841
(lp4842
I1
aI1
asS'Expect'
p4843
(lp4844
I2
aI2
asS'Pass'
p4845
(lp4846
I1
aI1
asS'Respect'
p4847
(lp4848
I1
aI1
asS'castle'
p4849
(lp4850
I1
aI1
asS'HD,'
p4851
(lp4852
I1
aI1
asS'Orchid'
p4853
(lp4854
I1
aI1
asS'Huge'
p4855
(lp4856
I2
aI2
asS'major'
p4857
(lp4858
I2
aI2
asS'#M90towards#FRBqueues'
p4859
(lp4860
I1
aI1
asS'dont'
p4861
(lp4862
I1
aI1
asS'emblazoned'
p4863
(lp4864
I1
aI1
asS'feel'
p4865
(lp4866
I4
aI4
asS'Oklahoma'
p4867
(lp4868
I1
aI1
asS'number'
p4869
(lp4870
I2
aI2
asS'at#Caldercruixexpected'
p4871
(lp4872
I1
aI1
asS'feet'
p4873
(lp4874
I1
aI1
asS'Indian'
p4875
(lp4876
I1
aI1
asS'done'
p4877
(lp4878
I2
aI2
asS'minutes!'
p4879
(lp4880
I1
aI1
asS'miss'
p4881
(lp4882
I3
aI3
asS'We&#39;ve'
p4883
(lp4884
I8
aI8
asS'regret'
p4885
(lp4886
I1
aI1
asS'pinned'
p4887
(lp4888
I1
aI1
asS'story'
p4889
(lp4890
I1
aI1
asS'by@inezandvinoodhin'
p4891
(lp4892
I1
aI1
asS'Sunny'
p4893
(lp4894
I1
aI1
asS'least'
p4895
(lp4896
I2
aI2
asS'ID'
p4897
(lp4898
I1
aI1
asS'Cheers'
p4899
(lp4900
I1
aI1
asS'follow@teamme7ofor'
p4901
(lp4902
I1
aI1
asS'for#GTAOnline,'
p4903
(lp4904
I1
aI1
asS'altered.'
p4905
(lp4906
I1
aI1
asS'modepic.twitter.com/4tq21DGBzH'
p4907
(lp4908
I1
aI1
asS'passed'
p4909
(lp4910
I1
aI1
asS'scheme'
p4911
(lp4912
I1
aI1
asS'syrup'
p4913
(lp4914
I1
aI1
asS'family:'
p4915
(lp4916
I1
aI1
asS'store'
p4917
(lp4918
I2
aI2
asS'2.30pm#edintravelpic.twitter.com/vlJUG0HMlK'
p4919
(lp4920
I1
aI1
asS'option'
p4921
(lp4922
I1
aI1
asS'here.http://www.walmart.com/msharbor/ip/42068227?wmlspartner=wlpa&amp;wl0&amp;wl1=g&amp;wl2=c&amp;wl3=53411334992&amp;wl4&amp;wl5=pla&amp;wl6=88847729097&amp;veh=mweb:sem&nbsp;CF'
p4923
(lp4924
I1
aI1
asS'park'
p4925
(lp4926
I1
aI1
asS'interviewed'
p4927
(lp4928
I1
aI1
asS'60'
p4929
(lp4930
I1
aI1
asS'discover'
p4931
(lp4932
I1
aI1
asS'part'
p4933
(lp4934
I6
aI6
asS'impressivehttp://bloom.bg/1CwEIjG&nbsp;via@business'
p4935
(lp4936
I1
aI1
asS'show#brasseriechanel&#10;https://amp.twimg.com/v/d80a8fa6-be99-4177-98b3-01170e1bb11b&nbsp;'
p4937
(lp4938
I1
aI1
asS'albums'
p4939
(lp4940
I1
aI1
asS'Shoutout'
p4941
(lp4942
I1
aI1
asS'Road'
p4943
(lp4944
I2
aI2
asS'athttp://www.chriselli.com&nbsp;!'
p4945
(lp4946
I1
aI1
asS'kind'
p4947
(lp4948
I2
aI2
asS'brunch?#Decisions#WorkHardPlayHardhttp://i.victoria.com/dWl&nbsp;pic.twitter.com/B8SaBOwvoL'
p4949
(lp4950
I1
aI1
asS'with@SMSAudio&#39;s'
p4951
(lp4952
I1
aI1
asS'double'
p4953
(lp4954
I1
aI1
asS'Airdrie,'
p4955
(lp4956
I1
aI1
asS'Square.#ISS1Yearhttps://flic.kr/s/aHsk8quHEE&nbsp;pic.twitter.com/7iGU4IcK2h'
p4957
(lp4958
I1
aI1
asS'(whether'
p4959
(lp4960
I1
aI1
asS'Helensburgh/Milngavie'
p4961
(lp4962
I2
aI2
asS'i'
p4963
(lp4964
I3
aI3
asS'Valid'
p4965
(lp4966
I1
aI1
asS'#LAMarathonlights'
p4967
(lp4968
I1
aI1
asS'LIVE:http://twitch.tv/rockstargames&nbsp;#GTAOnlineAdversary'
p4969
(lp4970
I1
aI1
asS'w/@NASA_MMSis'
p4971
(lp4972
I1
aI1
asS'Click'
p4973
(lp4974
I2
aI2
asS'by@mediangame'
p4975
(lp4976
I1
aI1
asS'roadworks.'
p4977
(lp4978
I1
aI1
asS'service.'
p4979
(lp4980
I1
aI1
asS'God'
p4981
(lp4982
I7
aI7
asS'alongside'
p4983
(lp4984
I1
aI1
asS'!#OzenvsEverybody@KendrickPerkinspic.twitter.com/jbOcVOdihA'
p4985
(lp4986
I1
aI1
asS'Search'
p4987
(lp4988
I1
aI1
asS'pedestrian'
p4989
(lp4990
I1
aI1
asS'season:http://vogue.cm/1CE3Kf9&nbsp;pic.twitter.com/WdZHzzvAzQ'
p4991
(lp4992
I1
aI1
asS'running.'
p4993
(lp4994
I1
aI1
asS'Penn'
p4995
(lp4996
I1
aI1
asS'to@spritneybeersfor'
p4997
(lp4998
I1
aI1
asS'2015@MTV#movieawardshttp://on.mtv.com/1FR1rao&nbsp;'
p4999
(lp5000
I1
aI1
asS'clsd'
p5001
(lp5002
I3
aI3
asS'Bathgate-Edinburgh.'
p5003
(lp5004
I1
aI1
asS'nights'
p5005
(lp5006
I1
aI1
asS'built'
p5007
(lp5008
I3
aI1
asS'Mushroom'
p5009
(lp5010
I1
aI1
asS'lil'
p5011
(lp5012
I1
aI1
asS'lorry#hurrah'
p5013
(lp5014
I1
aI1
asS'gold?pic.twitter.com/QBOsY6UMbw'
p5015
(lp5016
I1
aI1
asS'officers'
p5017
(lp5018
I1
aI1
asS'also'
p5019
(lp5020
I2
aI2
asS'without'
p5021
(lp5022
I4
aI4
asS'grew'
p5023
(lp5024
I1
aI1
asS'build'
p5025
(lp5026
I2
aI2
asS'finding'
p5027
(lp5028
I1
aI1
asS'GoW'
p5029
(lp5030
I1
aI1
asS'lace.#HeatThingsUphttp://i.victoria.com/GD8&nbsp;pic.twitter.com/mQDpsrCuCl'
p5031
(lp5032
I1
aI1
asS'Pockit'
p5033
(lp5034
I1
aI1
asS'costs.'
p5035
(lp5036
I1
aI1
asS'viahttp://bit.ly/1CbcKIj&nbsp;&amp;#BePrepared'
p5037
(lp5038
I1
aI1
asS'play'
p5039
(lp5040
I4
aI4
asS'Episode'
p5041
(lp5042
I1
aI1
asS'say...we'
p5043
(lp5044
I1
aI1
asS'Thx'
p5045
(lp5046
I2
aI2
asS'VERY'
p5047
(lp5048
I1
aI1
asS'mileor'
p5049
(lp5050
I1
aI1
asS'trains'
p5051
(lp5052
I4
aI4
asS'reach'
p5053
(lp5054
I1
aI1
asS'planned?#TGIFpic.twitter.com/d67QQfrl2i'
p5055
(lp5056
I1
aI1
asS'thx@simonpegg-@tipcharitypatron'
p5057
(lp5058
I1
aI1
asS'most'
p5059
(lp5060
I6
aI6
asS'plan'
p5061
(lp5062
I3
aI3
asS'services'
p5063
(lp5064
I8
aI7
asS'The'
p5065
(lp5066
I40
aI40
asS'to#win?!'
p5067
(lp5068
I1
aI1
asS'approved'
p5069
(lp5070
I1
aI1
asS'Jessica'
p5071
(lp5072
I1
aI1
asS'Breastfeeding'
p5073
(lp5074
I1
aI1
asS'Bridge'
p5075
(lp5076
I4
aI4
asS'understands'
p5077
(lp5078
I1
aI1
asS'mobile'
p5079
(lp5080
I1
aI1
asS'RT@JadoreEllenRoseCompetition!'
p5081
(lp5082
I1
aI1
asS'humanitarian'
p5083
(lp5084
I1
aI1
asS'Berkshirehttp://bit.ly/1CzWuws&nbsp;#CharityJobs'
p5085
(lp5086
I1
aI1
asS'traditional'
p5087
(lp5088
I1
aI1
asS'Wifey'
p5089
(lp5090
I1
aI1
asS'charged'
p5091
(lp5092
I1
aI1
asS'shoutout'
p5093
(lp5094
I1
aI1
asS'lost?http://bbc.in/1DzQoBT&nbsp;'
p5095
(lp5096
I1
aI1
asS'Perfect'
p5097
(lp5098
I1
aI1
asS'Up.'
p5099
(lp5100
I1
aI1
asS'particularly'
p5101
(lp5102
I1
aI1
asS'Home.pic.twitter.com/thKH2IsLkp'
p5103
(lp5104
I1
aI1
asS'fatal:'
p5105
(lp5106
I1
aI1
asS'Winning'
p5107
(lp5108
I1
aI1
asS'neighbourin...http://bit.ly/1HbmG7H&nbsp;'
p5109
(lp5110
I1
aI1
asS'photohttps://instagram.com/p/0XG_KxzNar/&nbsp;'
p5111
(lp5112
I1
aI1
asS'Luck!#W2U#Watches#Win#Competition#Free#Prizepic.twitter.com/wsvE2riqvj'
p5113
(lp5114
I1
aI1
asS'session'
p5115
(lp5116
I1
aI1
asS'businesses'
p5117
(lp5118
I1
aI1
asS'know@techradaris'
p5119
(lp5120
I1
aI1
asS'murder.&#10;'
p5121
(lp5122
I1
aI1
asS'available.http://rsg.ms/2411d56&nbsp;pic.twitter.com/a83GlwG619'
p5123
(lp5124
I1
aI1
asS'Has'
p5125
(lp5126
I2
aI2
asS'#M8#M73#M74Improvements'
p5127
(lp5128
I1
aI1
asS'access'
p5129
(lp5130
I1
aI1
asS'(Bay'
p5131
(lp5132
I1
aI1
asS'More:http://bit.ly/FBRSale&nbsp;pic.twitter.com/WvUf84ohQu'
p5133
(lp5134
I1
aI1
asS'the#Mondayblues'
p5135
(lp5136
I1
aI1
asS'Premiere'
p5137
(lp5138
I1
aI1
asS'writer'
p5139
(lp5140
I1
aI1
asS'poppin'
p5141
(lp5142
I1
aI1
asS'laundry,'
p5143
(lp5144
I1
aI1
asS'@RussellHobbsUKexcellent'
p5145
(lp5146
I1
aI1
asS'extra-special'
p5147
(lp5148
I1
aI1
asS'Traffic'
p5149
(lp5150
I1
aI1
asS'pretty'
p5151
(lp5152
I2
aI2
asS'all:http://vogue.cm/1C7gZ7s&nbsp;'
p5153
(lp5154
I1
aI1
asS'8'
p5155
(lp5156
I1
aI1
asS'Highest'
p5157
(lp5158
I1
aI1
asS'Ja'
p5159
(lp5160
I1
aI1
asS'Celebrate'
p5161
(lp5162
I2
aI2
asS'Prime'
p5163
(lp5164
I1
aI1
asS'Amazing'
p5165
(lp5166
I1
aI1
asS'his'
p5167
(lp5168
I10
aI9
asS'OFF'
p5169
(lp5170
I2
aI2
asS'Africa.pic.twitter.com/PaspNhGlbG'
p5171
(lp5172
I1
aI1
asS'quizzes'
p5173
(lp5174
I1
aI1
asS'Erskine'
p5175
(lp5176
I2
aI2
asS'^CT.'
p5177
(lp5178
I1
aI1
asS'trees'
p5179
(lp5180
I1
aI1
asS'feels'
p5181
(lp5182
I1
aI1
asS'courage'
p5183
(lp5184
I1
aI1
asS'rest'
p5185
(lp5186
I1
aI1
asS'during'
p5187
(lp5188
I3
aI3
asS'him'
p5189
(lp5190
I1
aI1
asS'merchandise'
p5191
(lp5192
I2
aI2
asS'season:http://vogue.cm/1MWT1gY&nbsp;'
p5193
(lp5194
I1
aI1
asS'Motherwell'
p5195
(lp5196
I1
aI1
asS'Help'
p5197
(lp5198
I4
aI4
asS'Ploughing'
p5199
(lp5200
I1
aI1
asS'J4'
p5201
(lp5202
I2
aI2
asS'blocked,'
p5203
(lp5204
I1
aI1
asS'Sunday'
p5205
(lp5206
I2
aI2
asS'J3'
p5207
(lp5208
I1
aI1
asS'exercise'
p5209
(lp5210
I1
aI1
asS'a#Tardisfor'
p5211
(lp5212
I1
aI1
asS'delayed.'
p5213
(lp5214
I1
aI1
asS'A)'
p5215
(lp5216
I1
aI1
asS'precaution'
p5217
(lp5218
I1
aI1
asS'with@NerdBlockand'
p5219
(lp5220
I1
aI1
asS'muhphucka!!!#iHeartAwards#iHeartNavy'
p5221
(lp5222
I1
aI1
asS'group#Norfolkhttp://on.fb.me/1EYfx9O&nbsp;'
p5223
(lp5224
I2
aI2
asS'art'
p5225
(lp5226
I3
aI3
asS'For'
p5227
(lp5228
I5
aI5
asS'via@travelinescotorhttp://bit.ly/1H1bZEt&nbsp;or'
p5229
(lp5230
I1
aI1
asS'thanks@weareclashisthttps://instagram.com/p/0ZRBgKJXW5/&nbsp;'
p5231
(lp5232
I1
aI1
asS'#SelfieSticks'
p5233
(lp5234
I1
aI1
asS'RRP!'
p5235
(lp5236
I1
aI1
asS'see'
p5237
(lp5238
I8
aI8
asS'prizes!http://bit.ly/FUN4REC&nbsp;#FUN4REC'
p5239
(lp5240
I1
aI1
asS'are'
p5241
(lp5242
I39
aI36
asS'close'
p5243
(lp5244
I1
aI1
asS'usual.'
p5245
(lp5246
I1
aI1
asS'retweet'
p5247
(lp5248
I2
aI2
asS'Westbound'
p5249
(lp5250
I2
aI2
asS'Cross!pic.twitter.com/Ffh3RLoIoA'
p5251
(lp5252
I1
aI1
asS'this#InternationalWomensDay.'
p5253
(lp5254
I1
aI1
asS'hour'
p5255
(lp5256
I1
aI1
asS'pictures'
p5257
(lp5258
I2
aI2
asS'currently'
p5259
(lp5260
I5
aI5
asS'please'
p5261
(lp5262
I5
aI5
asS'demons'
p5263
(lp5264
I1
aI1
asS'Thanks@friarsclubfor'
p5265
(lp5266
I1
aI1
asS'fans'
p5267
(lp5268
I2
aI2
asS'won'
p5269
(lp5270
I1
aI1
asS'voted'
p5271
(lp5272
I1
aI1
asS'Egyptians'
p5273
(lp5274
I1
aI1
asS'years!'
p5275
(lp5276
I1
aI1
asS'WEATHER'
p5277
(lp5278
I1
aI1
asS'champagne'
p5279
(lp5280
I1
aI1
asS'WOW!'
p5281
(lp5282
I2
aI2
asS'posted!#ISSCrew#AstroButchhttps://flic.kr/s/aHsk8x38on&nbsp;pic.twitter.com/3k5Lm0FgBp'
p5283
(lp5284
I1
aI1
asS'available'
p5285
(lp5286
I3
aI3
asS'solo'
p5287
(lp5288
I1
aI1
asS'stationary,'
p5289
(lp5290
I1
aI1
asS'missing'
p5291
(lp5292
I3
aI3
asS'here:http://bit.ly/16eoGv5&nbsp;Good'
p5293
(lp5294
I1
aI1
asS'pedicuresjust'
p5295
(lp5296
I1
aI1
asS'baking,'
p5297
(lp5298
I1
aI1
asS'incident'
p5299
(lp5300
I2
aI2
asS'succeed'
p5301
(lp5302
I1
aI1
asS'HOUSE'
p5303
(lp5304
I1
aI1
asS'small:http://rdcrss.org/tw-firetakes&nbsp;#GiveWhatFireTakes'
p5305
(lp5306
I1
aI1
asS'the#NACA100Celebrationhttps://flic.kr/s/aHsk91Hkea&nbsp;#NASApic.twitter.com/HYWulvBkv3'
p5307
(lp5308
I1
aI1
asS'days!'
p5309
(lp5310
I1
aI1
asS'AND'
p5311
(lp5312
I2
aI2
asS'both'
p5313
(lp5314
I5
aI5
asS'Kratos:http://bit.ly/1H6MXUw&nbsp;pic.twitter.com/pHQ0EWEHEj'
p5315
(lp5316
I1
aI1
asS'.@ournameisfunis'
p5317
(lp5318
I1
aI1
asS'Pegg.'
p5319
(lp5320
I1
aI1
asS'restaurant'
p5321
(lp5322
I1
aI1
asS'Morrissey'
p5323
(lp5324
I1
aI1
asS'Pegg!'
p5325
(lp5326
I1
aI1
asS'Dancers'
p5327
(lp5328
I1
aI1
asS'packing'
p5329
(lp5330
I1
aI1
asS'18:30.#drivesafe'
p5331
(lp5332
I1
aI1
asS'Steve'
p5333
(lp5334
I2
aI2
asS'you@LDSChurchfor'
p5335
(lp5336
I1
aI1
asS'here:http://bit.ly/1GDlAOH&nbsp;&amp;'
p5337
(lp5338
I1
aI1
asS'#scotrail07:23'
p5339
(lp5340
I1
aI1
asS'Galaxy'
p5341
(lp5342
I1
aI1
asS'forgotten'
p5343
(lp5344
I1
aI1
asS'Green'
p5345
(lp5346
I1
aI1
asS'Yes'
p5347
(lp5348
I1
aI1
asS'whole'
p5349
(lp5350
I2
aI2
asS'Blessed...'
p5351
(lp5352
I1
aI1
asS'Cotton'
p5353
(lp5354
I1
aI1
asS'xx37'
p5355
(lp5356
I1
aI1
asS'Friday'
p5357
(lp5358
I2
aI2
asS'you@Wawafor'
p5359
(lp5360
I1
aI1
asS'Mr'
p5361
(lp5362
I1
aI1
asS'11/12.'
p5363
(lp5364
I1
aI1
asS'community'
p5365
(lp5366
I2
aI2
asS'hob!#leisurecookerspic.twitter.com/CTYQKZ1MH3'
p5367
(lp5368
I1
aI1
asS'cancelled....'
p5369
(lp5370
I1
aI1
asS'storybook'
p5371
(lp5372
I1
aI1
asS'Leisure'
p5373
(lp5374
I1
aI1
asS'&#39;To'
p5375
(lp5376
I1
aI1
asS'Victoria'
p5377
(lp5378
I1
aI1
asS'Willie'
p5379
(lp5380
I2
aI2
asS'War'
p5381
(lp5382
I5
aI5
asS'that&#39;s'
p5383
(lp5384
I1
aI1
asS'*Princes'
p5385
(lp5386
I1
aI1
asS'until@PitchPerfect2.'
p5387
(lp5388
I1
aI1
asS'raise'
p5389
(lp5390
I1
aI1
asS'Changes'
p5391
(lp5392
I1
aI1
asS'creativity'
p5393
(lp5394
I1
aI1
asS'due'
p5395
(lp5396
I15
aI13
asS'done@carolineflack1'
p5397
(lp5398
I1
aI1
asS'parachute.'
p5399
(lp5400
I1
aI1
asS'secret'
p5401
(lp5402
I1
aI1
asS'describes'
p5403
(lp5404
I1
aI1
asS'damn'
p5405
(lp5406
I1
aI1
asS'Plan'
p5407
(lp5408
I1
aI1
asS'Moss'
p5409
(lp5410
I2
aI2
asS'experience.'
p5411
(lp5412
I1
aI1
asS'Gretna'
p5413
(lp5414
I1
aI1
asS'Bloodborne,'
p5415
(lp5416
I1
aI1
asS'brick'
p5417
(lp5418
I2
aI2
asS'meeting'
p5419
(lp5420
I3
aI3
asS'&#10;&#10;Found'
p5421
(lp5422
I2
aI2
asS'4'
p5423
(lp5424
I7
aI7
asS'vans'
p5425
(lp5426
I2
aI1
asS'sending'
p5427
(lp5428
I1
aI1
asS'fire'
p5429
(lp5430
I12
aI11
asS'Pics'
p5431
(lp5432
I1
aI1
asS'moment'
p5433
(lp5434
I1
aI1
asS'fund'
p5435
(lp5436
I1
aI1
asS'understand'
p5437
(lp5438
I1
aI1
asS'dave!!'
p5439
(lp5440
I1
aI1
asS'1pm#Win#W2Upic.twitter.com/0bjgwHdL5Q'
p5441
(lp5442
I1
aI1
asS'Pick'
p5443
(lp5444
I1
aI1
asS'album#TakeTheCrownto'
p5445
(lp5446
I1
aI1
asS'Starting'
p5447
(lp5448
I1
aI1
asS'Michel'
p5449
(lp5450
I1
aI1
asS'Surface,'
p5451
(lp5452
I1
aI1
asS'order!http://bit.ly/JrjxFE&nbsp;#W2U#Competition'
p5453
(lp5454
I1
aI1
asS'the#Zoolander2momentmakeup'
p5455
(lp5456
I1
aI1
asS'Dont'
p5457
(lp5458
I2
aI2
asS'all-time'
p5459
(lp5460
I1
aI1
asS'straight'
p5461
(lp5462
I1
aI1
asS'Daily#GIVEAWAYand'
p5463
(lp5464
I1
aI1
asS'Painted'
p5465
(lp5466
I1
aI1
asS'invite@michaelianblackpic.twitter.com/cflTQUy7FO'
p5467
(lp5468
I1
aI1
asS'while'
p5469
(lp5470
I1
aI1
asS'Done'
p5471
(lp5472
I1
aI1
asS'morepic.twitter.com/P7R0cEMo0G'
p5473
(lp5474
I1
aI1
asS'Church'
p5475
(lp5476
I3
aI2
asS'fun'
p5477
(lp5478
I4
aI4
asS'FOUND!!'
p5479
(lp5480
I1
aI1
asS'Miss'
p5481
(lp5482
I2
aI2
asS'guide'
p5483
(lp5484
I3
aI3
asS'Market'
p5485
(lp5486
I1
aI1
asS'theres'
p5487
(lp5488
I1
aI1
asS'indulging'
p5489
(lp5490
I1
aI1
asS'City'
p5491
(lp5492
I2
aI2
asS'pound'
p5493
(lp5494
I1
aI1
asS'Jaffa'
p5495
(lp5496
I1
aI1
asS'#A985Kincardine'
p5497
(lp5498
I1
aI1
asS'supporters,'
p5499
(lp5500
I1
aI1
asS'Tip'
p5501
(lp5502
I1
aI1
asS'BIRTHDAY'
p5503
(lp5504
I1
aI1
asS'35'
p5505
(lp5506
I1
aI1
asS'Got'
p5507
(lp5508
I2
aI2
asS'ready'
p5509
(lp5510
I5
aI5
asS'@davidvittyoops.'
p5511
(lp5512
I1
aI1
asS'On-Screen'
p5513
(lp5514
I1
aI1
asS'Easter'
p5515
(lp5516
I2
aI1
asS'fairer'
p5517
(lp5518
I1
aI1
asS'result'
p5519
(lp5520
I1
aI1
asS'away.'
p5521
(lp5522
I3
aI3
asS'decor'
p5523
(lp5524
I1
aI1
asS'it..?&#10;&#10;http://po.st/ERLyeS&nbsp;'
p5525
(lp5526
I1
aI1
asS'edition!#DontCrackUnderPressurehttp://tag.hr/baselworld&nbsp;pic.twitter.com/WkjkPkzyOw'
p5527
(lp5528
I1
aI1
asS'problems'
p5529
(lp5530
I1
aI1
asS'RT@apachehorsham#CompetitionWin'
p5531
(lp5532
I1
aI1
asS'delicious'
p5533
(lp5534
I1
aI1
asS'Backstage'
p5535
(lp5536
I1
aI1
asS'grand'
p5537
(lp5538
I1
aI1
asS'9'
p5539
(lp5540
I3
aI2
asS'87%'
p5541
(lp5542
I1
aI1
asS'conflict'
p5543
(lp5544
I1
aI1
asS'higher'
p5545
(lp5546
I2
aI2
asS'my@TAGHeuerSpecial'
p5547
(lp5548
I1
aI1
asS'used'
p5549
(lp5550
I1
aI1
asS'arena!'
p5551
(lp5552
I1
aI1
asS'sums'
p5553
(lp5554
I1
aI1
asS'gallery'
p5555
(lp5556
I1
aI1
asS'Granted!'
p5557
(lp5558
I1
aI1
asS'behttps://instagram.com/p/z-iwdgzNRy/&nbsp;'
p5559
(lp5560
I1
aI1
asS'Download'
p5561
(lp5562
I2
aI2
asS'Commitment,'
p5563
(lp5564
I1
aI1
asS'guys.'
p5565
(lp5566
I1
aI1
asS'arrived'
p5567
(lp5568
I1
aI1
asS'think?!pic.twitter.com/yKhZmUPqjZ'
p5569
(lp5570
I1
aI1
asS'Choice#TFFAwards!http://i.victoria.com/4d2&nbsp;pic.twitter.com/CG6ji43kIa'
p5571
(lp5572
I1
aI1
asS'YOU'
p5573
(lp5574
I1
aI1
asS'.@TmobileCEO@Johnlegeresays'
p5575
(lp5576
I1
aI1
asS'#AstroButchhands@Space_Stationcommand'
p5577
(lp5578
I1
aI1
asS'recent'
p5579
(lp5580
I1
aI1
asS'now.http://lnk.to/cT4Lf&nbsp;pic.twitter.com/Dy7BODC8eE'
p5581
(lp5582
I1
aI1
asS'Limited'
p5583
(lp5584
I2
aI2
asS'the#CarmeloAnthonyFoundation.#thisismelo#NBAAllStarNYCpic.twitter.com/jDungw33JR'
p5585
(lp5586
I1
aI1
asS'task'
p5587
(lp5588
I1
aI1
asS'support!@simonpegg@Bristol_CCGpic.twitter.com/xCDM2NDL9n'
p5589
(lp5590
I1
aI1
asS'mini,'
p5591
(lp5592
I1
aI1
asS'Almost'
p5593
(lp5594
I1
aI1
asS'Pale'
p5595
(lp5596
I1
aI1
asS'people.'
p5597
(lp5598
I2
aI2
asS'Ed'
p5599
(lp5600
I1
aI1
asS'@DogsTrustcan'
p5601
(lp5602
I1
aI1
asS'#NoraChattyis'
p5603
(lp5604
I1
aI1
asS'person'
p5605
(lp5606
I2
aI2
asS'cheer'
p5607
(lp5608
I1
aI1
asS'Week:'
p5609
(lp5610
I2
aI2
asS'organization'
p5611
(lp5612
I1
aI1
asS'Girl'
p5613
(lp5614
I1
aI1
asS'juices'
p5615
(lp5616
I1
aI1
asS'Family@russwest44@KDTrey5@sergeibaka9@nickcollison4I'
p5617
(lp5618
I1
aI1
asS'spend'
p5619
(lp5620
I1
aI1
asS'Karl'
p5621
(lp5622
I3
aI3
asS'ambassador'
p5623
(lp5624
I1
aI1
asS'Pegg'
p5625
(lp5626
I3
aI3
asS'a...http://bit.ly/1Bbopln&nbsp;'
p5627
(lp5628
I1
aI1
asS'world.pic.twitter.com/C3DiA2Gu7f'
p5629
(lp5630
I1
aI1
asS'with@andrewlquesada&#10;&#10;#bts#iphoneonlyhttps://instagram.com/p/0bTvfCzNeF/&nbsp;'
p5631
(lp5632
I1
aI1
asS'birthday@realmadridfor'
p5633
(lp5634
I1
aI1
asS'Morning!pic.twitter.com/hKZzPWQCLQ'
p5635
(lp5636
I1
aI1
asS'am.http://elizabethbanks.com/post/113454719635/tbt-remember-that-time-i-interviewed-this-badass&nbsp;'
p5637
(lp5638
I1
aI1
asS'2014@FueledByRamenHoliday'
p5639
(lp5640
I1
aI1
asS'Vamos@realmadrid!http://www.sportlobster.com/post/519641/tomorrow-well-face-elche-v.html&nbsp;pic.twitter.com/huR28N1hq7'
p5641
(lp5642
I1
aI1
asS'(Wed'
p5643
(lp5644
I1
aI1
asS'cleared.#TSIncident'
p5645
(lp5646
I4
aI4
asS'her@EducationShow#edshow15pic.twitter.com/OEZSqwRXyT'
p5647
(lp5648
I1
aI1
asS'(B722)'
p5649
(lp5650
I1
aI1
asS'Earth!pic.twitter.com/bYHopsYVPE'
p5651
(lp5652
I1
aI1
asS'sandal'
p5653
(lp5654
I1
aI1
asS'Hardenhttps://flic.kr/s/aHsk8YTdQ1&nbsp;pic.twitter.com/esbpR2Jujb'
p5655
(lp5656
I1
aI1
asS'tablet'
p5657
(lp5658
I2
aI2
asS'Disruption'
p5659
(lp5660
I1
aI1
asS'by@KevinMazurpic.twitter.com/uGctB8SAEZ'
p5661
(lp5662
I1
aI1
asS'tomorrow?pic.twitter.com/p7u1My2Nok'
p5663
(lp5664
I1
aI1
asS'to@CoachDruJoyceon'
p5665
(lp5666
I1
aI1
asS'more!pic.twitter.com/p5JKQVmFDJ'
p5667
(lp5668
I1
aI1
asS'bloghttp://bit.ly/1CcTKLa&nbsp;'
p5669
(lp5670
I2
aI2
asS'win'
p5671
(lp5672
I14
aI14
asS'Front'
p5673
(lp5674
I1
aI1
asS'Cakes,'
p5675
(lp5676
I1
aI1
asS'&#10;#DreamworksAnimationHOMEhttps://instagram.com/p/0ObkeNhMxU/&nbsp;'
p5677
(lp5678
I1
aI1
asS'excited'
p5679
(lp5680
I4
aI4
asS'harvesting'
p5681
(lp5682
I1
aI1
asS'On'
p5683
(lp5684
I3
aI3
asS'embroidery.#baselworld2015&#10;https://amp.twimg.com/v/da9f5534-e5fa-4876-9637-0d7c3565f4cf&nbsp;'
p5685
(lp5686
I1
aI1
asS'Welcoming'
p5687
(lp5688
I1
aI1
asS'doors'
p5689
(lp5690
I1
aI1
asS'emergency'
p5691
(lp5692
I1
aI1
asS'Did'
p5693
(lp5694
I3
aI3
asS'Of'
p5695
(lp5696
I1
aI1
asS'bid'
p5697
(lp5698
I1
aI1
asS'enough,https://instagram.com/p/0EPYgRTNYN/&nbsp;'
p5699
(lp5700
I1
aI1
asS'sightings'
p5701
(lp5702
I1
aI1
asS'Gordon'
p5703
(lp5704
I1
aI1
asS'&#10;Shot'
p5705
(lp5706
I1
aI1
asS'arrest.pic.twitter.com/hCPAjRnPsc'
p5707
(lp5708
I1
aI1
asS'game'
p5709
(lp5710
I6
aI5
asS'is#DeskfastDay!'
p5711
(lp5712
I1
aI1
asS'Classy'
p5713
(lp5714
I1
aI1
asS'tours,'
p5715
(lp5716
I1
aI1
asS'bit'
p5717
(lp5718
I3
aI3
asS'Or'
p5719
(lp5720
I2
aI2
asS'Fan?'
p5721
(lp5722
I1
aI1
asS'care!!!https://instagram.com/p/0TZKi3TNeC/&nbsp;'
p5723
(lp5724
I1
aI1
asS'Tweeps!'
p5725
(lp5726
I1
aI1
asS'panties'
p5727
(lp5728
I2
aI2
asS'success'
p5729
(lp5730
I1
aI1
asS'gratitude.'
p5731
(lp5732
I1
aI1
asS'With'
p5733
(lp5734
I2
aI2
asS'Show'
p5735
(lp5736
I1
aI1
asS'-30'
p5737
(lp5738
I1
aI1
asS'wit'
p5739
(lp5740
I1
aI1
asS'Beautifully'
p5741
(lp5742
I1
aI1
asS'timepieces'
p5743
(lp5744
I1
aI1
asS'(Plantation).'
p5745
(lp5746
I1
aI1
asS'visit:http://bit.ly/1BTzGLT&nbsp;'
p5747
(lp5748
I1
aI1
asS'scare'
p5749
(lp5750
I1
aI1
asS'didn&#39;t'
p5751
(lp5752
I1
aI1
asS'Guinness'
p5753
(lp5754
I1
aI1
asS'spring'
p5755
(lp5756
I1
aI1
asS'funded.'
p5757
(lp5758
I1
aI1
asS'some'
p5759
(lp5760
I12
aI12
asS'back'
p5761
(lp5762
I9
aI9
asS'home!http://ow.ly/KxLQO&nbsp;'
p5763
(lp5764
I1
aI1
asS'$27.'
p5765
(lp5766
I1
aI1
asS'33%'
p5767
(lp5768
I1
aI1
asS'ammo!#HappyFridayhttp://l.ctx.ly/r/y613&nbsp;pic.twitter.com/fXihjdnjiU'
p5769
(lp5770
I1
aI1
asS'Pumped!'
p5771
(lp5772
I2
aI2
asS'mirror'
p5773
(lp5774
I1
aI1
asS'Pumped.'
p5775
(lp5776
I1
aI1
asS'Hillhead'
p5777
(lp5778
I1
aI1
asS'pale'
p5779
(lp5780
I1
aI1
asS'to@AstroTerrytoday'
p5781
(lp5782
I1
aI1
asS'67-year-old'
p5783
(lp5784
I1
aI1
asS'HAPPY'
p5785
(lp5786
I2
aI2
asS'day@Jackpotjoy#TikiIsland#5Scatters#ThatWillDoNicely#Gamble#Slots#ThankYouxpic.twitter.com/cBsimCiFEg'
p5787
(lp5788
I1
aI1
asS'#scotrail-'
p5789
(lp5790
I1
aI1
asS'tomorrow&#39;s'
p5791
(lp5792
I1
aI1
asS'Fire'
p5793
(lp5794
I1
aI1
asS'per'
p5795
(lp5796
I1
aI1
asS'Albino'
p5797
(lp5798
I1
aI1
asS'stays'
p5799
(lp5800
I1
aI1
asS'pen'
p5801
(lp5802
I1
aI1
asS'you@RussellHobbsUKfor'
p5803
(lp5804
I1
aI1
asS'Nothing'
p5805
(lp5806
I1
aI1
asS'UPDATE:#Caldercruix.'
p5807
(lp5808
I4
aI4
asS'needs!@ChriselliOnline#W2U#Fashion'
p5809
(lp5810
I1
aI1
asS'be'
p5811
(lp5812
I38
aI37
asS'of@StationCDRKelly,'
p5813
(lp5814
I1
aI1
asS'Look'
p5815
(lp5816
I1
aI1
asS'Paddy&#39;s'
p5817
(lp5818
I2
aI2
asS'the@WhiteHousetoday#WHFilmFest#bosswoman#powerplaybook#ruletheworld&#10;https://amp.twimg.com/v/2d89a0e3-e198-4c98-84bf-a44553c7d58a&nbsp;'
p5819
(lp5820
I1
aI1
asS'girl@DT_BRIDGENDshe'
p5821
(lp5822
I1
aI1
asS'Times'
p5823
(lp5824
I2
aI2
asS'nowhere'
p5825
(lp5826
I1
aI1
asS'Stopping'
p5827
(lp5828
I1
aI1
asS'FOLLOW'
p5829
(lp5830
I2
aI2
asS'2/2'
p5831
(lp5832
I3
aI3
asS'daniel.ingram@guidedogs.org.uk'
p5833
(lp5834
I2
aI2
asS'commemorating#Selma50pic.twitter.com/vPQyPf4qf0'
p5835
(lp5836
I1
aI1
asS'vaccine'
p5837
(lp5838
I2
aI2
asS'Pack'
p5839
(lp5840
I1
aI1
asS'onhttp://chanel-news.com/-fall-winter-2015-16-rtw&nbsp;pic.twitter.com/Zy2wOBB25S'
p5841
(lp5842
I1
aI1
asS'Simple,'
p5843
(lp5844
I1
aI1
asS'IVF'
p5845
(lp5846
I1
aI1
asS'works'
p5847
(lp5848
I3
aI3
asS'working'
p5849
(lp5850
I1
aI1
asS'anything'
p5851
(lp5852
I3
aI3
asS'Scandalous'
p5853
(lp5854
I1
aI1
asS'am'
p5855
(lp5856
I2
aI2
asS'competition.'
p5857
(lp5858
I1
aI1
asS'I&#39;mhttps://instagram.com/p/0MKmB-CTHw/&nbsp;'
p5859
(lp5860
I1
aI1
asS'Future...'
p5861
(lp5862
I1
aI1
asS'new#Sheringhamgroup:'
p5863
(lp5864
I1
aI1
asS'forget:'
p5865
(lp5866
I1
aI1
asS'Yemeni'
p5867
(lp5868
I1
aI1
asS'There&#39;s'
p5869
(lp5870
I1
aI1
asS'incident.'
p5871
(lp5872
I1
aI1
asS'ppl'
p5873
(lp5874
I2
aI2
asS'seeing'
p5875
(lp5876
I2
aI2
asS'Simon'
p5877
(lp5878
I6
aI6
asS'style:http://vogue.cm/1MVYBQL&nbsp;pic.twitter.com/iKobVaJLWo'
p5879
(lp5880
I1
aI1
asS'Dundee'
p5881
(lp5882
I1
aI1
asS'a&quot;Good'
p5883
(lp5884
I1
aI1
asS'into'
p5885
(lp5886
I5
aI5
asS'Patrick&#39;s'
p5887
(lp5888
I3
aI3
asS'Young'
p5889
(lp5890
I1
aI1
asS'today:'
p5891
(lp5892
I1
aI1
asS'Guestshttp://www.twitch.tv/rockstargames&nbsp;(Sorry'
p5893
(lp5894
I1
aI1
asS'Everything'
p5895
(lp5896
I1
aI1
asS'momma'
p5897
(lp5898
I1
aI1
asS'Speech'
p5899
(lp5900
I1
aI1
asS'NEW'
p5901
(lp5902
I7
aI7
asS'lesson'
p5903
(lp5904
I2
aI2
asS'sports'
p5905
(lp5906
I1
aI1
asS'withhttps://instagram.com/p/z6TtFRBM64/&nbsp;'
p5907
(lp5908
I1
aI1
asS'(our'
p5909
(lp5910
I1
aI1
asS'Clasico'
p5911
(lp5912
I1
aI1
asS'@hollyrpeete:'
p5913
(lp5914
I1
aI1
asS'treated'
p5915
(lp5916
I2
aI2
asS'question'
p5917
(lp5918
I2
aI2
asS'long'
p5919
(lp5920
I1
aI1
asS'custom'
p5921
(lp5922
I1
aI1
asS'u.'
p5923
(lp5924
I1
aI1
asS'Every'
p5925
(lp5926
I4
aI4
asS'soles:http://vogue.cm/1MUkAay&nbsp;'
p5927
(lp5928
I1
aI1
asS'homemade'
p5929
(lp5930
I1
aI1
asS'suit'
p5931
(lp5932
I1
aI1
asS'forward'
p5933
(lp5934
I2
aI2
asS'J15'
p5935
(lp5936
I3
aI3
asS'Come'
p5937
(lp5938
I4
aI4
asS'J13'
p5939
(lp5940
I1
aI1
asS'Editions#ThisIsMelopic.twitter.com/gGZxEn7O0H'
p5941
(lp5942
I1
aI1
asS'11th)#BeAwarepic.twitter.com/vASRom3fLE'
p5943
(lp5944
I1
aI1
asS'SALE!http://bit.ly/1BM69T1&nbsp;#StPatricksDay#FlashSalepic.twitter.com/EgILtroSOs'
p5945
(lp5946
I1
aI1
asS'Details'
p5947
(lp5948
I1
aI1
asS'poster'
p5949
(lp5950
I1
aI1
asS'Watches2u'
p5951
(lp5952
I1
aI1
asS't-shirt'
p5953
(lp5954
I2
aI1
asS'thathttps://instagram.com/p/0LVDWGTNcP/&nbsp;'
p5955
(lp5956
I1
aI1
asS'link'
p5957
(lp5958
I2
aI2
asS'Vita:http://bit.ly/1BZXNIH&nbsp;Campaign,'
p5959
(lp5960
I1
aI1
asS'Switzerland'
p5961
(lp5962
I1
aI1
asS'OKC!!@GreciaaSalas'
p5963
(lp5964
I1
aI1
asS'Tourney'
p5965
(lp5966
I1
aI1
asS'deployed'
p5967
(lp5968
I1
aI1
asS'posted'
p5969
(lp5970
I9
aI9
asS'info'
p5971
(lp5972
I5
aI5
asS'our#W2U#MothersDay#GIVEAWAY!'
p5973
(lp5974
I1
aI1
asS'athttp://i.imgur.com/VQPKhfU.png&nbsp;pic.twitter.com/JlLPobiVN8'
p5975
(lp5976
I1
aI1
asS'Office'
p5977
(lp5978
I1
aI1
asS'Bell'
p5979
(lp5980
I2
aI2
asS'Awesome'
p5981
(lp5982
I2
aI2
asS'up'
p5983
(lp5984
I16
aI16
asS'us'
p5985
(lp5986
I20
aI20
asS'ur'
p5987
(lp5988
I1
aI1
asS'RTC,'
p5989
(lp5990
I1
aI1
asS'customers'
p5991
(lp5992
I1
aI1
asS'this.'
p5993
(lp5994
I2
aI2
asS'Florence'
p5995
(lp5996
I1
aI1
asS'called'
p5997
(lp5998
I1
aI1
asS'wearing@SMSAudiopic.twitter.com/ULJNeZeHG3'
p5999
(lp6000
I1
aI1
asS'Diggins'
p6001
(lp6002
I1
aI1
asS'v'
p6003
(lp6004
I1
aI1
asS'up.https://flic.kr/s/aHsk8C12JU&nbsp;pic.twitter.com/lQUK78bAkE'
p6005
(lp6006
I1
aI1
asS'Wow!@HTCgets'
p6007
(lp6008
I1
aI1
asS'visit:'
p6009
(lp6010
I1
aI1
asS'chai'
p6011
(lp6012
I1
aI1
asS'gales.'
p6013
(lp6014
I1
aI1
asS'Arizona.pic.twitter.com/AY4gz5OYV3'
p6015
(lp6016
I1
aI1
asS'lovely'
p6017
(lp6018
I2
aI2
asS'measure!https://cards.twitter.com/cards/18ce53ung4j/don5&nbsp;'
p6019
(lp6020
I1
aI1
asS'single'
p6021
(lp6022
I1
aI1
asS'warning'
p6023
(lp6024
I1
aI1
asS'Twins'
p6025
(lp6026
I1
aI1
asS'developedhttp://bbc.in/1B8y2B6&nbsp;'
p6027
(lp6028
I1
aI1
asS'chat'
p6029
(lp6030
I1
aI1
asS'New'
p6031
(lp6032
I3
aI3
asS'harpersbazaarcn'
p6033
(lp6034
I1
aI1
asS'way!@KingJames@KyrieIrving@RealTristan13@kevinlove@MikeMiller_13@TheRealJRSmith@I_Am_Iman!#Cavs'
p6035
(lp6036
I1
aI1
asS'today!#Fashion#Style#W2U'
p6037
(lp6038
I1
aI1
asS'journalists'
p6039
(lp6040
I1
aI1
asS'Winhttp://jpjoy.co/ZzEZxH&nbsp;'
p6041
(lp6042
I1
aI1
asS'Mar'
p6043
(lp6044
I2
aI2
asS'visithttp://www.headcount.org&nbsp;pic.twitter.com/Rv3BLfIB4R'
p6045
(lp6046
I1
aI1
asS'Sun&quot;!!'
p6047
(lp6048
I1
aI1
asS'TV'
p6049
(lp6050
I2
aI2
asS'Max'
p6051
(lp6052
I1
aI1
asS'Closure,'
p6053
(lp6054
I2
aI2
asS'points'
p6055
(lp6056
I1
aI1
asS'A706'
p6057
(lp6058
I1
aI1
asS'tech'
p6059
(lp6060
I3
aI3
asS'stunning@JasTookesmakes'
p6061
(lp6062
I1
aI1
asS'Man'
p6063
(lp6064
I4
aI4
asS'Breakdown'
p6065
(lp6066
I1
aI1
asS'Box'
p6067
(lp6068
I1
aI1
asS'confidence.pic.twitter.com/WB9gPgVccJ'
p6069
(lp6070
I1
aI1
asS'on#M8through'
p6071
(lp6072
I1
aI1
asS'The#BBunchare'
p6073
(lp6074
I1
aI1
asS'favourite'
p6075
(lp6076
I3
aI3
asS'AM'
p6077
(lp6078
I2
aI2
asS'new#OfficialAudioStreamingChartNo.1!'
p6079
(lp6080
I1
aI1
asS'helping'
p6081
(lp6082
I1
aI1
asS'Making'
p6083
(lp6084
I1
aI1
asS'March&#39;s@NerdBlockClassic!http://www.nerdblock.com/r/Simonpegg&nbsp;'
p6085
(lp6086
I1
aI1
asS'humbling,'
p6087
(lp6088
I1
aI1
asS'ago'
p6089
(lp6090
I2
aI2
asS'here:http://bit.ly/rtvFun&nbsp;@HeadCountOrg#CelebrateNVRDpic.twitter.com/4XUnnDmc06'
p6091
(lp6092
I1
aI1
asS'jabhttp://bbc.in/1AD6cxG&nbsp;'
p6093
(lp6094
I1
aI1
asS'O&#39;B...http://bit.ly/1GB9t4E&nbsp;'
p6095
(lp6096
I1
aI1
asS'duopoly'
p6097
(lp6098
I1
aI1
asS'age'
p6099
(lp6100
I1
aI1
asS'An'
p6101
(lp6102
I4
aI4
asS'As'
p6103
(lp6104
I1
aI1
asS'train'
p6105
(lp6106
I8
aI7
asS'the@allycoalitiontalent'
p6107
(lp6108
I1
aI1
asS'memories'
p6109
(lp6110
I2
aI2
asS'fresh'
p6111
(lp6112
I1
aI1
asS'W/B'
p6113
(lp6114
I1
aI1
asS'hello'
p6115
(lp6116
I1
aI1
asS'once'
p6117
(lp6118
I1
aI1
asS'Luxe'
p6119
(lp6120
I1
aI1
asS'Lecturers'
p6121
(lp6122
I2
aI1
asS'Feeding'
p6123
(lp6124
I1
aI1
asS'ET.pic.twitter.com/GJuWtN79Or'
p6125
(lp6126
I1
aI1
asS'bedroom?'
p6127
(lp6128
I1
aI1
asS'with@edbaigyesterday'
p6129
(lp6130
I1
aI1
asS'thanks@RockstarGamesfor'
p6131
(lp6132
I1
aI1
asS'degrees.pic.twitter.com/ueX8FMzdae'
p6133
(lp6134
I1
aI1
asS'prize!#W2U#W2UWin#MothersDay#Watches'
p6135
(lp6136
I1
aI1
asS'go'
p6137
(lp6138
I5
aI5
asS'gossip'
p6139
(lp6140
I1
aI1
asS'22,220'
p6141
(lp6142
I1
aI1
asS'lineside'
p6143
(lp6144
I1
aI1
asS'Corporate'
p6145
(lp6146
I1
aI1
asS'blood,'
p6147
(lp6148
I1
aI1
asS'Launching'
p6149
(lp6150
I1
aI1
asS'Hydro'
p6151
(lp6152
I1
aI1
asS'Tuesday.'
p6153
(lp6154
I1
aI1
asS'#M9also'
p6155
(lp6156
I1
aI1
asS'Hooray!'
p6157
(lp6158
I1
aI1
asS'7/$27'
p6159
(lp6160
I1
aI1
asS'support#talkingbuses?'
p6161
(lp6162
I1
aI1
asS'1881!'
p6163
(lp6164
I1
aI1
asS'mosque'
p6165
(lp6166
I1
aI1
asS'Lucky'
p6167
(lp6168
I1
aI1
asS'Award'
p6169
(lp6170
I1
aI1
asS'Payne'
p6171
(lp6172
I1
aI1
asS'Step'
p6173
(lp6174
I1
aI1
asS'ware@RussellHobbsUKred'
p6175
(lp6176
I1
aI1
asS'position,'
p6177
(lp6178
I1
aI1
asS'Earrings!pic.twitter.com/hMo4TBgV#competition'
p6179
(lp6180
I1
aI1
asS'Not'
p6181
(lp6182
I2
aI2
asS'sponsoring'
p6183
(lp6184
I2
aI2
asS'Now'
p6185
(lp6186
I2
aI2
asS'Instagrams'
p6187
(lp6188
I1
aI1
asS'sent'
p6189
(lp6190
I2
aI2
asS'xx47'
p6191
(lp6192
I2
aI2
asS'Flash'
p6193
(lp6194
I1
aI1
asS'saying'
p6195
(lp6196
I1
aI1
asS'nights@AboveandBeyondconcert'
p6197
(lp6198
I1
aI1
asS'outside'
p6199
(lp6200
I2
aI2
asS'reopened'
p6201
(lp6202
I1
aI1
asS'T-Mobile&#39;s'
p6203
(lp6204
I1
aI1
asS'^Ava'
p6205
(lp6206
I2
aI2
asS'station,'
p6207
(lp6208
I1
aI1
asS'putting'
p6209
(lp6210
I1
aI1
asS'accessory'
p6211
(lp6212
I1
aI1
asS'drinking'
p6213
(lp6214
I1
aI1
asS'featuring@MadMaxMovieUK,@EmWatson,@HayleyAtwelland@simonpegg!http://www.gamesradar.com/total-film-latest-issue/&nbsp;pic.twitter.com/YoVhAKxj9Y'
p6215
(lp6216
I1
aI1
asS'i&#39;m'
p6217
(lp6218
I1
aI1
asS'Enjoy'
p6219
(lp6220
I1
aI1
asS'Instagram,'
p6221
(lp6222
I1
aI1
asS'Scotlandhttp://www.heraldscotland.com/news/home-news/partially-sighted-man-in-new-plea-for-missing-guide-dog.24993186&nbsp;via@hsnewsbreak'
p6223
(lp6224
I1
aI1
asS'literary'
p6225
(lp6226
I1
aI1
asS'gettin'
p6227
(lp6228
I1
aI1
asS'try'
p6229
(lp6230
I5
aI5
asS'flattered,@jimcramer!'
p6231
(lp6232
I1
aI1
asS'ONLY'
p6233
(lp6234
I1
aI1
asS'crafty'
p6235
(lp6236
I1
aI1
asS'week&#39;s'
p6237
(lp6238
I1
aI1
asS'dealt'
p6239
(lp6240
I1
aI1
asS'language:'
p6241
(lp6242
I1
aI1
asS'@mummyandrea@davidvittymillion'
p6243
(lp6244
I1
aI1
asS'J27http://trafficscotland.org/currentincidents/&nbsp;'
p6245
(lp6246
I1
aI1
asS'understanding.#edintravel'
p6247
(lp6248
I1
aI1
asS'us,'
p6249
(lp6250
I2
aI2
asS'pants,'
p6251
(lp6252
I1
aI1
asS'safe.'
p6253
(lp6254
I1
aI1
asS'FRIDAY'
p6255
(lp6256
I1
aI1
asS'THIS.#SecretRewardshttp://i.victoria.com/J1U&nbsp;pic.twitter.com/hguNaZHHg8'
p6257
(lp6258
I1
aI1
asS'place...http://l.ctx.ly/r/xza2&nbsp;pic.twitter.com/8twHZdyBqZ'
p6259
(lp6260
I1
aI1
asS'two-tone'
p6261
(lp6262
I1
aI1
asS'video'
p6263
(lp6264
I10
aI10
asS'traveling'
p6265
(lp6266
I1
aI1
asS'Goldie@guidedogsis'
p6267
(lp6268
I1
aI1
asS'met#ChenMan&#10;Hair'
p6269
(lp6270
I1
aI1
asS'believes'
p6271
(lp6272
I1
aI1
asS'limited-edition'
p6273
(lp6274
I1
aI1
asS'Transformation'
p6275
(lp6276
I1
aI1
asS'cope,'
p6277
(lp6278
I1
aI1
asS'that.'
p6279
(lp6280
I1
aI1
asS'3x'
p6281
(lp6282
I1
aI1
asS'plays'
p6283
(lp6284
I2
aI2
asS'.@KevinHart4Realknows!'
p6285
(lp6286
I1
aI1
asS'giving'
p6287
(lp6288
I1
aI1
asS'(18+)'
p6289
(lp6290
I1
aI1
asS'@edintravel@BBCTravelScot@trafficscotland@EdinTrafficcraigmiller'
p6291
(lp6292
I1
aI1
asS'celebratehttp://bit.ly/1FuVUFd&nbsp;pic.twitter.com/HZPP0qkAdF'
p6293
(lp6294
I1
aI1
asS'of@LifeIsStrangelaunches'
p6295
(lp6296
I1
aI1
asS'Boys'
p6297
(lp6298
I1
aI1
asS'artistshttp://l.ctx.ly/r/y59y&nbsp;pic.twitter.com/F5JDwuSUpg'
p6299
(lp6300
I1
aI1
asS'capital'
p6301
(lp6302
I1
aI1
asS'see-saw'
p6303
(lp6304
I1
aI1
asS'body'
p6305
(lp6306
I1
aI1
asS'servants'
p6307
(lp6308
I1
aI1
asS'50th'
p6309
(lp6310
I1
aI1
asS'Win!!!!#Cavs'
p6311
(lp6312
I1
aI1
asS'beasts'
p6313
(lp6314
I1
aI1
asS'DAILY#GIVEAWAY!#WINwith'
p6315
(lp6316
I1
aI1
asS'new#Cromergroup:'
p6317
(lp6318
I1
aI1
asS'Restaurantpic.twitter.com/VdpL6ydbXQ'
p6319
(lp6320
I1
aI1
asS'growing'
p6321
(lp6322
I1
aI1
asS'explore'
p6323
(lp6324
I1
aI1
asS'new#GTAOnlineAdversary'
p6325
(lp6326
I1
aI1
asS'let'
p6327
(lp6328
I2
aI1
asS'making'
p6329
(lp6330
I1
aI1
asS'lovely,'
p6331
(lp6332
I1
aI1
asS'again,'
p6333
(lp6334
I1
aI1
asS'great'
p6335
(lp6336
I4
aI4
asS'Elgin'
p6337
(lp6338
I1
aI1
asS'US/PR'
p6339
(lp6340
I1
aI1
asS'of#CyclonePam:http://rdcrss.org/mPam&nbsp;'
p6341
(lp6342
I1
aI1
asS'credits'
p6343
(lp6344
I1
aI1
asS'involved'
p6345
(lp6346
I2
aI2
asS'30'
p6347
(lp6348
I3
aI3
asS'spiced'
p6349
(lp6350
I1
aI1
asS'Back'
p6351
(lp6352
I1
aI1
asS'visuals,'
p6353
(lp6354
I1
aI1
asS'later'
p6355
(lp6356
I1
aI1
asS'emergency#BePrepared#StaySafe'
p6357
(lp6358
I1
aI1
asS'read:http://www.nfumutual.co.uk/personal/insurance/Guidance-and-tools/Insurance-articles/pet-articles/new-dog-info/&nbsp;pic.twitter.com/TIzyOHVWZk'
p6359
(lp6360
I1
aI1
asS'products'
p6361
(lp6362
I2
aI2
asS'for#TheConservativeshttps://instagram.com/p/0ECjPwzNW-/&nbsp;'
p6363
(lp6364
I1
aI1
asS'submerged'
p6365
(lp6366
I1
aI1
asS'43@StationCDRKelly,'
p6367
(lp6368
I1
aI1
asS'play.'
p6369
(lp6370
I1
aI1
asS'climb'
p6371
(lp6372
I1
aI1
asS'Chat,'
p6373
(lp6374
I1
aI1
asS'makes'
p6375
(lp6376
I3
aI3
asS'honor'
p6377
(lp6378
I1
aI1
asS'Staff'
p6379
(lp6380
I1
aI1
asS'Mountain'
p6381
(lp6382
I1
aI1
asS'directionshttp://trafficscotland.org/currentincidents/details.aspx?id=c86226&amp;Sort=IsNotHaIncident%2cStartTime&amp;Direction=Descending&amp;PS=10&amp;PI=0&nbsp;'
p6383
(lp6384
I1
aI1
asS'scenes#iphonesnap'
p6385
(lp6386
I1
aI1
asS'FW'
p6387
(lp6388
I1
aI1
asS'The#Soyuzspacecraft'
p6389
(lp6390
I1
aI1
asS'app'
p6391
(lp6392
I1
aI1
asS'UPDATE*'
p6393
(lp6394
I1
aI1
asS'Steel???#Zoolander2http://elizabethbanks.com/post/113367225395/okay-but-have-either-of-them-ever-wondered-if&nbsp;'
p6395
(lp6396
I1
aI1
asS'diversion'
p6397
(lp6398
I1
aI1
asS'Photos:'
p6399
(lp6400
I1
aI1
asS'With?'
p6401
(lp6402
I1
aI1
asS'covered:http://rdcrss.org/1stAidApp&nbsp;#Firstaidapp#FerrellTakesTheField'
p6403
(lp6404
I1
aI1
asS'names'
p6405
(lp6406
I1
aI1
asS'balanced.'
p6407
(lp6408
I1
aI1
asS'new@SOPHIAWEBSTERwedding'
p6409
(lp6410
I1
aI1
asS'1/9:'
p6411
(lp6412
I1
aI1
asS'UPDATE:'
p6413
(lp6414
I2
aI2
asS'fit.'
p6415
(lp6416
I1
aI1
asS'is...bet'
p6417
(lp6418
I1
aI1
asS'excited.#tbt&#10;https://amp.twimg.com/v/5171152b-b1cb-4e61-99ac-f8dff83d0a82&nbsp;'
p6419
(lp6420
I1
aI1
asS'use'
p6421
(lp6422
I3
aI3
asS'from'
p6423
(lp6424
I44
aI44
asS'figure'
p6425
(lp6426
I1
aI1
asS'to@REC_Detroitby'
p6427
(lp6428
I1
aI1
asS'with@ohsnapjbsmoove&amp;'
p6429
(lp6430
I1
aI1
asS'help@REC_Detroitstay'
p6431
(lp6432
I1
aI1
asS'before@SenTedCruz&#39;s'
p6433
(lp6434
I1
aI1
asS'next'
p6435
(lp6436
I3
aI3
asS'few'
p6437
(lp6438
I5
aI5
asS'&#10;@crist_makeupart&#10;&#10;#TamraD&#10;#BodyByTamrahttps://instagram.com/p/0Bv5igTNZq/&nbsp;'
p6439
(lp6440
I1
aI1
asS'OKC!'
p6441
(lp6442
I1
aI1
asS'vehicle'
p6443
(lp6444
I3
aI3
asS'timetable'
p6445
(lp6446
I1
aI1
asS'means'
p6447
(lp6448
I1
aI1
asS'congestion#BeAware#StaySafepic.twitter.com/832jRRqUCO'
p6449
(lp6450
I1
aI1
asS'DAILY#GIVEAWAYTIME!'
p6451
(lp6452
I1
aI1
asS'made.#OwnTheBeachhttp://i.victoria.com/I1l&nbsp;pic.twitter.com/10cqPJk2qd'
p6453
(lp6454
I1
aI1
asS'1/2'
p6455
(lp6456
I3
aI3
asS'started'
p6457
(lp6458
I1
aI1
asS'Jack'
p6459
(lp6460
I1
aI1
asS'2015#kumhosweepswinners.#NBAAllStarNYCpic.twitter.com/9LLJVDalPx'
p6461
(lp6462
I1
aI1
asS'@annecrawshaw53'
p6463
(lp6464
I1
aI1
asS'Sacai'
p6465
(lp6466
I1
aI1
asS'Sco'
p6467
(lp6468
I1
aI1
asS'next:http://bit.ly/1HbLOHW&nbsp;pic.twitter.com/19DEfLR2bI'
p6469
(lp6470
I1
aI1
asS'toohttp://withsyria.com&nbsp;@oxfamgb'
p6471
(lp6472
I1
aI1
asS'the#bedogsmartcampaign@DogsTrust-'
p6473
(lp6474
I1
aI1
asS'Trains'
p6475
(lp6476
I4
aI4
asS'baby'
p6477
(lp6478
I1
aI1
asS'rare'
p6479
(lp6480
I2
aI2
asS'departure'
p6481
(lp6482
I1
aI1
asS'Sanaa'
p6483
(lp6484
I1
aI1
asS'Buster@DT_Shorehamis'
p6485
(lp6486
I1
aI1
asS'customer'
p6487
(lp6488
I2
aI2
asS'account'
p6489
(lp6490
I1
aI1
asS'animals'
p6491
(lp6492
I1
aI1
asS'Nate,'
p6493
(lp6494
I1
aI1
asS'this'
p6495
(lp6496
I46
aI44
asS'read:http://www.nfumutual.co.uk/personal/insurance/Guidance-and-tools/Insurance-articles/pet-articles/new-dog-info/&nbsp;pic.twitter.com/MiXVH7jN4S'
p6497
(lp6498
I1
aI1
asS'Tablet-a-day'
p6499
(lp6500
I1
aI1
asS'0800'
p6501
(lp6502
I1
aI1
asS'in#Syria:http://rdcrss.org/syria4&nbsp;#RedforSyriapic.twitter.com/yn32WYrsbj'
p6503
(lp6504
I1
aI1
asS'prompts'
p6505
(lp6506
I1
aI1
asS'#Winthis'
p6507
(lp6508
I1
aI1
asS'ch4'
p6509
(lp6510
I1
aI1
asS'faceplates'
p6511
(lp6512
I1
aI1
asS'#scotrail07:49'
p6513
(lp6514
I1
aI1
asS'meet'
p6515
(lp6516
I2
aI2
asS'to#win!'
p6517
(lp6518
I1
aI1
asS'sexy.#HeatThingsUphttp://i.victoria.com/HG1&nbsp;pic.twitter.com/Z9QxbpYbUe'
p6519
(lp6520
I1
aI1
asS'control'
p6521
(lp6522
I1
aI1
asS'streamed'
p6523
(lp6524
I1
aI1
asS'Police'
p6525
(lp6526
I2
aI2
asS'owners.'
p6527
(lp6528
I1
aI1
asS'social-first'
p6529
(lp6530
I1
aI1
asS'nerds,'
p6531
(lp6532
I1
aI1
asS'Mr.'
p6533
(lp6534
I1
aI1
asS'holiday!http://l.ctx.ly/r/y337&nbsp;pic.twitter.com/WYl7yEXvlG'
p6535
(lp6536
I1
aI1
asS'something'
p6537
(lp6538
I1
aI1
asS'tab'
p6539
(lp6540
I1
aI1
asS'this...'
p6541
(lp6542
I1
aI1
asS'wonderful'
p6543
(lp6544
I2
aI2
asS'tan'
p6545
(lp6546
I1
aI1
asS'Lovely'
p6547
(lp6548
I1
aI1
asS'trumpet'
p6549
(lp6550
I1
aI1
asS'Christmas'
p6551
(lp6552
I1
aI1
asS'Mark!'
p6553
(lp6554
I1
aI1
asS'HUGE'
p6555
(lp6556
I2
aI2
asS'Hotel#YearInSpacehttps://flic.kr/s/aHsk8quHEE&nbsp;pic.twitter.com/KYvOiIVvs0'
p6557
(lp6558
I1
aI1
asS'memorize'
p6559
(lp6560
I1
aI1
asS'LIVE:http://twitch.tv/rockstargames&nbsp;Playing'
p6561
(lp6562
I1
aI1
asS'holds'
p6563
(lp6564
I1
aI1
asS'winners'
p6565
(lp6566
I1
aI1
asS'Getting'
p6567
(lp6568
I2
aI2
asS'&quot;DROP'
p6569
(lp6570
I1
aI1
asS'comedy'
p6571
(lp6572
I1
aI1
asS'by@ZAGGdaily:'
p6573
(lp6574
I1
aI1
asS'stand'
p6575
(lp6576
I1
aI1
asS'express'
p6577
(lp6578
I1
aI1
asS'attend'
p6579
(lp6580
I1
aI1
asS'hesitate'
p6581
(lp6582
I1
aI1
asS'director,'
p6583
(lp6584
I1
aI1
asS'Stirling'
p6585
(lp6586
I1
aI1
asS'collection'
p6587
(lp6588
I2
aI2
asS'Mrs'
p6589
(lp6590
I1
aI1
asS'purpose.'
p6591
(lp6592
I1
aI1
asS'dealhttp://bbc.in/1Hfvw4e&nbsp;'
p6593
(lp6594
I1
aI1
asS'traffic.'
p6595
(lp6596
I1
aI1
asS'Wines&#10;&#10;Sunday'
p6597
(lp6598
I1
aI1
asS'Woman,'
p6599
(lp6600
I1
aI1
asS'T&amp;C&#39;s'
p6601
(lp6602
I1
aI1
asS'eclipse?#eclipse2015pic.twitter.com/6FXZGsumEO'
p6603
(lp6604
I1
aI1
asS'bombers'
p6605
(lp6606
I1
aI1
asS'22nd'
p6607
(lp6608
I1
aI1
asS'Sunday,'
p6609
(lp6610
I1
aI1
asS'weather.http://www.sportlobster.com/post/529806/good-morning-leaving-for-tra.html&nbsp;pic.twitter.com/Rtqmc3uRV4'
p6611
(lp6612
I1
aI1
asS'lines'
p6613
(lp6614
I1
aI1
asS'One'
p6615
(lp6616
I6
aI6
asS'fun.&#39;s'
p6617
(lp6618
I1
aI1
asS'Weather'
p6619
(lp6620
I1
aI1
asS'Nenet'
p6621
(lp6622
I1
aI1
asS'queen??http://l.ctx.ly/r/xyxv&nbsp;pic.twitter.com/V0hKGC5CJp'
p6623
(lp6624
I1
aI1
asS'necklace'
p6625
(lp6626
I1
aI1
asS'looking'
p6627
(lp6628
I10
aI10
asS'Kanye&#39;s'
p6629
(lp6630
I1
aI1
asS'longest'
p6631
(lp6632
I1
aI1
asS'hat!#W2U#WIN#Competition'
p6633
(lp6634
I1
aI1
asS'Who'
p6635
(lp6636
I2
aI2
asS'Raise'
p6637
(lp6638
I1
aI1
asS'Blogcast:http://bit.ly/1xDwkr8&nbsp;pic.twitter.com/ER7cX5U8GL'
p6639
(lp6640
I1
aI1
asS'move'
p6641
(lp6642
I1
aI1
asS'2017.'
p6643
(lp6644
I2
aI2
asS'Stepps'
p6645
(lp6646
I1
aI1
asS'making.'
p6647
(lp6648
I1
aI1
asS'looks'
p6649
(lp6650
I1
aI1
asS'WITH'
p6651
(lp6652
I1
aI1
asS'Final'
p6653
(lp6654
I1
aI1
asS'bunch'
p6655
(lp6656
I1
aI1
asS'perfect'
p6657
(lp6658
I1
aI1
asS'Animal'
p6659
(lp6660
I1
aI1
asS'extinctpic.twitter.com/y2uwi5GU6F'
p6661
(lp6662
I1
aI1
asS'...http://bit.ly/1xLD0Uf&nbsp;'
p6663
(lp6664
I1
aI1
asS'No'
p6665
(lp6666
I2
aI2
asS'sunday'
p6667
(lp6668
I1
aI1
asS'the@RockstarGamestwitch'
p6669
(lp6670
I1
aI1
asS'Thanks.'
p6671
(lp6672
I2
aI2
asS'Giamatti.'
p6673
(lp6674
I1
aI1
asS'degrees'
p6675
(lp6676
I2
aI2
asS'yesterdays'
p6677
(lp6678
I1
aI1
asS'inspecting'
p6679
(lp6680
I1
aI1
asS'2015'
p6681
(lp6682
I6
aI6
asS'Birthday@twitter!'
p6683
(lp6684
I1
aI1
asS'holiday'
p6685
(lp6686
I1
aI1
asS'world.'
p6687
(lp6688
I2
aI2
asS'Thanks!'
p6689
(lp6690
I1
aI1
asS'Airbles'
p6691
(lp6692
I1
aI1
asS'Loved'
p6693
(lp6694
I1
aI1
asS'designs'
p6695
(lp6696
I1
aI1
asS'greater'
p6697
(lp6698
I1
aI1
asS'-http://fburls.com/63-xToFzgdW&nbsp;'
p6699
(lp6700
I1
aI1
asS'My@ninasmakeupis'
p6701
(lp6702
I1
aI1
asS'Bathgate'
p6703
(lp6704
I3
aI3
asS'Lamar&#39;s'
p6705
(lp6706
I1
aI1
asS'earn'
p6707
(lp6708
I3
aI3
asS'dat'
p6709
(lp6710
I1
aI1
asS'launch.#YearInSpacehttps://flic.kr/s/aHsk8quHEE&nbsp;pic.twitter.com/HFlXjA5FLO'
p6711
(lp6712
I1
aI1
asS'Pre-order'
p6713
(lp6714
I1
aI1
asS'Mother'
p6715
(lp6716
I1
aI1
asS'front'
p6717
(lp6718
I1
aI1
asS'Pls#follow#RT'
p6719
(lp6720
I1
aI1
asS'fled'
p6721
(lp6722
I1
aI1
asS'inFAMOUS'
p6723
(lp6724
I1
aI1
asS'fabulous@fashionfoiegrasCheck'
p6725
(lp6726
I1
aI1
asS'Summer'
p6727
(lp6728
I1
aI1
asS'San'
p6729
(lp6730
I1
aI1
asS'More!@StationCDRKelly,'
p6731
(lp6732
I1
aI1
asS'to@TMobileor'
p6733
(lp6734
I1
aI1
asS'in#Brightonis'
p6735
(lp6736
I1
aI1
asS'weather'
p6737
(lp6738
I3
aI3
asS'mode'
p6739
(lp6740
I1
aI1
asS'dog@therealjrsmithafter'
p6741
(lp6742
I1
aI1
asS'|'
p6743
(lp6744
I3
aI3
asS'Sat'
p6745
(lp6746
I1
aI1
asS'Pinteresthttp://l.ctx.ly/r/y4bq&nbsp;#DrWhopic.twitter.com/HcXKHtiJJF'
p6747
(lp6748
I1
aI1
asS'@domisatwitim'
p6749
(lp6750
I1
aI1
asS'puppy?'
p6751
(lp6752
I2
aI2
asS'From'
p6753
(lp6754
I3
aI3
asS';-)pic.twitter.com/8FobwVOzmW'
p6755
(lp6756
I1
aI1
asS'doing'
p6757
(lp6758
I2
aI2
asS'product'
p6759
(lp6760
I1
aI1
asS'J1'
p6761
(lp6762
I2
aI2
asS'Wolverine'
p6763
(lp6764
I1
aI1
asS'88'
p6765
(lp6766
I1
aI1
asS'Which'
p6767
(lp6768
I3
aI3
asS'our'
p6769
(lp6770
I51
aI47
asS'Cleaner!'
p6771
(lp6772
I1
aI1
asS'couldnt'
p6773
(lp6774
I1
aI1
asS'special'
p6775
(lp6776
I8
aI8
asS'out'
p6777
(lp6778
I30
aI30
asS'clinching'
p6779
(lp6780
I1
aI1
asS'today:http://bit.ly/1H7ncUd&nbsp;#Care4Travel'
p6781
(lp6782
I1
aI1
asS'Festive'
p6783
(lp6784
I1
aI1
asS'Very'
p6785
(lp6786
I1
aI1
asS'res'
p6787
(lp6788
I1
aI1
asS'Highland'
p6789
(lp6790
I1
aI1
asS'had#CheckItOutathttp://www.cr7footwear.com&nbsp;&#10;https://www.youtube.com/watch?v=o3RRDLqhoOg&nbsp;'
p6791
(lp6792
I1
aI1
asS'from#Exp42#Soyuzlanding'
p6793
(lp6794
I1
aI1
asS'chat.'
p6795
(lp6796
I1
aI1
asS'China'
p6797
(lp6798
I1
aI1
asS'3-14-15'
p6799
(lp6800
I1
aI1
asS'following!'
p6801
(lp6802
I1
aI1
asS'it@TMobileany'
p6803
(lp6804
I1
aI1
asS'smog'
p6805
(lp6806
I1
aI1
asS'chat,'
p6807
(lp6808
I1
aI1
asS'cause'
p6809
(lp6810
I1
aI1
asS'out!http://i.victoria.com/EZR&nbsp;pic.twitter.com/qQhz7PdN7I'
p6811
(lp6812
I1
aI1
asS'Airdrie-Bathgate.'
p6813
(lp6814
I1
aI1
asS'weekend,'
p6815
(lp6816
I1
aI1
asS'9am-11:30am'
p6817
(lp6818
I1
aI1
asS'in#northeastmappedhttp://www.chroniclelive.co.uk/news/local-news/north-east-weather-coldest-place-8281354&nbsp;pic.twitter.com/05383kQZSE'
p6819
(lp6820
I1
aI1
asS'relate.'
p6821
(lp6822
I1
aI1
asS'This'
p6823
(lp6824
I10
aI10
asS'delays.'
p6825
(lp6826
I1
aI1
asS'the#JapanEarthquake,#RedCrosscontinues'
p6827
(lp6828
I1
aI1
asS'to#WINnow!#W2Upic.twitter.com/F9e26P6FCM'
p6829
(lp6830
I1
aI1
asS'minute,'
p6831
(lp6832
I1
aI1
asS'york'
p6833
(lp6834
I1
aI1
asS'sun&#39;s'
p6835
(lp6836
I1
aI1
asS'Meet'
p6837
(lp6838
I2
aI2
asS'be@ThirdSectorDigital'
p6839
(lp6840
I1
aI1
asS'latte!#RussellHobbsWinterWarmerpic.twitter.com/wfRvb6aepo'
p6841
(lp6842
I1
aI1
asS'Gone'
p6843
(lp6844
I1
aI1
asS'prepare'
p6845
(lp6846
I2
aI2
asS'Madrid'
p6847
(lp6848
I1
aI1
asS'could'
p6849
(lp6850
I5
aI5
asS'NYC!'
p6851
(lp6852
I1
aI1
asS'Celebrities'
p6853
(lp6854
I1
aI1
asS'times'
p6855
(lp6856
I2
aI2
asS'plus.pic.twitter.com/dhibh5Ux4W'
p6857
(lp6858
I1
aI1
asS'chilly'
p6859
(lp6860
I1
aI1
asS'her#GTAOnlinecharacterpic.twitter.com/3e1xMgmdkl'
p6861
(lp6862
I1
aI1
asS'retain'
p6863
(lp6864
I1
aI1
asS'retail'
p6865
(lp6866
I1
aI1
asS'museum'
p6867
(lp6868
I1
aI1
asS'south'
p6869
(lp6870
I1
aI1
asS'cats?#randomfact'
p6871
(lp6872
I1
aI1
asS'Silhouette'
p6873
(lp6874
I1
aI1
asS'blown'
p6875
(lp6876
I1
aI1
asS'apps'
p6877
(lp6878
I1
aI1
asS'show#brasseriechanel.'
p6879
(lp6880
I1
aI1
asS'don&#39;t'
p6881
(lp6882
I2
aI2
asS'heavy'
p6883
(lp6884
I1
aI1
asS'date'
p6885
(lp6886
I1
aI1
asS'-for'
p6887
(lp6888
I1
aI1
asS'homie!'
p6889
(lp6890
I1
aI1
asS'IG:panama_red1981pic.twitter.com/OsZr3CKTjD'
p6891
(lp6892
I1
aI1
asS'reached'
p6893
(lp6894
I1
aI1
asS'CHANEL'
p6895
(lp6896
I2
aI2
asS'playlist'
p6897
(lp6898
I1
aI1
asS'reasonsfrom'
p6899
(lp6900
I1
aI1
asS'Scotland&#39;s'
p6901
(lp6902
I1
aI1
asS'guys'
p6903
(lp6904
I5
aI4
asS'their'
p6905
(lp6906
I15
aI13
asS'attack'
p6907
(lp6908
I2
aI1
asS'xx07'
p6909
(lp6910
I1
aI1
asS'enough.'
p6911
(lp6912
I1
aI1
asS'which'
p6913
(lp6914
I1
aI1
asS'Daily#Giveawayyet'
p6915
(lp6916
I1
aI1
asS'man'
p6917
(lp6918
I2
aI2
asS'final'
p6919
(lp6920
I1
aI1
asS'inner'
p6921
(lp6922
I1
aI1
asS'Who&#39;s'
p6923
(lp6924
I1
aI1
asS'Remote'
p6925
(lp6926
I1
aI1
asS'see.....'
p6927
(lp6928
I1
aI1
asS'Success'
p6929
(lp6930
I1
aI1
asS'in@C4Countdownstudio'
p6931
(lp6932
I1
aI1
asS'journalists.'
p6933
(lp6934
I1
aI1
asS'difficult'
p6935
(lp6936
I1
aI1
asS'3/Journalists'
p6937
(lp6938
I1
aI1
asS'Bella'
p6939
(lp6940
I1
aI1
asS'Kornienko'
p6941
(lp6942
I3
aI3
asS'with@USDADep'
p6943
(lp6944
I1
aI1
asS'it!pic.twitter.com/G5qVaWDnqQ'
p6945
(lp6946
I1
aI1
asS'natural'
p6947
(lp6948
I1
aI1
asS'Twitch'
p6949
(lp6950
I1
aI1
asS'LP:http://bit.ly/FUN4REC&nbsp;#FUN4RECpic.twitter.com/JusdwqMj0p'
p6951
(lp6952
I1
aI1
asS'remember'
p6953
(lp6954
I1
aI1
asS'yrs'
p6955
(lp6956
I1
aI1
asS'wrapping.'
p6957
(lp6958
I1
aI1
asS'Homie@KingJamesfor'
p6959
(lp6960
I1
aI1
asS'with@SacoorBrosME&#10;https://amp.twimg.com/v/eea6f813-8a06-4ec9-9c62-5eaa501401e2&nbsp;'
p6961
(lp6962
I1
aI1
asS'loves'
p6963
(lp6964
I2
aI2
asS'watches!'
p6965
(lp6966
I1
aI1
asS'providing'
p6967
(lp6968
I3
aI3
asS'of@bigtalksince'
p6969
(lp6970
I1
aI1
asS'ITS'
p6971
(lp6972
I1
aI1
asS'minuteshttp://tscot.org/01c86225&nbsp;#TSIncident'
p6973
(lp6974
I1
aI1
asS'fault.'
p6975
(lp6976
I1
aI1
asS'you.'
p6977
(lp6978
I3
aI3
asS'journey'
p6979
(lp6980
I6
aI6
asS'Ozen'
p6981
(lp6982
I1
aI1
asS'gently'
p6983
(lp6984
I1
aI1
asS'comfortable'
p6985
(lp6986
I2
aI2
asS'tonight'
p6987
(lp6988
I5
aI5
asS'Shamrocks'
p6989
(lp6990
I1
aI1
asS'Daily#Giveawayhere!http://bit.ly/16eoGv5&nbsp;#W2U#Watches#Competition#Free#Prizes#WINpic.twitter.com/5CQpQHhkdJ'
p6991
(lp6992
I1
aI1
asS'March.http://yourb.us/1ESPm0U&nbsp;#RTpic.twitter.com/kaW5WbQAz3'
p6993
(lp6994
I1
aI1
asS'have'
p6995
(lp6996
I36
aI35
asS'Reply'
p6997
(lp6998
I1
aI1
asS'need'
p6999
(lp7000
I2
aI2
asS'^CT'
p7001
(lp7002
I9
aI9
asS'complete'
p7003
(lp7004
I2
aI2
asS'Development'
p7005
(lp7006
I1
aI1
asS'Twitter.'
p7007
(lp7008
I1
aI1
asS'celebrate#FragranceDay.http://i.victoria.com/CGM&nbsp;pic.twitter.com/OOOuLGMPVS'
p7009
(lp7010
I1
aI1
asS'Murrayfield'
p7011
(lp7012
I1
aI1
asS'we&#39;re'
p7013
(lp7014
I2
aI2
asS'today#justsaying.&#10;Got'
p7015
(lp7016
I1
aI1
asS'able'
p7017
(lp7018
I1
aI1
asS'purchasing'
p7019
(lp7020
I1
aI1
asS'Dogs'
p7021
(lp7022
I3
aI3
asS'Photos'
p7023
(lp7024
I6
aI6
asS'best'
p7025
(lp7026
I4
aI4
asS'Santa'
p7027
(lp7028
I1
aI1
asS'unsettled'
p7029
(lp7030
I1
aI1
asS'Radio'
p7031
(lp7032
I1
aI1
asS'divert'
p7033
(lp7034
I1
aI1
asS'='
p7035
(lp7036
I1
aI1
asS'Siberia'
p7037
(lp7038
I1
aI1
asS'-http://bit.ly/16eoGv5&nbsp;#W2U#Competitionpic.twitter.com/FFXGQ8L5TI'
p7039
(lp7040
I1
aI1
asS'-&gt;http://ow.ly/aDbp9&nbsp;with@lowcostholidays#competition'
p7041
(lp7042
I1
aI1
asS'#glasgow#m8lane'
p7043
(lp7044
I1
aI1
asS'shelves:http://rdcrss.org/mrestock&nbsp;pic.twitter.com/hTxzhhnw0T'
p7045
(lp7046
I1
aI1
asS'who'
p7047
(lp7048
I11
aI10
asS'again!'
p7049
(lp7050
I1
aI1
asS'more!pic.twitter.com/4AwmGRTcUb'
p7051
(lp7052
I1
aI1
asS'The@ChrisElliRetailshop'
p7053
(lp7054
I1
aI1
asS'you!'
p7055
(lp7056
I1
aI1
asS'Enter'
p7057
(lp7058
I4
aI4
asS'device'
p7059
(lp7060
I1
aI1
asS'A985(Kincardine'
p7061
(lp7062
I1
aI1
asS'class'
p7063
(lp7064
I1
aI1
asS'^G'
p7065
(lp7066
I1
aI1
asS'to#RND15!'
p7067
(lp7068
I1
aI1
asS'RRP'
p7069
(lp7070
I2
aI2
asS'plumber'
p7071
(lp7072
I1
aI1
asS'Expedition'
p7073
(lp7074
I3
aI3
asS'Loch'
p7075
(lp7076
I1
aI1
asS'stranded'
p7077
(lp7078
I1
aI1
asS'1/Twitter'
p7079
(lp7080
I1
aI1
asS'Pop'
p7081
(lp7082
I1
aI1
asS'face'
p7083
(lp7084
I2
aI2
asS'High'
p7085
(lp7086
I2
aI2
asS'Aquaspeed'
p7087
(lp7088
I2
aI2
asS'know-how'
p7089
(lp7090
I1
aI1
asS'grateful.'
p7091
(lp7092
I1
aI1
asS'WOW.https://instagram.com/p/z8_QTfCTKb/&nbsp;'
p7093
(lp7094
I1
aI1
asS'startedUS/PR'
p7095
(lp7096
I1
aI1
asS'$500'
p7097
(lp7098
I1
aI1
asS'chances'
p7099
(lp7100
I1
aI1
asS'Park'
p7101
(lp7102
I3
aI2
asS'terminate'
p7103
(lp7104
I1
aI1
asS'from@tds_online&#39;s'
p7105
(lp7106
I1
aI1
asS'prelaunch'
p7107
(lp7108
I1
aI1
asS'germs.http://elizabethbanks.com/post/113534252955/elizabeth-banks-paul-giamatti-to-star-in-hbos#notes&nbsp;'
p7109
(lp7110
I1
aI1
asS'withdrawn...'
p7111
(lp7112
I1
aI1
asS'woes!!'
p7113
(lp7114
I1
aI1
asS'planning'
p7115
(lp7116
I1
aI1
asS'orders@watches2u.com#W2U'
p7117
(lp7118
I1
aI1
asS'@YoungbloodJoe@att@JohnLegerelet&#39;s'
p7119
(lp7120
I1
aI1
asS'8%&#39;http://bbc.in/1B8UOJb&nbsp;'
p7121
(lp7122
I1
aI1
asS'Math'
p7123
(lp7124
I1
aI1
asS'shoes'
p7125
(lp7126
I1
aI1
asS'filmed'
p7127
(lp7128
I1
aI1
asS'knowledge'
p7129
(lp7130
I1
aI1
asS'A75'
p7131
(lp7132
I1
aI1
asS'winner'
p7133
(lp7134
I2
aI2
asS'Impeccable#GTAVpixel'
p7135
(lp7136
I1
aI1
asS'Twitter'
p7137
(lp7138
I5
aI5
asS'should'
p7139
(lp7140
I2
aI2
asS'brighter'
p7141
(lp7142
I1
aI1
asS'BIRTHDAY!#Twitteris'
p7143
(lp7144
I1
aI1
asS'chiefs'
p7145
(lp7146
I1
aI1
asS'Katy'
p7147
(lp7148
I1
aI1
asS'employee'
p7149
(lp7150
I1
aI1
asS'partially'
p7151
(lp7152
I1
aI1
asS'jab'
p7153
(lp7154
I1
aI1
asS'nude:http://vogue.cm/1MVWIna&nbsp;pic.twitter.com/bh2hEaKKiS'
p7155
(lp7156
I1
aI1
asS'hope'
p7157
(lp7158
I3
aI3
asS'&#39;could'
p7159
(lp7160
I1
aI1
asS'Owners'
p7161
(lp7162
I1
aI1
asS'-----&gt;http://smarturl.it/TowardsTheSun&nbsp;'
p7163
(lp7164
I1
aI1
asS'via#A876Clacks'
p7165
(lp7166
I1
aI1
asS'exceptional'
p7167
(lp7168
I1
aI1
asS'available:http://gear.playstation.com/brands/god-of-war.html&nbsp;Check'
p7169
(lp7170
I1
aI1
asS'lucky'
p7171
(lp7172
I3
aI3
asS'Keep'
p7173
(lp7174
I4
aI4
asS'State'
p7175
(lp7176
I1
aI1
asS'April.'
p7177
(lp7178
I1
aI1
asS'Interview:@Bilalrejects'
p7179
(lp7180
I1
aI1
asS'Once'
p7181
(lp7182
I2
aI2
asS'Rd'
p7183
(lp7184
I1
aI1
asS'platelets'
p7185
(lp7186
I1
aI1
asS'Forget'
p7187
(lp7188
I1
aI1
asS'tobacco'
p7189
(lp7190
I1
aI1
asS'damageshttp://bbc.in/1CBMqHx&nbsp;'
p7191
(lp7192
I1
aI1
asS'of#Watches!http://www.watches2u.com&nbsp;'
p7193
(lp7194
I1
aI1
asS'Area!'
p7195
(lp7196
I1
aI1
asS'taxes'
p7197
(lp7198
I1
aI1
asS'tuned'
p7199
(lp7200
I2
aI2
asS'brick&#10;&#10;Pain'
p7201
(lp7202
I1
aI1
asS'she'
p7203
(lp7204
I2
aI2
asS'wallpapers,'
p7205
(lp7206
I1
aI1
asS'grab'
p7207
(lp7208
I1
aI1
asS'minutes!#W2U#RedNoseDay#Watches'
p7209
(lp7210
I1
aI1
asS'view'
p7211
(lp7212
I2
aI2
asS'iPad'
p7213
(lp7214
I1
aI1
asS'napkinpic.twitter.com/XoTaR8X3AA'
p7215
(lp7216
I1
aI1
asS'btw'
p7217
(lp7218
I1
aI1
asS'having?'
p7219
(lp7220
I1
aI1
asS'national'
p7221
(lp7222
I1
aI1
asS'canine'
p7223
(lp7224
I1
aI1
asS'Watch,'
p7225
(lp7226
I1
aI1
asS'the#GTAVgame'
p7227
(lp7228
I1
aI1
asS'Trevor#fanartbyhttp://chaosandentropy.tumblr.com/&nbsp;pic.twitter.com/MfMOI9KJbG'
p7229
(lp7230
I1
aI1
asS'hydrotherapy.https://youtu.be/yVk9Yk6In5w&nbsp;'
p7231
(lp7232
I1
aI1
asS'enhanced'
p7233
(lp7234
I1
aI1
asS'LOVE'
p7235
(lp7236
I1
aI1
asS'terminate/start'
p7237
(lp7238
I1
aI1
asS'weather.'
p7239
(lp7240
I1
aI1
asS'packed'
p7241
(lp7242
I1
aI1
asS'PS'
p7243
(lp7244
I5
aI5
asS'Good'
p7245
(lp7246
I5
aI5
asS'wrong!http://bloom.bg/1xBBvYt&nbsp;'
p7247
(lp7248
I1
aI1
asS'destiny'
p7249
(lp7250
I1
aI1
asS'record'
p7251
(lp7252
I1
aI1
asS'for@ElizabethBanksfor'
p7253
(lp7254
I1
aI1
asS'discontinued#ExcellentCustomerService'
p7255
(lp7256
I1
aI1
asS'superb'
p7257
(lp7258
I1
aI1
asS'closed'
p7259
(lp7260
I12
aI12
asS'routine'
p7261
(lp7262
I1
aI1
asS'cover!!@AnOtherMagazineat@coletteparis&amp;'
p7263
(lp7264
I1
aI1
asS'Privately-run'
p7265
(lp7266
I1
aI1
asS'July'
p7267
(lp7268
I1
aI1
asS'all!#ThunderFamily'
p7269
(lp7270
I1
aI1
asS'work:http://ow.ly/Jf5o0&nbsp;'
p7271
(lp7272
I1
aI1
asS'stream:'
p7273
(lp7274
I1
aI1
asS'Downfall:'
p7275
(lp7276
I1
aI1
asS'opening'
p7277
(lp7278
I1
aI1
asS'.@simonpeggActually,'
p7279
(lp7280
I1
aI1
asS'Democrat'
p7281
(lp7282
I1
aI1
asS'Gaelic'
p7283
(lp7284
I1
aI1
asS'job'
p7285
(lp7286
I1
aI1
asS'Subway'
p7287
(lp7288
I2
aI2
asS'key'
p7289
(lp7290
I4
aI4
asS'BRICK'
p7291
(lp7292
I1
aI1
asS'Islands'
p7293
(lp7294
I1
aI1
asS'official:'
p7295
(lp7296
I1
aI1
asS'pleahttp://bbc.in/1CELp1n&nbsp;'
p7297
(lp7298
I1
aI1
asS'newbie@chrissiefitis'
p7299
(lp7300
I1
aI1
asS'FYI,'
p7301
(lp7302
I1
aI1
asS'hits'
p7303
(lp7304
I1
aI1
asS'Bristol&#39;s'
p7305
(lp7306
I1
aI1
asS'a#firstdayofspringstate'
p7307
(lp7308
I1
aI1
asS'today?pic.twitter.com/GwdYIDjXgq'
p7309
(lp7310
I1
aI1
asS'invited'
p7311
(lp7312
I1
aI1
asS'LIVE:http://twitch.tv/rockstargames&nbsp;#NowPlayingthe'
p7313
(lp7314
I1
aI1
asS'equal'
p7315
(lp7316
I1
aI1
asS'agree'
p7317
(lp7318
I1
aI1
asS'our#UK#holidayparkshttp://www.shorewoodleisuregroup.co.uk/&nbsp;#yorkshire#northumberland#Scotland'
p7319
(lp7320
I1
aI1
asS'-we'
p7321
(lp7322
I1
aI1
asS'net.#MarchHotness#OwnTheBeachhttp://i.victoria.com/We9&nbsp;pic.twitter.com/Un4zEhGgZB'
p7323
(lp7324
I1
aI1
asS'murder'
p7325
(lp7326
I1
aI1
asS'safely'
p7327
(lp7328
I1
aI1
asS'children@UHBristolNHS&#10;RT&amp;Donatehttp://ow.ly/3xwVVj&nbsp;'
p7329
(lp7330
I1
aI1
asS'The#BBunchwill'
p7331
(lp7332
I1
aI1
asS'herehttp://bit.ly/1C7oX0w&nbsp;pic.twitter.com/z52SH5tncL'
p7333
(lp7334
I1
aI1
asS'thing:@om!'
p7335
(lp7336
I1
aI1
asS'IQ&#39;http://bbc.in/1AWx2Qz&nbsp;'
p7337
(lp7338
I1
aI1
asS'Log'
p7339
(lp7340
I1
aI1
asS'colour@yossierdshall'
p7341
(lp7342
I1
aI1
asS'wall'
p7343
(lp7344
I1
aI1
asS'DVD'
p7345
(lp7346
I1
aI1
asS'morningpic.twitter.com/8NWzCrwD9B'
p7347
(lp7348
I1
aI1
asS'ohrangutang'
p7349
(lp7350
I1
aI1
asS'bikini'
p7351
(lp7352
I1
aI1
asS'575'
p7353
(lp7354
I1
aI1
asS'walk'
p7355
(lp7356
I2
aI2
asS'Landing'
p7357
(lp7358
I1
aI1
asS'goinghttps://instagram.com/p/0MeyjZCTFE/&nbsp;'
p7359
(lp7360
I1
aI1
asS'Holiday'
p7361
(lp7362
I1
aI1
asS'video-go-go-go'
p7363
(lp7364
I1
aI1
asS'Modespic.twitter.com/srhqFpf9zp'
p7365
(lp7366
I1
aI1
asS'point(talking'
p7367
(lp7368
I1
aI1
asS'Get'
p7369
(lp7370
I11
aI11
asS'farmhouse'
p7371
(lp7372
I1
aI1
asS'home?'
p7373
(lp7374
I1
aI1
asS'quiz'
p7375
(lp7376
I1
aI1
asS'Smoothie'
p7377
(lp7378
I1
aI1
asS'reindeer'
p7379
(lp7380
I1
aI1
asS'Soyuz'
p7381
(lp7382
I2
aI2
asS'the#BBunch!'
p7383
(lp7384
I1
aI1
asS'context,'
p7385
(lp7386
I1
aI1
asS'necessary!http://tcrn.ch/1GyxdpU&nbsp;'
p7387
(lp7388
I1
aI1
asS'of#GTAV#fanartby@deviantARTs'
p7389
(lp7390
I1
aI1
asS'home.'
p7391
(lp7392
I1
aI1
asS'home,'
p7393
(lp7394
I3
aI3
asS'lane'
p7395
(lp7396
I6
aI5
asS'seehttp://travelinescotland.com&nbsp;,'
p7397
(lp7398
I1
aI1
asS'Swanson&#39;s'
p7399
(lp7400
I1
aI1
asS'6.37'
p7401
(lp7402
I1
aI1
asS'route'
p7403
(lp7404
I1
aI1
asS'some@PitchPerfect2'
p7405
(lp7406
I1
aI1
asS'Trevor'
p7407
(lp7408
I1
aI1
asS'J16'
p7409
(lp7410
I1
aI1
asS'North#Norfolk?'
p7411
(lp7412
I2
aI2
asS'accident'
p7413
(lp7414
I2
aI2
asS'tohttp://www.watches2u.com&nbsp;now'
p7415
(lp7416
I1
aI1
asS'watches'
p7417
(lp7418
I1
aI1
asS'ours'
p7419
(lp7420
I2
aI2
asS'Henson.'
p7421
(lp7422
I2
aI2
asS'NEW:@NetworkRailScothaving'
p7423
(lp7424
I1
aI1
asS'&quot;Towards'
p7425
(lp7426
I1
aI1
asS'volunteer'
p7427
(lp7428
I3
aI3
asS'Ill'
p7429
(lp7430
I2
aI2
asS'&quot;RIP'
p7431
(lp7432
I1
aI1
asS'welcoming'
p7433
(lp7434
I1
aI1
asS'ETpic.twitter.com/FZpGOp6p2L'
p7435
(lp7436
I1
aI1
asS'runway'
p7437
(lp7438
I1
aI1
asS'k1irving@realtristan13@i_am_iman@therealjrsmith#TheLand#SwagCliquehttps://instagram.com/p/0KEQMoCTGh/&nbsp;'
p7439
(lp7440
I1
aI1
asS'08:12'
p7441
(lp7442
I1
aI1
asS'for#DeNA!'
p7443
(lp7444
I1
aI1
asS'General'
p7445
(lp7446
I2
aI2
asS'will'
p7447
(lp7448
I33
aI32
asS'outside!'
p7449
(lp7450
I1
aI1
asS'fault'
p7451
(lp7452
I1
aI1
asS'eastbound'
p7453
(lp7454
I1
aI1
asS'it.pic.twitter.com/Hpbk1dQE9b'
p7455
(lp7456
I1
aI1
asS'Wait'
p7457
(lp7458
I1
aI1
asS'~'
p7459
(lp7460
I1
aI1
asS'Tickets'
p7461
(lp7462
I1
aI1
asS'on@RakutenUK&amp;'
p7463
(lp7464
I1
aI1
asS'M77'
p7465
(lp7466
I1
aI1
asS'cell'
p7467
(lp7468
I1
aI1
asS'almost'
p7469
(lp7470
I1
aI1
asS'on#MoonPiefor#Eclipse2015http://l.ctx.ly/r/y5m3&nbsp;pic.twitter.com/XPiBZ5tGSy'
p7471
(lp7472
I1
aI1
asS'Gorgeous'
p7473
(lp7474
I1
aI1
asS'site'
p7475
(lp7476
I3
aI3
asS'for#uncarrier,'
p7477
(lp7478
I1
aI1
asS'Plantation'
p7479
(lp7480
I1
aI1
asS'vs'
p7481
(lp7482
I2
aI2
asS'defend-the-fort'
p7483
(lp7484
I1
aI1
asS'Toxic'
p7485
(lp7486
I1
aI1
asS'Northbound'
p7487
(lp7488
I1
aI1
asS'You'
p7489
(lp7490
I12
aI12
asS'Linlithgow'
p7491
(lp7492
I1
aI1
asS'support@Scotlandteam,'
p7493
(lp7494
I1
aI1
asS'#PantyParty&#39;s'
p7495
(lp7496
I1
aI1
asS'Symbols'
p7497
(lp7498
I1
aI1
asS'Product'
p7499
(lp7500
I1
aI1
asS'(Lathallan)'
p7501
(lp7502
I1
aI1
asS'at@TribecaFilmFest!@TheTessMorris@lakebellhttp://tribecafilm.com/stories/tribeca-film-festival-2015-spotlight&nbsp;pic.twitter.com/sKlcs7xGwY'
p7503
(lp7504
I1
aI1
asS'set!'
p7505
(lp7506
I1
aI1
asS'sensitive'
p7507
(lp7508
I1
aI1
asS'our#W2UFLASH'
p7509
(lp7510
I1
aI1
asS'member'
p7511
(lp7512
I1
aI1
asS'Miami'
p7513
(lp7514
I1
aI1
asS'largest'
p7515
(lp7516
I2
aI2
asS'shuttle'
p7517
(lp7518
I2
aI2
asS'party'
p7519
(lp7520
I1
aI1
asS't...http://bit.ly/1FRyQB2&nbsp;'
p7521
(lp7522
I1
aI1
asS'longevityhttp://huff.to/1BcCKOi&nbsp;pic.twitter.com/3z2ovhhC77/via@HealthyLiving'
p7523
(lp7524
I1
aI1
asS'words.@HauteTime@THEREALSWIZZZ#ThisIsMe7o&#10;https://amp.twimg.com/v/4eef07d5-bde4-4fc6-a2e8-24cf4e98d306&nbsp;'
p7525
(lp7526
I1
aI1
asS'of@lalafor'
p7527
(lp7528
I1
aI1
asS'Madrid!http://www.sportlobster.com/post/533407/tomorrow-is-championsleague.html&nbsp;pic.twitter.com/1Y124YdAYx'
p7529
(lp7530
I1
aI1
asS'Grew'
p7531
(lp7532
I1
aI1
asS'Third'
p7533
(lp7534
I2
aI2
asS'again'
p7535
(lp7536
I2
aI2
asS'#M8W/B'
p7537
(lp7538
I1
aI1
asS'Morpheus,'
p7539
(lp7540
I1
aI1
asS'Airport'
p7541
(lp7542
I3
aI3
asS'ago,'
p7543
(lp7544
I1
aI1
asS'Chic'
p7545
(lp7546
I1
aI1
asS'#MerryChristmasto'
p7547
(lp7548
I1
aI1
asS'years@OfficialNTAsto'
p7549
(lp7550
I1
aI1
asS'mosaic'
p7551
(lp7552
I1
aI1
asS'&#39;linked'
p7553
(lp7554
I1
aI1
asS'PS3:http://bit.ly/1BZIYpJ&nbsp;Manipulate'
p7555
(lp7556
I1
aI1
asS'off'
p7557
(lp7558
I6
aI6
asS'alarm!#turnandtest.http://rdcrss.org/mSpringDST&nbsp;pic.twitter.com/4JG8lUS40b'
p7559
(lp7560
I1
aI1
asS'to@jack&amp;@dickc&#39;s'
p7561
(lp7562
I1
aI1
asS'Rockstar'
p7563
(lp7564
I1
aI1
asS'Senate'
p7565
(lp7566
I1
aI1
asS'Spring'
p7567
(lp7568
I5
aI5
asS'incredible'
p7569
(lp7570
I1
aI1
asS'well'
p7571
(lp7572
I2
aI2
asS'@andipetersexcept'
p7573
(lp7574
I1
aI1
asS'tuesday!http://bit.ly/TACTalentTix&nbsp;hurry!pic.twitter.com/os1VCVHLId'
p7575
(lp7576
I1
aI1
asS'cutting'
p7577
(lp7578
I1
aI1
asS'Road.'
p7579
(lp7580
I2
aI2
asS'guru@patmcgrathrealwas'
p7581
(lp7582
I1
aI1
asS'Have'
p7583
(lp7584
I6
aI6
asS'privilege.'
p7585
(lp7586
I1
aI1
asS'Welch'
p7587
(lp7588
I1
aI1
asS'He&#39;s'
p7589
(lp7590
I1
aI1
asS'send'
p7591
(lp7592
I1
aI1
asS'latest'
p7593
(lp7594
I3
aI3
asS'newest'
p7595
(lp7596
I1
aI1
asS'rocket'
p7597
(lp7598
I1
aI1
asS'Studio#GodofWarDone'
p7599
(lp7600
I1
aI1
asS'only.'
p7601
(lp7602
I1
aI1
asS'TIP'
p7603
(lp7604
I1
aI1
asS'ATTENTION!'
p7605
(lp7606
I1
aI1
asS'Kratos.'
p7607
(lp7608
I1
aI1
asS'BT'
p7609
(lp7610
I1
aI1
asS'work.pic.twitter.com/Z0w9Ic7EY7'
p7611
(lp7612
I1
aI1
asS'tax...http://bit.ly/1DH4aCR&nbsp;'
p7613
(lp7614
I1
aI1
asS'FFG.'
p7615
(lp7616
I1
aI1
asS'spells'
p7617
(lp7618
I1
aI1
asS'colours!@guidedogs#accessibilitypic.twitter.com/Y3UeIK8dDq'
p7619
(lp7620
I1
aI1
asS'web'
p7621
(lp7622
I2
aI2
asS'work.'
p7623
(lp7624
I2
aI2
asS'between#Bathgate&amp;#Edinburghat'
p7625
(lp7626
I1
aI1
asS'officially'
p7627
(lp7628
I1
aI1
asS'DISGRACED'
p7629
(lp7630
I1
aI1
asS'sprung!'
p7631
(lp7632
I1
aI1
asS'YouTube'
p7633
(lp7634
I6
aI6
asS'chic?'
p7635
(lp7636
I1
aI1
asS'no-show'
p7637
(lp7638
I1
aI1
asS'day'
p7639
(lp7640
I9
aI9
asS'warns'
p7641
(lp7642
I1
aI1
asS'Fab'
p7643
(lp7644
I1
aI1
asS'astronaut'
p7645
(lp7646
I1
aI1
asS'match'
p7647
(lp7648
I1
aI1
asS'Scotland:'
p7649
(lp7650
I1
aI1
asS'Kilbirnie'
p7651
(lp7652
I1
aI1
asS'World.pic.twitter.com/6IELnRou3d'
p7653
(lp7654
I1
aI1
asS'Can&#39;t'
p7655
(lp7656
I1
aI1
asS'photo'
p7657
(lp7658
I4
aI4
asS'Launch'
p7659
(lp7660
I2
aI2
asS'checking'
p7661
(lp7662
I1
aI1
asS'dress:http://vogue.cm/1C8cMjT&nbsp;'
p7663
(lp7664
I1
aI1
asS'spend@republicfashionhttp://on.fb.me/JfrwnS&nbsp;x'
p7665
(lp7666
I1
aI1
asS'source,'
p7667
(lp7668
I1
aI1
asS'app#PlanAhead'
p7669
(lp7670
I1
aI1
asS'historic'
p7671
(lp7672
I1
aI1
asS'five'
p7673
(lp7674
I1
aI1
asS'know'
p7675
(lp7676
I9
aI9
asS'shoes#cr7footwearhttp://www.cr7footwear.com&nbsp;http://youtu.be/tox5QCKWN0c&nbsp;'
p7677
(lp7678
I1
aI1
asS'study#GTAVpic.twitter.com/CYAJQETyz7'
p7679
(lp7680
I1
aI1
asS'room?'
p7681
(lp7682
I1
aI1
asS'out:http://elizabethbanks.com/post/113976915440/meet-the-new-barden-bella-chrissie-fit-joins&nbsp;#pitchperfect2'
p7683
(lp7684
I1
aI1
asS'Lounge'
p7685
(lp7686
I1
aI1
asS'Fashion'
p7687
(lp7688
I1
aI1
asS'like'
p7689
(lp7690
I10
aI9
asS'lost'
p7691
(lp7692
I2
aI2
asS'journalism'
p7693
(lp7694
I1
aI1
asS'B)'
p7695
(lp7696
I1
aI1
asS'training.http://www.sportlobster.com/post/533170/back-on-track-on-my-way-to-th.html&nbsp;pic.twitter.com/y9aRt0g98B'
p7697
(lp7698
I1
aI1
asS'&#10;&#10;#TBT#fit#motivate#strong#curvy#thickhttps://instagram.com/p/0JfSC_TNR9/&nbsp;'
p7699
(lp7700
I1
aI1
asS'THIS.#SecretRewardshttp://i.victoria.com/J1U&nbsp;pic.twitter.com/j2hanjtyA6'
p7701
(lp7702
I1
aI1
asS'for#talkingbusesin@gdcampaignslatest'
p7703
(lp7704
I1
aI1
asS'hangout'
p7705
(lp7706
I1
aI1
asS'Q.U.B.E:'
p7707
(lp7708
I1
aI1
asS'Simon&#39;s'
p7709
(lp7710
I2
aI2
asS'replacement'
p7711
(lp7712
I2
aI2
asS'on.#HappyStPatricksDaypic.twitter.com/TV8mHjgByo'
p7713
(lp7714
I1
aI1
asS'&amp;#ErniePrizehas'
p7715
(lp7716
I1
aI1
asS'drop'
p7717
(lp7718
I2
aI2
asS'Sun'
p7719
(lp7720
I2
aI2
asS'@davidvittyclick'
p7721
(lp7722
I1
aI1
asS'searching'
p7723
(lp7724
I1
aI1
asS'hail'
p7725
(lp7726
I1
aI1
asS'platforms'
p7727
(lp7728
I1
aI1
asS'shes'
p7729
(lp7730
I1
aI1
asS'113'
p7731
(lp7732
I1
aI1
asS'win!http://dspy.me/TB3EcU&nbsp;'
p7733
(lp7734
I1
aI1
asS'home'
p7735
(lp7736
I12
aI12
asS'gonna'
p7737
(lp7738
I1
aI1
asS'like#uncarrier9!!#Cramericafor'
p7739
(lp7740
I1
aI1
asS'transport'
p7741
(lp7742
I2
aI2
asS'Hyndland'
p7743
(lp7744
I1
aI1
asS'ROI'
p7745
(lp7746
I1
aI1
asS'fun.'
p7747
(lp7748
I1
aI1
asS'iPad,'
p7749
(lp7750
I1
aI1
asS'steaming'
p7751
(lp7752
I1
aI1
asS'kettle'
p7753
(lp7754
I2
aI2
asS'lean'
p7755
(lp7756
I1
aI1
asS'stem'
p7757
(lp7758
I2
aI2
asS'8/THANK'
p7759
(lp7760
I1
aI1
asS'does'
p7761
(lp7762
I5
aI5
asS'passion'
p7763
(lp7764
I1
aI1
asS'expensive'
p7765
(lp7766
I1
aI1
asS'birthday,'
p7767
(lp7768
I1
aI1
asS'three'
p7769
(lp7770
I1
aI1
asS'Stairs'
p7771
(lp7772
I1
aI1
asS'leader'
p7773
(lp7774
I2
aI2
asS'conference'
p7775
(lp7776
I1
aI1
asS'Superb'
p7777
(lp7778
I1
aI1
asS'schedule'
p7779
(lp7780
I1
aI1
asS'Official'
p7781
(lp7782
I1
aI1
asS'Ur'
p7783
(lp7784
I1
aI1
asS'#COVERHarpersBazaar'
p7785
(lp7786
I1
aI1
asS'signed#M11All'
p7787
(lp7788
I1
aI1
asS'Kindle'
p7789
(lp7790
I1
aI1
asS'&amp;'
p7791
(lp7792
I69
aI58
asS'lastnight'
p7793
(lp7794
I1
aI1
asS'Microsoft'
p7795
(lp7796
I1
aI1
asS'vs.'
p7797
(lp7798
I1
aI1
asS'about'
p7799
(lp7800
I15
aI15
asS'no?!http://cnet.co/18CMF92&nbsp;'
p7801
(lp7802
I1
aI1
asS'launch.#YearInSpacehttps://flic.kr/s/aHsk8quHEE&nbsp;pic.twitter.com/S82o6du1ek'
p7803
(lp7804
I1
aI1
asS'Mental'
p7805
(lp7806
I1
aI1
asS'world'
p7807
(lp7808
I7
aI7
asS'getting'
p7809
(lp7810
I2
aI2
asS'spilled'
p7811
(lp7812
I1
aI1
asS'but#WeWontStopuntil'
p7813
(lp7814
I1
aI1
asS'US'
p7815
(lp7816
I3
aI3
asS'world!#BallGame#StriveForGreatness#Blessedhttps://instagram.com/p/0JVDEWiTCl/&nbsp;'
p7817
(lp7818
I1
aI1
asS'Airport#glasgowtravelpic.twitter.com/ZgrMosnbAG'
p7819
(lp7820
I1
aI1
asS'swear'
p7821
(lp7822
I1
aI1
asS'screens!http://jpjoy.co/ZzEZxH&nbsp;'
p7823
(lp7824
I1
aI1
asS'UK'
p7825
(lp7826
I1
aI1
asS'STAGES'
p7827
(lp7828
I2
aI1
asS'happen.'
p7829
(lp7830
I1
aI1
asS'conference...http://bit.ly/1BhwuVH&nbsp;'
p7831
(lp7832
I1
aI1
asS'Really'
p7833
(lp7834
I1
aI1
asS'own'
p7835
(lp7836
I2
aI2
asS'Talent...:http://youtu.be/LT--h2GjaAU&nbsp;via@youtube'
p7837
(lp7838
I1
aI1
asS'year'
p7839
(lp7840
I2
aI2
asS'Two'
p7841
(lp7842
I2
aI2
asS'Writing'
p7843
(lp7844
I1
aI1
asS'pretty.http://i.victoria.com/5TM&nbsp;pic.twitter.com/nbhuDJ3mLH'
p7845
(lp7846
I1
aI1
asS'playoff'
p7847
(lp7848
I1
aI1
asS'Labour'
p7849
(lp7850
I1
aI1
asS'&quot;some'
p7851
(lp7852
I1
aI1
asS'economics:'
p7853
(lp7854
I1
aI1
asS'registration'
p7855
(lp7856
I1
aI1
asS'shopping!http://www.rakuten.co.uk/shop/simplyseedz/&nbsp;#shopping#offer'
p7857
(lp7858
I1
aI1
asS'info:http://www.scotrail.co.uk/disruption-news&nbsp;'
p7859
(lp7860
I1
aI1
asS'Skrimish'
p7861
(lp7862
I1
aI1
asS'quickly'
p7863
(lp7864
I1
aI1
asS'ink!http://l.ctx.ly/r/y6aa&nbsp;pic.twitter.com/XitEThx531'
p7865
(lp7866
I1
aI1
asS'Airdrie'
p7867
(lp7868
I3
aI2
asS'Ball'
p7869
(lp7870
I1
aI1
asS'check:http://bit.ly/1FOARxu&nbsp;#PlanAhead'
p7871
(lp7872
I1
aI1
asS'iMAG'
p7873
(lp7874
I1
aI1
asS'she&#39;s'
p7875
(lp7876
I1
aI1
asS'rayn34!!'
p7877
(lp7878
I1
aI1
asS'Train'
p7879
(lp7880
I2
aI2
asS'vein'
p7881
(lp7882
I1
aI1
asS'biggest'
p7883
(lp7884
I1
aI1
asS'place.'
p7885
(lp7886
I1
aI1
asS'svcs'
p7887
(lp7888
I1
aI1
asS'buy'
p7889
(lp7890
I1
aI1
asS'spring...#NOPE'
p7891
(lp7892
I1
aI1
asS'maintenance'
p7893
(lp7894
I1
aI1
asS'Kilwinning'
p7895
(lp7896
I2
aI2
asS'bus'
p7897
(lp7898
I3
aI3
asS'brand'
p7899
(lp7900
I1
aI1
asS'Fall-Winter'
p7901
(lp7902
I13
aI13
asS'Major'
p7903
(lp7904
I1
aI1
asS'but'
p7905
(lp7906
I10
aI10
asS'thathttp://twttr.com&nbsp;was'
p7907
(lp7908
I1
aI1
asS'sock,'
p7909
(lp7910
I1
aI1
asS'Hawthorn&#10;http://buff.ly/1O7K9bD&nbsp;&#10;pic.twitter.com/U8Qo0Mi8Z1'
p7911
(lp7912
I1
aI1
asS'by@KeithBrownMSPtoday#framethebridgehttp://www.framethebridge.co.uk&nbsp;pic.twitter.com/vdTQfShc6n'
p7913
(lp7914
I1
aI1
asS'GUNMEN'
p7915
(lp7916
I1
aI1
asS'highest'
p7917
(lp7918
I2
aI2
asS'Consumer'
p7919
(lp7920
I1
aI1
asS'he'
p7921
(lp7922
I2
aI2
asS'.@modestproposal1@mcubanI'
p7923
(lp7924
I1
aI1
asS'Haymarket'
p7925
(lp7926
I1
aI1
asS'denim-on-denim'
p7927
(lp7928
I1
aI1
asS'places'
p7929
(lp7930
I1
aI1
asS'4/After'
p7931
(lp7932
I1
aI1
asS'icon@Rihannaonhttp://bit.ly/1AuLCDd&nbsp;.'
p7933
(lp7934
I1
aI1
asS'official'
p7935
(lp7936
I2
aI2
asS'signed'
p7937
(lp7938
I3
aI3
asS'Berkshirehttp://bit.ly/1yM2x0j&nbsp;'
p7939
(lp7940
I1
aI1
asS'covers'
p7941
(lp7942
I1
aI1
asS'app.'
p7943
(lp7944
I1
aI1
asS'below'
p7945
(lp7946
I1
aI1
asS'hand'
p7947
(lp7948
I1
aI1
asS'Tonight!)'
p7949
(lp7950
I1
aI1
asS'07:46'
p7951
(lp7952
I1
aI1
asS'picks'
p7953
(lp7954
I1
aI1
asS'minutes'
p7955
(lp7956
I4
aI4
asS'display'
p7957
(lp7958
I1
aI1
asS'Kate'
p7959
(lp7960
I3
aI3
asS'Bloodborne'
p7961
(lp7962
I2
aI2
asS'instead'
p7963
(lp7964
I1
aI1
asS'Watchhttp://woobox.com/thvrws/2xewcc&nbsp;from@Watches2U'
p7965
(lp7966
I1
aI1
asS'tomorrow:http://bit.ly/1AM085W&nbsp;pic.twitter.com/blnayEMDXJ'
p7967
(lp7968
I1
aI1
asS'pin'
p7969
(lp7970
I1
aI1
asS'deaths'
p7971
(lp7972
I1
aI1
asS'pic'
p7973
(lp7974
I2
aI2
asS'Lake'
p7975
(lp7976
I2
aI2
asS'SNOW'
p7977
(lp7978
I1
aI1
asS'pix'
p7979
(lp7980
I1
aI1
asS'for...http://fb.me/7aGcCsKgn&nbsp;'
p7981
(lp7982
I1
aI1
asS'now!http://bit.ly/1bj5f86&nbsp;@Roll_7pic.twitter.com/63CsYlMeXX'
p7983
(lp7984
I1
aI1
asS'Writers,'
p7985
(lp7986
I1
aI1
asS'info:http://bit.ly/1bkUfad&nbsp;#PlanAhead@ScotTranserv'
p7987
(lp7988
I1
aI1
asS'sneak'
p7989
(lp7990
I1
aI1
asS'Gaubert'
p7991
(lp7992
I1
aI1
asS'girl'
p7993
(lp7994
I1
aI1
asS'worse'
p7995
(lp7996
I1
aI1
asS'is...@bdwicks!'
p7997
(lp7998
I1
aI1
asS'RT@Lu_Demetria:'
p7999
(lp8000
I1
aI1
asS'today.http://abc7ne.ws/1Og4knM&nbsp;#TwitterBirthdaypic.twitter.com/liIhbvrP2o'
p8001
(lp8002
I1
aI1
asS'contest'
p8003
(lp8004
I1
aI1
asS'@expansysukIve'
p8005
(lp8006
I1
aI1
asS'detail'
p8007
(lp8008
I1
aI1
asS'other'
p8009
(lp8010
I2
aI2
asS'details'
p8011
(lp8012
I3
aI3
asS'sick'
p8013
(lp8014
I1
aI1
asS'posted!https://flic.kr/s/aHsk982BKj&nbsp;#NASA#MMSpic.twitter.com/2RiTq1CAtK'
p8015
(lp8016
I1
aI1
asS'be&#10;&#10;ohrangutanghttps://instagram.com/p/0WBjyvzNaa/&nbsp;'
p8017
(lp8018
I1
aI1
asS'February'
p8019
(lp8020
I1
aI1
asS'spring!'
p8021
(lp8022
I1
aI1
asS'star'
p8023
(lp8024
I1
aI1
asS'Like'
p8025
(lp8026
I1
aI1
asS'Rockhttps://instagram.com/p/0EvP4IiTAu/&nbsp;'
p8027
(lp8028
I1
aI1
asS'Spanish'
p8029
(lp8030
I1
aI1
asS'stay'
p8031
(lp8032
I3
aI3
asS'chance'
p8033
(lp8034
I13
aI13
asS'U'
p8035
(lp8036
I1
aI1
asS'death!'
p8037
(lp8038
I1
aI1
asS'VOTE'
p8039
(lp8040
I1
aI1
asS'N'
p8041
(lp8042
I1
aI1
asS'friends'
p8043
(lp8044
I1
aI1
asS'South'
p8045
(lp8046
I2
aI2
asS'livestreamhttp://www.twitch.tv/rockstargames&nbsp;'
p8047
(lp8048
I1
aI1
asS'that#Twittercup!#tweeterextraordinaire'
p8049
(lp8050
I1
aI1
asS'Friday!'
p8051
(lp8052
I1
aI1
asS'@LeBronJames@KendrickPerkinsThank'
p8053
(lp8054
I1
aI1
asS'using'
p8055
(lp8056
I2
aI2
asS'Well'
p8057
(lp8058
I1
aI1
asS'Wells.'
p8059
(lp8060
I1
aI1
asS'Friday,'
p8061
(lp8062
I1
aI1
asS'Discover'
p8063
(lp8064
I2
aI2
asS'Alternatively,'
p8065
(lp8066
I1
aI1
asS'NEW:'
p8067
(lp8068
I3
aI3
asS'owner'
p8069
(lp8070
I1
aI1
asS'Hygiene'
p8071
(lp8072
I1
aI1
asS'and#GoVotetoday.'
p8073
(lp8074
I1
aI1
asS'celebrating#CLUEhttp://m.hitfix.com/news/flames-on-the-side-of-my-face-a-tribute-to-the-women-of-clue&nbsp;'
p8075
(lp8076
I1
aI1
asS'Season'
p8077
(lp8078
I1
aI1
asS'rural'
p8079
(lp8080
I1
aI1
asS'speedrun'
p8081
(lp8082
I2
aI2
asS'resume.'
p8083
(lp8084
I1
aI1
asS'news,'
p8085
(lp8086
I1
aI1
asS'Friday?'
p8087
(lp8088
I1
aI1
as.