(dp0
S'Exubiuz'
p1
(lp2
I1
aI1
asS'now:http://vogue.cm/1OgH5Ko&nbsp;'
p3
(lp4
I1
aI1
asS'Athlete?'
p5
(lp6
I1
aI1
asS'Nick@NIKETysongetting'
p7
(lp8
I1
aI1
asS'swag'
p9
(lp10
I1
aI1
asS'Liverpool'
p11
(lp12
I1
aI1
asS'awesome#insurgent#GTAPhotographers@GTAJunkiespic.twitter.com/w6KO0u5UvV'
p13
(lp14
I1
aI1
asS'eligible'
p15
(lp16
I1
aI1
asS'Watch'
p17
(lp18
I2
aI2
asS'Insta-paradise'
p19
(lp20
I1
aI1
asS'Hosp'
p21
(lp22
I1
aI1
asS'standing#WithSyriaand'
p23
(lp24
I1
aI1
asS'restock'
p25
(lp26
I1
aI1
asS'worth'
p27
(lp28
I1
aI1
asS'risk'
p29
(lp30
I1
aI1
asS'every'
p31
(lp32
I1
aI1
asS'Rules:http://i.victoria.com/ultimate&nbsp;pic.twitter.com/gBnr53ZZDd'
p33
(lp34
I1
aI1
asS'look'
p35
(lp36
I1
aI1
asS'tickets'
p37
(lp38
I1
aI1
asS'Dosh'
p39
(lp40
I1
aI1
asS'onhttp://chanel-news.com/-fall-winter-2015-16-rtw&nbsp;pic.twitter.com/aF1241qGaX'
p41
(lp42
I1
aI1
asS'kisspic.twitter.com/IgDqdUZliO'
p43
(lp44
I1
aI1
asS'Classic'
p45
(lp46
I1
aI1
asS'time!'
p47
(lp48
I1
aI1
asS'Ear&#39;'
p49
(lp50
I1
aI1
asS'Go'
p51
(lp52
I1
aI1
asS'farmhouse'
p53
(lp54
I1
aI1
asS'specially'
p55
(lp56
I1
aI1
asS'7th'
p57
(lp58
I1
aI1
asS'lights'
p59
(lp60
I1
aI1
asS'above'
p61
(lp62
I1
aI1
asS'new'
p63
(lp64
I9
aI9
asS'ever'
p65
(lp66
I3
aI3
asS'94!@nickjfrost@edgarwright@simonpeggpic.twitter.com/WvXGqdvVV0'
p67
(lp68
I1
aI1
asS'story:http://rdcrss.org/belleville&nbsp;'
p69
(lp70
I1
aI1
asS'specialist'
p71
(lp72
I1
aI1
asS'sinks'
p73
(lp74
I1
aI1
asS'never'
p75
(lp76
I1
aI1
asS'favorite!),'
p77
(lp78
I1
aI1
asS'here'
p79
(lp80
I2
aI2
asS'Happy#FirstDayOfSpring!http://i.victoria.com/uEH&nbsp;pic.twitter.com/ut6KkUyJOf'
p81
(lp82
I1
aI1
asS'2015/16'
p83
(lp84
I13
aI13
asS'Block.'
p85
(lp86
I1
aI1
asS'100'
p87
(lp88
I3
aI2
asS'Accessorize'
p89
(lp90
I1
aI1
asS'Sweepstake'
p91
(lp92
I1
aI1
asS'Shes'
p93
(lp94
I1
aI1
asS'smoke'
p95
(lp96
I1
aI1
asS'Home'
p97
(lp98
I2
aI2
asS'campaign'
p99
(lp100
I1
aI1
asS'Three'
p101
(lp102
I1
aI1
asS'psychological'
p103
(lp104
I1
aI1
asS'to#GiveWhatFireTakes:http://rdcrss.org/firehelp&nbsp;pic.twitter.com/OhGUmzDdcj'
p105
(lp106
I1
aI1
asS'&#39;poor&#39;http://bbc.in/1AD6cxD&nbsp;'
p107
(lp108
I1
aI1
asS'Star'
p109
(lp110
I3
aI3
asS'Herehttp://bit.ly/1Fqk1oB&nbsp;pic.twitter.com/8c85rfYvUx'
p111
(lp112
I1
aI1
asS'hospital'
p113
(lp114
I1
aI1
asS'right.'
p115
(lp116
I1
aI1
asS'Extracts'
p117
(lp118
I1
aI1
asS'me'
p119
(lp120
I3
aI3
asS'choose?'
p121
(lp122
I1
aI1
asS'join'
p123
(lp124
I1
aI1
asS'Headed'
p125
(lp126
I1
aI1
asS'work'
p127
(lp128
I1
aI1
asS'Crows'
p129
(lp130
I1
aI1
asS'crew!@therealjrsmithperk_409@matrix31@realtristan13@i_am_imanbwood_33@matthewdellymozg25https://instagram.com/p/0ExegNCTDI/&nbsp;'
p131
(lp132
I1
aI1
asS'about#SleevesUpfor@HuffPostImpacthttp://rdcrss.org/brian&nbsp;'
p133
(lp134
I1
aI1
asS'my'
p135
(lp136
I15
aI14
asS'Standing'
p137
(lp138
I1
aI1
asS'give'
p139
(lp140
I1
aI1
asS'Celebrities'
p141
(lp142
I1
aI1
asS'#COMPETITION!'
p143
(lp144
I1
aI1
asS'athletic-inspired'
p145
(lp146
I1
aI1
asS'want'
p147
(lp148
I1
aI1
asS'Digital'
p149
(lp150
I1
aI1
asS'how'
p151
(lp152
I6
aI6
asS'amazing'
p153
(lp154
I2
aI2
asS'to#WINa'
p155
(lp156
I1
aI1
asS'Newswire'
p157
(lp158
I1
aI1
asS'way.#ThisIsMelo'
p159
(lp160
I1
aI1
asS'A'
p161
(lp162
I10
aI10
asS'these@KarlieKlossworkouts:http://vogue.cm/199L2zC&nbsp;'
p163
(lp164
I1
aI1
asS'beauty'
p165
(lp166
I1
aI1
asS'Nerd.Simon'
p167
(lp168
I1
aI1
asS'bday'
p169
(lp170
I2
aI2
asS'after'
p171
(lp172
I1
aI1
asS'homie!!'
p173
(lp174
I1
aI1
asS'Will'
p175
(lp176
I2
aI2
asS'dinosaurs'
p177
(lp178
I1
aI1
asS'handy^^'
p179
(lp180
I1
aI1
asS'All'
p181
(lp182
I2
aI2
asS'wins'
p183
(lp184
I1
aI1
asS'appreciate'
p185
(lp186
I1
aI1
asS'green'
p187
(lp188
I1
aI1
asS'Another'
p189
(lp190
I1
aI1
asS'enter'
p191
(lp192
I1
aI1
asS'to#WIN100'
p193
(lp194
I1
aI1
asS'by@yusefhairnychttps://instagram.com/p/z5mkU_hM-r/&nbsp;'
p195
(lp196
I1
aI1
asS'Lioness'
p197
(lp198
I1
aI1
asS'over'
p199
(lp200
I2
aI1
asS'Ferrell?'
p201
(lp202
I1
aI1
asS'before'
p203
(lp204
I1
aI1
asS'Hit'
p205
(lp206
I1
aI1
asS'highlights'
p207
(lp208
I1
aI1
asS'Here'
p209
(lp210
I2
aI2
asS'better'
p211
(lp212
I1
aI1
asS'409'
p213
(lp214
I1
aI1
asS'donors'
p215
(lp216
I2
aI2
asS'them'
p217
(lp218
I1
aI1
asS'Kids'
p219
(lp220
I2
aI2
asS'affected'
p221
(lp222
I2
aI2
asS'&#39;cut'
p223
(lp224
I1
aI1
asS'Ready-to-Wear'
p225
(lp226
I14
aI14
asS'debut'
p227
(lp228
I2
aI2
asS'24.http://smarturl.it/HomeSoundtrack&nbsp;'
p229
(lp230
I1
aI1
asS'Four'
p231
(lp232
I1
aI1
asS'headphones:http://ow.ly/JdVTb&nbsp;pic.twitter.com/vHwNwOKMWl'
p233
(lp234
I1
aI1
asS'fitness'
p235
(lp236
I1
aI1
asS'Curious'
p237
(lp238
I1
aI1
asS'went'
p239
(lp240
I1
aI1
asS'Check'
p241
(lp242
I2
aI2
asS'luck'
p243
(lp244
I1
aI1
asS'Rainbow'
p245
(lp246
I1
aI1
asS'&#10;&#10;See'
p247
(lp248
I3
aI3
asS'today&#39;s@nytimes#crosswordpuzzle.pic.twitter.com/2LoJbM1wMi'
p249
(lp250
I1
aI1
asS'series'
p251
(lp252
I1
aI1
asS'Winner'
p253
(lp254
I1
aI1
asS'doesn&#39;t'
p255
(lp256
I1
aI1
asS'Personality?&#10;&#10;http://bit.ly/1ASSpmL&nbsp;pic.twitter.com/N233Drpv2Y'
p257
(lp258
I1
aI1
asS'day:'
p259
(lp260
I1
aI1
asS'TRUCKS'
p261
(lp262
I1
aI1
asS'self:'
p263
(lp264
I1
aI1
asS'got'
p265
(lp266
I2
aI2
asS'&#39;Subconscious&#39;'
p267
(lp268
I1
aI1
asS'DLC'
p269
(lp270
I1
aI1
asS'Join'
p271
(lp272
I3
aI3
asS'Spring-Summer'
p273
(lp274
I1
aI1
asS'free'
p275
(lp276
I2
aI2
asS'Planet'
p277
(lp278
I1
aI1
asS'&#39;Whisper'
p279
(lp280
I1
aI1
asS'wanted'
p281
(lp282
I1
aI1
asS'Criticism'
p283
(lp284
I1
aI1
asS'created'
p285
(lp286
I1
aI1
asS'patron@simonpeggwho'
p287
(lp288
I1
aI1
asS'TIME'
p289
(lp290
I1
aI1
asS'too!'
p291
(lp292
I1
aI1
asS'Please'
p293
(lp294
I1
aI1
asS'I&#39;ll'
p295
(lp296
I1
aI1
asS'featured'
p297
(lp298
I1
aI1
asS'another'
p299
(lp300
I1
aI1
asS'Excited'
p301
(lp302
I1
aI1
asS'on@DrOztomorrow!'
p303
(lp304
I1
aI1
asS'prospered&quot;'
p305
(lp306
I1
aI1
asS'engagement'
p307
(lp308
I1
aI1
asS'Cupcake'
p309
(lp310
I1
aI1
asS'B'
p311
(lp312
I3
aI3
asS'Rare'
p313
(lp314
I1
aI1
asS'took'
p315
(lp316
I1
aI1
asS'challenge,https://instagram.com/p/ztka2DiTMj/&nbsp;'
p317
(lp318
I1
aI1
asS'up@rihannawith#FourFiveSeconds&gt;&gt;&gt;http://mtvne.ws/YVGVsp&nbsp;pic.twitter.com/L4OPC85Wkv'
p319
(lp320
I1
aI1
asS'scenes'
p321
(lp322
I1
aI1
asS'matter'
p323
(lp324
I1
aI1
asS'See'
p325
(lp326
I3
aI3
asS'happy?http://bbc.in/1FIUHum&nbsp;'
p327
(lp328
I1
aI1
asS'Morbidly'
p329
(lp330
I2
aI2
asS'well,'
p331
(lp332
I1
aI1
asS'do!'
p333
(lp334
I1
aI1
asS'-'
p335
(lp336
I3
aI3
asS'Band'
p337
(lp338
I1
aI1
asS'fitting'
p339
(lp340
I1
aI1
asS'They'
p341
(lp342
I1
aI1
asS'Happiest'
p343
(lp344
I1
aI1
asS'Official#GTAOnlinelivestreams'
p345
(lp346
I1
aI1
asS'Bank'
p347
(lp348
I1
aI1
asS'continuous'
p349
(lp350
I1
aI1
asS'long.#SwagChampHaha!https://instagram.com/p/z3bRm0CTPA/&nbsp;'
p351
(lp352
I1
aI1
asS'Wish'
p353
(lp354
I1
aI1
asS'Alabama'
p355
(lp356
I1
aI1
asS'clock'
p357
(lp358
I1
aI1
asS'dog'
p359
(lp360
I2
aI2
asS'on@YahooSportshttp://yhoo.it/carmelo&nbsp;'
p361
(lp362
I2
aI2
asS'(whether'
p363
(lp364
I1
aI1
asS'definitely'
p365
(lp366
I1
aI1
asS'Its'
p367
(lp368
I1
aI1
asS'labels'
p369
(lp370
I1
aI1
asS'Skylar'
p371
(lp372
I1
aI1
asS'&#39;Ebola-proof&#39;'
p373
(lp374
I1
aI1
asS'athttp://bit.ly/1MS6mZM&nbsp;pic.twitter.com/QfdoGLUqsc'
p375
(lp376
I1
aI1
asS'new#GTAOnlineAdversary'
p377
(lp378
I1
aI1
asS'crossfit'
p379
(lp380
I1
aI1
asS'of#CyclonePam:http://rdcrss.org/mPam&nbsp;'
p381
(lp382
I1
aI1
asS'can&#39;t'
p383
(lp384
I1
aI1
asS'LIVE'
p385
(lp386
I2
aI2
asS'mind!#PackYourBagspic.twitter.com/gpXShlUR96'
p387
(lp388
I1
aI1
asS'at#baselworld2015,'
p389
(lp390
I1
aI1
asS'headphoneshttp://ow.ly/IDzR6&nbsp;pic.twitter.com/lu9zl5N7vp'
p391
(lp392
I1
aI1
asS'announce'
p393
(lp394
I1
aI1
asS'Congrats@serenawilliamsat'
p395
(lp396
I1
aI1
asS'do'
p397
(lp398
I1
aI1
asS'rampage.'
p399
(lp400
I1
aI1
asS'jabhttp://bbc.in/1AWx2Qu&nbsp;'
p401
(lp402
I1
aI1
asS'watch'
p403
(lp404
I1
aI1
asS'secrets:http://vogue.cm/1C7jeb3&nbsp;'
p405
(lp406
I1
aI1
asS'wedding'
p407
(lp408
I1
aI1
asS'incredible.'
p409
(lp410
I1
aI1
asS'Tests.These'
p411
(lp412
I1
aI1
asS'birthday.pic.twitter.com/SyQdK2pGey'
p413
(lp414
I1
aI1
asS'Over'
p415
(lp416
I1
aI1
asS'happy:http://vogue.cm/19a8FrZ&nbsp;'
p417
(lp418
I1
aI1
asS'release'
p419
(lp420
I1
aI1
asS'them.'
p421
(lp422
I1
aI1
asS'disaster'
p423
(lp424
I1
aI1
asS'AED'
p425
(lp426
I1
aI1
asS'Reply'
p427
(lp428
I1
aI1
asS'25/11'
p429
(lp430
I1
aI1
asS'best'
p431
(lp432
I2
aI2
asS'lots'
p433
(lp434
I1
aI1
asS'away'
p435
(lp436
I2
aI2
asS'Play&quot;#GTAOnlineAdversary'
p437
(lp438
I1
aI1
asS'&#39;could'
p439
(lp440
I1
aI1
asS'embroidery'
p441
(lp442
I1
aI1
asS'drawn'
p443
(lp444
I1
aI1
asS'Syria.'
p445
(lp446
I1
aI1
asS'we&#39;ve'
p447
(lp448
I1
aI1
asS'we'
p449
(lp450
I7
aI6
asS'nature'
p451
(lp452
I1
aI1
asS'cut'
p453
(lp454
I1
aI1
asS'wear'
p455
(lp456
I3
aI3
asS'news'
p457
(lp458
I1
aI1
asS'Pegg.http://facebook.com/officialsimonpegg&nbsp;'
p459
(lp460
I1
aI1
asS'PSN'
p461
(lp462
I1
aI1
asS'Blessed'
p463
(lp464
I1
aI1
asS'Navy'
p465
(lp466
I1
aI1
asS'winter.'
p467
(lp468
I1
aI1
asS'tough'
p469
(lp470
I1
aI1
asS'new@Nikex'
p471
(lp472
I1
aI1
asS'She&#39;s'
p473
(lp474
I1
aI1
asS'Shout'
p475
(lp476
I1
aI1
asS'now,'
p477
(lp478
I1
aI1
asS'you&#39;re'
p479
(lp480
I1
aI1
asS'been'
p481
(lp482
I3
aI3
asS'much'
p483
(lp484
I2
aI2
asS'entered'
p485
(lp486
I1
aI1
asS'BIRTHDAY!!'
p487
(lp488
I1
aI1
asS'to#winhttp://bit.ly/AhXMA6&nbsp;in'
p489
(lp490
I1
aI1
asS'obese'
p491
(lp492
I2
aI2
asS'families'
p493
(lp494
I1
aI1
asS'spring,'
p495
(lp496
I1
aI1
asS'drugs'
p497
(lp498
I2
aI2
asS'&#39;Half'
p499
(lp500
I1
aI1
asS'#Heists,'
p501
(lp502
I1
aI1
asS'CF'
p503
(lp504
I1
aI1
asS'We&#39;ll'
p505
(lp506
I1
aI1
asS'brightening'
p507
(lp508
I1
aI1
asS'MAJOR'
p509
(lp510
I1
aI1
asS'has'
p511
(lp512
I2
aI2
asS'Rihanna!http://hbazaar.co/6013FmIv&nbsp;pic.twitter.com/KOa2r6xn1c'
p513
(lp514
I1
aI1
asS'n'
p515
(lp516
I1
aI1
asS'Follow'
p517
(lp518
I2
aI2
asS'photographed'
p519
(lp520
I1
aI1
asS'brother@Becksmeister&#39;s'
p521
(lp522
I1
aI1
asS'Choice#TFFAwards!http://i.victoria.com/4d2&nbsp;pic.twitter.com/CG6ji43kIa'
p523
(lp524
I1
aI1
asS'ofhttp://ThisIsMelo.com&nbsp;has'
p525
(lp526
I1
aI1
asS'is'
p527
(lp528
I23
aI23
asS'it'
p529
(lp530
I9
aI9
asS'Progress...'
p531
(lp532
I1
aI1
asS'Mens'
p533
(lp534
I2
aI2
asS'in'
p535
(lp536
I43
aI42
asS'@RihrihFreak:'
p537
(lp538
I1
aI1
asS'if'
p539
(lp540
I1
aI1
asS'things'
p541
(lp542
I1
aI1
asS'make'
p543
(lp544
I3
aI3
asS'Craig!!!!!'
p545
(lp546
I1
aI1
asS'onhttp://chanel-news.com/-fall-winter-2015-16-rtw&nbsp;pic.twitter.com/jwV7jGILFq'
p547
(lp548
I1
aI1
asS'&quot;8-Year-Old'
p549
(lp550
I1
aI1
asS'big'
p551
(lp552
I4
aI4
asS'with@BloodyBeetroots&amp;'
p553
(lp554
I1
aI1
asS'meets'
p555
(lp556
I1
aI1
asS'Maybe'
p557
(lp558
I2
aI2
asS'the#DreamworksHOMEsoundtrack'
p559
(lp560
I1
aI1
asS'kit'
p561
(lp562
I2
aI2
asS'fake.'
p563
(lp564
I1
aI1
asS'Bristol'
p565
(lp566
I1
aI1
asS'now.pic.twitter.com/u6HvvwH3PQ'
p567
(lp568
I1
aI1
asS'thoughts'
p569
(lp570
I1
aI1
asS'suffering'
p571
(lp572
I1
aI1
asS'live!!'
p573
(lp574
I1
aI1
asS'with@Facebook#NBAAllStarNYC#ThisIsMe7opic.twitter.com/5fBukDvvil'
p575
(lp576
I1
aI1
asS'week:http://vogue.cm/1MWQQKk&nbsp;'
p577
(lp578
I1
aI1
asS'controlhttp://bbc.in/1GXRp4y&nbsp;'
p579
(lp580
I1
aI1
asS'hearts'
p581
(lp582
I1
aI1
asS'the'
p583
(lp584
I88
aI80
asS'you&#39;ll'
p585
(lp586
I2
aI2
asS'shoe.#brasseriechanelMore'
p587
(lp588
I1
aI1
asS'via@racked:http://bit.ly/1xmes9u&nbsp;pic.twitter.com/yHGMrLBIBB'
p589
(lp590
I1
aI1
asS'matter!pic.twitter.com/CXjxE9kpjJ'
p591
(lp592
I1
aI1
asS'Thank'
p593
(lp594
I2
aI2
asS'just'
p595
(lp596
I2
aI2
asS'lost?http://bbc.in/1AD6a95&nbsp;'
p597
(lp598
I1
aI1
asS'kitties.pic.twitter.com/f0DD8zxIot'
p599
(lp600
I1
aI1
asS'thanks'
p601
(lp602
I1
aI1
asS'Happy'
p603
(lp604
I2
aI2
asS'Tess#FindTess'
p605
(lp606
I1
aI1
asS'character'
p607
(lp608
I1
aI1
asS'Soundtrack'
p609
(lp610
I1
aI1
asS'countrys'
p611
(lp612
I1
aI1
asS'save'
p613
(lp614
I2
aI2
asS'take'
p615
(lp616
I1
aI1
asS'http://THISISMELO.COM&nbsp;RT'
p617
(lp618
I1
aI1
asS'tmrw'
p619
(lp620
I1
aI1
asS'show#brasseriechanelpic.twitter.com/jHhEhBNtgr'
p621
(lp622
I1
aI1
asS'designers'
p623
(lp624
I1
aI1
asS'chicest'
p625
(lp626
I1
aI1
asS'apart'
p627
(lp628
I1
aI1
asS'Heart'
p629
(lp630
I1
aI1
asS'Palais'
p631
(lp632
I1
aI1
asS'w/#VSUltimateChallenge+#Contest!'
p633
(lp634
I1
aI1
asS'Nexus'
p635
(lp636
I1
aI1
asS'myself).'
p637
(lp638
I1
aI1
asS'country.'
p639
(lp640
I1
aI1
asS'specific'
p641
(lp642
I1
aI1
asS'Are'
p643
(lp644
I3
aI2
asS'night'
p645
(lp646
I2
aI2
asS'Hysterically'
p647
(lp648
I1
aI1
asS'right'
p649
(lp650
I3
aI3
asS'Children&#39;s'
p651
(lp652
I1
aI1
asS'people'
p653
(lp654
I1
aI1
asS'Been'
p655
(lp656
I2
aI2
asS'PERFECTION,@Sara_Sampaio!'
p657
(lp658
I1
aI1
asS'#PantyPartytime!'
p659
(lp660
I1
aI1
asS'show.#brasseriechanelMore'
p661
(lp662
I4
aI4
asS'for'
p663
(lp664
I33
aI31
asS'Siege'
p665
(lp666
I1
aI1
asS'creative'
p667
(lp668
I1
aI1
asS'Gifts'
p669
(lp670
I1
aI1
asS'latest#competitionfor'
p671
(lp672
I1
aI1
asS'Facebook'
p673
(lp674
I1
aI1
asS'onhttp://chanel-news.com/-fall-winter-2015-16-rtw&nbsp;pic.twitter.com/QjgZuwx80U'
p675
(lp676
I1
aI1
asS'adorable'
p677
(lp678
I1
aI1
asS'shelves:http://rdcrss.org/mrestock&nbsp;pic.twitter.com/hTxzhhnw0T'
p679
(lp680
I1
aI1
asS'winpic.twitter.com/WFWwKxh6nb'
p681
(lp682
I1
aI1
asS'Herehttp://bit.ly/1ACzegO&nbsp;pic.twitter.com/eOsZFkiCKg'
p683
(lp684
I1
aI1
asS'collection.#brasseriechanelpic.twitter.com/72ej5E4O5G'
p685
(lp686
I1
aI1
asS'illustration'
p687
(lp688
I1
aI1
asS'Place'
p689
(lp690
I1
aI1
asS'gavehttps://instagram.com/p/zyljxZiTJL/&nbsp;'
p691
(lp692
I1
aI1
asS'First'
p693
(lp694
I3
aI3
asS'Beckham'
p695
(lp696
I1
aI1
asS'Still'
p697
(lp698
I1
aI1
asS'ppl'
p699
(lp700
I2
aI2
asS'pair'
p701
(lp702
I3
aI3
asS'the#RedCross!http://rdcrss.org/LDSfilm&nbsp;pic.twitter.com/5Uq3LApciz'
p703
(lp704
I1
aI1
asS'Ends'
p705
(lp706
I1
aI1
asS'support'
p707
(lp708
I3
aI3
asS'class'
p709
(lp710
I1
aI1
asS'way'
p711
(lp712
I1
aI1
asS'editions'
p713
(lp714
I1
aI1
asS'was'
p715
(lp716
I2
aI2
asS'war'
p717
(lp718
I2
aI2
asS'Tune'
p719
(lp720
I1
aI1
asS'happy'
p721
(lp722
I1
aI1
asS'offer'
p723
(lp724
I1
aI1
asS'bust.#BigBrackettime'
p725
(lp726
I1
aI1
asS'4-player'
p727
(lp728
I1
aI1
asS'true'
p729
(lp730
I1
aI1
asS'Watchhttp://woobox.com/thvrws/2xewcc&nbsp;'
p731
(lp732
I1
aI1
asS'sis@YesJulz!!!'
p733
(lp734
I1
aI1
asS'congratulations'
p735
(lp736
I1
aI1
asS'athttp://www.nerdblock.com/r/Simonpegg&nbsp;.'
p737
(lp738
I1
aI1
asS'you!https://instagram.com/p/0KFGFBiTHS/&nbsp;'
p739
(lp740
I1
aI1
asS'Conned'
p741
(lp742
I1
aI1
asS'fashioned'
p743
(lp744
I1
aI1
asS'brother!'
p745
(lp746
I1
aI1
asS'sir!!!#TheLand#Playoffs2015#StriveForGreatness'
p747
(lp748
I1
aI1
asS'first.....'
p749
(lp750
I1
aI1
asS'no'
p751
(lp752
I1
aI1
asS'when'
p753
(lp754
I1
aI1
asS'Running'
p755
(lp756
I1
aI1
asS'digital'
p757
(lp758
I1
aI1
asS'test'
p759
(lp760
I1
aI1
asS'Square!'
p761
(lp762
I1
aI1
asS'Hunt'
p763
(lp764
I1
aI1
asS'Antoniohttp://ble.ac/1wCCD2Q&nbsp;@uninterrupted'
p765
(lp766
I1
aI1
asS'tonight.'
p767
(lp768
I1
aI1
asS'weekend'
p769
(lp770
I1
aI1
asS'kid!!!'
p771
(lp772
I1
aI1
asS'billion'
p773
(lp774
I1
aI1
asS'Color'
p775
(lp776
I1
aI1
asS'Win'
p777
(lp778
I4
aI4
asS'jacket'
p779
(lp780
I1
aI1
asS'Wit'
p781
(lp782
I1
aI1
asS'time'
p783
(lp784
I3
aI3
asS'5pic.twitter.com/L5Y3usOIxN'
p785
(lp786
I1
aI1
asS'serious'
p787
(lp788
I1
aI1
asS'lineup'
p789
(lp790
I2
aI2
asS':)'
p791
(lp792
I1
aI1
asS'You&#39;re'
p793
(lp794
I1
aI1
asS'global'
p795
(lp796
I1
aI1
asS'focus'
p797
(lp798
I1
aI1
asS'Genius.&#10;&#10;http://bit.ly/1GJuhqd&nbsp;pic.twitter.com/nbIH1dmp0U'
p799
(lp800
I1
aI1
asS'Trailerhttps://uk.yahoo.com/movies/man-up-simon-pegg-and-lake-bell-star-in-exclusive-114120188166.html?soc_src=unv-sh&amp;soc_trk=tw&nbsp;HC'
p801
(lp802
I1
aI1
asS'Pride'
p803
(lp804
I1
aI1
asS'zone'
p805
(lp806
I1
aI1
asS'Incredible'
p807
(lp808
I1
aI1
asS'Vista&quot;'
p809
(lp810
I1
aI1
asS'Believe'
p811
(lp812
I1
aI1
asS'our#GTAOnlineAdversary'
p813
(lp814
I1
aI1
asS'dress:http://vogue.cm/1HbKDbr&nbsp;'
p815
(lp816
I1
aI1
asS'responders'
p817
(lp818
I1
aI1
asS'Just'
p819
(lp820
I4
aI4
asS'presented'
p821
(lp822
I1
aI1
asS'team'
p823
(lp824
I1
aI1
asS'round'
p825
(lp826
I1
aI1
asS'Campaigners'
p827
(lp828
I1
aI1
asS'editor:http://vogue.cm/1I74IAE&nbsp;'
p829
(lp830
I1
aI1
asS'Red'
p831
(lp832
I3
aI3
asS'athttp://fastaw15.com&nbsp;#ThisIsMe7o#FASTAW15'
p833
(lp834
I1
aI1
asS'Bruce'
p835
(lp836
I1
aI1
asS'Hear'
p837
(lp838
I1
aI1
asS'L.A.'
p839
(lp840
I1
aI1
asS'international'
p841
(lp842
I1
aI1
asS'Me'
p843
(lp844
I1
aI1
asS'supporting'
p845
(lp846
I1
aI1
asS'Brilliant'
p847
(lp848
I1
aI1
asS'makeup'
p849
(lp850
I1
aI1
asS'ridin'
p851
(lp852
I1
aI1
asS'5pm'
p853
(lp854
I1
aI1
asS'Times'
p855
(lp856
I2
aI2
asS'My'
p857
(lp858
I3
aI3
asS'boy'
p859
(lp860
I1
aI1
asS'new@nilerodgersmusic'
p861
(lp862
I1
aI1
asS'brilliant'
p863
(lp864
I1
aI1
asS'boi'
p865
(lp866
I2
aI1
asS'love'
p867
(lp868
I1
aI1
asS'campaign.You'
p869
(lp870
I1
aI1
asS'forward+test'
p871
(lp872
I1
aI1
asS'When'
p873
(lp874
I2
aI2
asS'Lifey'
p875
(lp876
I1
aI1
asS'Stopping'
p877
(lp878
I1
aI1
asS'1st'
p879
(lp880
I3
aI3
asS'remember:http://vogue.cm/1I7XTPx&nbsp;pic.twitter.com/prxL8dtnEI'
p881
(lp882
I1
aI1
asS'Obsessed'
p883
(lp884
I1
aI1
asS'fawn.'
p885
(lp886
I1
aI1
asS'positive'
p887
(lp888
I1
aI1
asS'La'
p889
(lp890
I1
aI1
asS'visit'
p891
(lp892
I1
aI1
asS'nude:http://vogue.cm/1C7bh5t&nbsp;'
p893
(lp894
I1
aI1
asS'actor&amp;TIP'
p895
(lp896
I1
aI1
asS'sighted'
p897
(lp898
I1
aI1
asS'Fierce'
p899
(lp900
I1
aI1
asS'thru'
p901
(lp902
I2
aI2
asS'in-ear'
p903
(lp904
I1
aI1
asS'today'
p905
(lp906
I3
aI3
asS'son'
p907
(lp908
I2
aI2
asS'These'
p909
(lp910
I1
aI1
asS'Monday.'
p911
(lp912
I1
aI1
asS'cases'
p913
(lp914
I1
aI1
asS'on@Spotify!pic.twitter.com/X4o30PyGnz'
p915
(lp916
I1
aI1
asS'film,'
p917
(lp918
I1
aI1
asS'car'
p919
(lp920
I1
aI1
asS'flu'
p921
(lp922
I2
aI2
asS'cat'
p923
(lp924
I1
aI1
asS'wallet'
p925
(lp926
I1
aI1
asS'can'
p927
(lp928
I6
aI6
asS'following'
p929
(lp930
I2
aI1
asS'Our'
p931
(lp932
I2
aI2
asS'Out'
p933
(lp934
I1
aI1
asS'stream'
p935
(lp936
I3
aI3
asS'3/23.http://i.victoria.com/0hz&nbsp;pic.twitter.com/G3nGlBSUKK'
p937
(lp938
I1
aI1
asS'chic'
p939
(lp940
I1
aI1
asS'pink'
p941
(lp942
I3
aI3
asS'winter'
p943
(lp944
I1
aI1
asS'the#DreamWorksHOMEsoundtrack'
p945
(lp946
I1
aI1
asS'patients/staff'
p947
(lp948
I1
aI1
asS'onhttp://chanel-news.com/-fall-winter-2015-16-rtw&nbsp;#brasseriechanel'
p949
(lp950
I2
aI2
asS'Why'
p951
(lp952
I1
aI1
asS'Modes'
p953
(lp954
I3
aI3
asS'Always'
p955
(lp956
I1
aI1
asS'spot'
p957
(lp958
I1
aI1
asS'designed'
p959
(lp960
I1
aI1
asS'cardiac'
p961
(lp962
I1
aI1
asS'Naomi.'
p963
(lp964
I1
aI1
asS'View'
p965
(lp966
I2
aI2
asS'bro@realtristan13.'
p967
(lp968
I1
aI1
asS'Exclusive'
p969
(lp970
I2
aI2
asS'surfing'
p971
(lp972
I1
aI1
asS'&#39;hopeful&#39;'
p973
(lp974
I1
aI1
asS'(@apponlinelive'
p975
(lp976
I1
aI1
asS'onhttp://chanel-news.com/-fall-winter-2015-16-rtw&nbsp;pic.twitter.com/mqkWqL7Man'
p977
(lp978
I1
aI1
asS'so'
p979
(lp980
I2
aI2
asS'Recovery'
p981
(lp982
I1
aI1
asS'We&#39;re'
p983
(lp984
I3
aI3
asS'warninghttp://bbc.in/1B4woke&nbsp;'
p985
(lp986
I1
aI1
asS'years'
p987
(lp988
I4
aI4
asS'Rihanna'
p989
(lp990
I3
aI3
asS'equip'
p991
(lp992
I1
aI1
asS'White'
p993
(lp994
I1
aI1
asS'still'
p995
(lp996
I2
aI2
asS'RT'
p997
(lp998
I9
aI9
asS'thank'
p999
(lp1000
I2
aI2
asS'did.'
p1001
(lp1002
I1
aI1
asS'months.'
p1003
(lp1004
I1
aI1
asS'won!'
p1005
(lp1006
I1
aI1
asS'#LeanInTogether#DefineYourselfpic.twitter.com/IhWEzqhmWR'
p1007
(lp1008
I1
aI1
asS'World'
p1009
(lp1010
I2
aI2
asS'views'
p1011
(lp1012
I1
aI1
asS'conversations'
p1013
(lp1014
I1
aI1
asS'antibiotics&#39;http://bbc.in/1FGfqi8&nbsp;'
p1015
(lp1016
I1
aI1
asS'year.'
p1017
(lp1018
I1
aI1
asS'at:http://bit.ly/1xkLUNQ&nbsp;pic.twitter.com/4tOpuZ2Nq1'
p1019
(lp1020
I1
aI1
asS'not'
p1021
(lp1022
I1
aI1
asS'now'
p1023
(lp1024
I5
aI4
asS'Vogue'
p1025
(lp1026
I1
aI1
asS'Everything'
p1027
(lp1028
I1
aI1
asS'Mentality#GTAOnlinepic.twitter.com/L46akqMraC'
p1029
(lp1030
I1
aI1
asS'Simply'
p1031
(lp1032
I1
aI1
asS'Live'
p1033
(lp1034
I1
aI1
asS'Learned'
p1035
(lp1036
I1
aI1
asS'rise:http://vogue.cm/1FNS62l&nbsp;pic.twitter.com/e0ryvsC9cD'
p1037
(lp1038
I1
aI1
asS'disasters'
p1039
(lp1040
I2
aI2
asS'Sedona'
p1041
(lp1042
I1
aI1
asS'Welcome'
p1043
(lp1044
I1
aI1
asS'RTW'
p1045
(lp1046
I1
aI1
asS'show#brasseriechanelhttps://www.youtube.com/watch?v=eKPRfbxUNXQ&nbsp;'
p1047
(lp1048
I1
aI1
asS'shows'
p1049
(lp1050
I1
aI1
asS'disaster.'
p1051
(lp1052
I2
aI2
asS'RT!'
p1053
(lp1054
I1
aI1
asS'million'
p1055
(lp1056
I1
aI1
asS'Cover'
p1057
(lp1058
I1
aI1
asS'careers.'
p1059
(lp1060
I1
aI1
asS'fire.'
p1061
(lp1062
I1
aI1
asS'plea'
p1063
(lp1064
I1
aI1
asS'Pumped'
p1065
(lp1066
I1
aI1
asS'about#GiveWhatFireTakes:http://rdcrss.org/twlp-firetakes&nbsp;pic.twitter.com/geC8ECDGcT'
p1067
(lp1068
I1
aI1
asS'Options'
p1069
(lp1070
I1
aI1
asS'card'
p1071
(lp1072
I1
aI1
asS'100%'
p1073
(lp1074
I1
aI1
asS'turn'
p1075
(lp1076
I1
aI1
asS'Continue'
p1077
(lp1078
I1
aI1
asS'first'
p1079
(lp1080
I4
aI4
asS'wit#Ohand#thecatnamedPIG#DreamworksAnimationHOMEhttps://instagram.com/p/0OXNuLBM4o/&nbsp;'
p1081
(lp1082
I1
aI1
asS'jennnrosales'
p1083
(lp1084
I1
aI1
asS'Cross#GiveWhatFireTakes:http://rdcrss.org/twlp-firetakes&nbsp;pic.twitter.com/FXWBbW32II'
p1085
(lp1086
I1
aI1
asS'one'
p1087
(lp1088
I4
aI4
asS'Trailerhttps://uk.yahoo.com/movies/man-up-simon-pegg-and-lake-bell-star-in-exclusive-114120188166.html?soc_src=unv-sh&amp;soc_trk=tw&nbsp;via@yahoomovies'
p1089
(lp1090
I1
aI1
asS'vote'
p1091
(lp1092
I1
aI1
asS'ring'
p1093
(lp1094
I1
aI1
asS'Monday'
p1095
(lp1096
I1
aI1
asS'2'
p1097
(lp1098
I2
aI1
asS'Post'
p1099
(lp1100
I1
aI1
asS'speaking'
p1101
(lp1102
I1
aI1
asS'season:http://vogue.cm/1CE3Kf9&nbsp;pic.twitter.com/WdZHzzvAzQ'
p1103
(lp1104
I1
aI1
asS'on,'
p1105
(lp1106
I1
aI1
asS'that'
p1107
(lp1108
I1
aI1
asS'$100,000'
p1109
(lp1110
I1
aI1
asS'memo'
p1111
(lp1112
I1
aI1
asS'on!'
p1113
(lp1114
I1
aI1
asS'released'
p1115
(lp1116
I1
aI1
asS'than'
p1117
(lp1118
I3
aI3
asS'11'
p1119
(lp1120
I1
aI1
asS'10'
p1121
(lp1122
I4
aI4
asS'17'
p1123
(lp1124
I1
aI1
asS'for#KillMeThreeTimesstarring'
p1125
(lp1126
I1
aI1
asS'future'
p1127
(lp1128
I1
aI1
asS'and'
p1129
(lp1130
I26
aI23
asS'turned'
p1131
(lp1132
I1
aI1
asS'backing@ProstateUKs#MenUnitedcampaignhttp://menunited.prostatecanceruk.org/?p=pes&nbsp;Remember,'
p1133
(lp1134
I1
aI1
asS'effect.pic.twitter.com/2BrpOorw7H'
p1135
(lp1136
I1
aI1
asS'Call'
p1137
(lp1138
I1
aI1
asS'recover'
p1139
(lp1140
I1
aI1
asS'any'
p1141
(lp1142
I1
aI1
asS'now!!'
p1143
(lp1144
I1
aI1
asS'?#TowardsTheSun'
p1145
(lp1146
I1
aI1
asS'note'
p1147
(lp1148
I1
aI1
asS'&#10;&#10;http://bit.ly/1EDgiCJ&nbsp;'
p1149
(lp1150
I1
aI1
asS'online'
p1151
(lp1152
I1
aI1
asS'interior'
p1153
(lp1154
I1
aI1
asS'I&#39;m'
p1155
(lp1156
I5
aI4
asS'delayhttp://bbc.in/1AUA20T&nbsp;'
p1157
(lp1158
I1
aI1
asS'donation'
p1159
(lp1160
I1
aI1
asS'at@TKMaxx_UK'
p1161
(lp1162
I1
aI1
asS'freshman'
p1163
(lp1164
I1
aI1
asS'proud'
p1165
(lp1166
I1
aI1
asS'sale'
p1167
(lp1168
I1
aI1
asS'Don&#39;t'
p1169
(lp1170
I4
aI4
asS'tooth'
p1171
(lp1172
I1
aI1
asS'via@FanBridge.'
p1173
(lp1174
I1
aI1
asS'do#twinningbetter'
p1175
(lp1176
I1
aI1
asS'shot'
p1177
(lp1178
I1
aI1
asS'show'
p1179
(lp1180
I3
aI3
asS'shoe'
p1181
(lp1182
I1
aI1
asS'it&#39;s'
p1183
(lp1184
I3
aI3
asS'by#ChenMan&#10;@yusefhairnyc@mylahmorales#BazaarChinahttps://instagram.com/p/0GULEAhM3b/&nbsp;'
p1185
(lp1186
I1
aI1
asS'We'
p1187
(lp1188
I3
aI3
asS'Kansas'
p1189
(lp1190
I1
aI1
asS'-@RockstarGameswith@BloodyBeetroots+'
p1191
(lp1192
I1
aI1
asS'behind'
p1193
(lp1194
I1
aI1
asS'this,#GTAVw/@RockstarGames@twitch#NYCpic.twitter.com/A1ztb7Ht8H'
p1195
(lp1196
I1
aI1
asS'Subconscious'
p1197
(lp1198
I1
aI1
asS'only'
p1199
(lp1200
I3
aI3
asS'going'
p1201
(lp1202
I5
aI4
asS'get'
p1203
(lp1204
I5
aI5
asS'draw#Giveawaypic.twitter.com/gn5ZD2xO.'
p1205
(lp1206
I1
aI1
asS'truly'
p1207
(lp1208
I1
aI1
asS'celebrate'
p1209
(lp1210
I2
aI2
asS'athttp://i.imgur.com/VQPKhfU.png&nbsp;pic.twitter.com/JlLPobiVN8'
p1211
(lp1212
I1
aI1
asS'timepiece'
p1213
(lp1214
I1
aI1
asS'artist'
p1215
(lp1216
I1
aI1
asS'VIDEO:'
p1217
(lp1218
I6
aI6
asS'miles'
p1219
(lp1220
I1
aI1
asS'friends,'
p1221
(lp1222
I1
aI1
asS'husband'
p1223
(lp1224
I1
aI1
asS'on,#RedCrescentis'
p1225
(lp1226
I1
aI1
asS'Light&quot;#GTAV@RockstarGames@GTAJunkies@GTASnapmatic@PlanetRockstar@SanAndreasSnaps@SnapmaticArtpic.twitter.com/VXDN6fscXc'
p1227
(lp1228
I1
aI1
asS'Grand'
p1229
(lp1230
I1
aI1
asS'calendar'
p1231
(lp1232
I1
aI1
asS'sport'
p1233
(lp1234
I1
aI1
asS'encouraged'
p1235
(lp1236
I1
aI1
asS'That'
p1237
(lp1238
I3
aI3
asS'3'
p1239
(lp1240
I1
aI1
asS'83%'
p1241
(lp1242
I1
aI1
asS'across'
p1243
(lp1244
I2
aI2
asS'decks'
p1245
(lp1246
I1
aI1
asS'Pavilion'
p1247
(lp1248
I1
aI1
asS'store#ThisIsMe7o#TeamMe7o#BigThingsHappeningpic.twitter.com/0kEzFpwlvK'
p1249
(lp1250
I1
aI1
asS'Team'
p1251
(lp1252
I1
aI1
asS'small:http://rdcrss.org/tw-firetakes&nbsp;pic.twitter.com/4AZ6rzxVCn'
p1253
(lp1254
I1
aI1
asS'come'
p1255
(lp1256
I1
aI1
asS'#Springhas'
p1257
(lp1258
I1
aI1
asS'many'
p1259
(lp1260
I1
aI1
asS'Spider'
p1261
(lp1262
I1
aI1
asS'avail.'
p1263
(lp1264
I1
aI1
asS'#GiveWhatFireTakeswas'
p1265
(lp1266
I1
aI1
asS'&quot;Hasta'
p1267
(lp1268
I1
aI1
asS'color'
p1269
(lp1270
I1
aI1
asS'Note'
p1271
(lp1272
I1
aI1
asS'Pearl'
p1273
(lp1274
I1
aI1
asS'67'
p1275
(lp1276
I1
aI1
asS'68'
p1277
(lp1278
I1
aI1
asS'carer'
p1279
(lp1280
I1
aI1
asS'RJ&#39;s#HappyBirthdayRihannapost#HeMeltsMyHeart@rihannahttp://Instagram.com/p/zV5KRbENhN/&nbsp;'
p1281
(lp1282
I1
aI1
asS'Knew'
p1283
(lp1284
I1
aI1
asS'ICYMI'
p1285
(lp1286
I1
aI1
asS'featuring'
p1287
(lp1288
I1
aI1
asS'Rotary'
p1289
(lp1290
I2
aI2
asS'photos'
p1291
(lp1292
I3
aI3
asS'wake'
p1293
(lp1294
I1
aI1
asS'Learn'
p1295
(lp1296
I3
aI3
asS'Not,'
p1297
(lp1298
I1
aI1
asS'Wooho!'
p1299
(lp1300
I1
aI1
asS'those'
p1301
(lp1302
I1
aI1
asS'case'
p1303
(lp1304
I1
aI1
asS'10th#brasseriechanelpic.twitter.com/EyucXgaesN'
p1305
(lp1306
I1
aI1
asS'these'
p1307
(lp1308
I1
aI1
asS'BICYCLES'
p1309
(lp1310
I1
aI1
asS'coolest'
p1311
(lp1312
I1
aI1
asS'ha!#tweetoftheday@DWAnimation#HOME'
p1313
(lp1314
I1
aI1
asS'Slick'
p1315
(lp1316
I1
aI1
asS'sleeping'
p1317
(lp1318
I1
aI1
asS'Looking'
p1319
(lp1320
I1
aI1
asS'good'
p1321
(lp1322
I2
aI2
asS'different'
p1323
(lp1324
I1
aI1
asS'Towards'
p1325
(lp1326
I1
aI1
asS'granted'
p1327
(lp1328
I1
aI1
asS'collection.#brasseriechanelpic.twitter.com/Jo2EFSa0HX'
p1329
(lp1330
I1
aI1
asS'Blood'
p1331
(lp1332
I1
aI1
asS'week'
p1333
(lp1334
I1
aI1
asS'I'
p1335
(lp1336
I3
aI3
asS'rebuild:http://rdcrss.org/japaneq&nbsp;'
p1337
(lp1338
I1
aI1
asS'wired'
p1339
(lp1340
I1
aI1
asS'and#HeatThingsUp.http://i.victoria.com/mVY&nbsp;pic.twitter.com/Gi7nR034gQ'
p1341
(lp1342
I1
aI1
asS'Follow@TeamMe7o&amp;'
p1343
(lp1344
I1
aI1
asS'bottlethe'
p1345
(lp1346
I1
aI1
asS'Is'
p1347
(lp1348
I1
aI1
asS'It'
p1349
(lp1350
I2
aI2
asS'of#BeyondChampionships!#IPROMISEhttp://beyondchampionships.com/&nbsp;pic.twitter.com/nA91NtimuM'
p1351
(lp1352
I1
aI1
asS'In'
p1353
(lp1354
I4
aI4
asS'&quot;Come'
p1355
(lp1356
I1
aI1
asS'If'
p1357
(lp1358
I1
aI1
asS'It&#39;s'
p1359
(lp1360
I3
aI3
asS'summer'
p1361
(lp1362
I1
aI1
asS'being'
p1363
(lp1364
I1
aI1
asS'money'
p1365
(lp1366
I1
aI1
asS'April.pic.twitter.com/QbSxjfTxPM'
p1367
(lp1368
I1
aI1
asS'Up:'
p1369
(lp1370
I2
aI2
asS'mo.'
p1371
(lp1372
I1
aI1
asS'fashionable:@drassenovs'
p1373
(lp1374
I1
aI1
asS'Albawhy'
p1375
(lp1376
I1
aI1
asS'Giveaway'
p1377
(lp1378
I1
aI1
asS'Many'
p1379
(lp1380
I1
aI1
asS'world'
p1381
(lp1382
I2
aI2
asS'spokesman@brianjboyletalks'
p1383
(lp1384
I1
aI1
asS'collection.#brasseriechanelpic.twitter.com/y5LoZbe1iM'
p1385
(lp1386
I1
aI1
asS'Share'
p1387
(lp1388
I1
aI1
asS'$27.'
p1389
(lp1390
I1
aI1
asS'gon&#39;'
p1391
(lp1392
I1
aI1
asS'Man'
p1393
(lp1394
I3
aI3
asS'of#ManUp-'
p1395
(lp1396
I1
aI1
asS'competition'
p1397
(lp1398
I1
aI1
asS'pool.#BigBrackettime'
p1399
(lp1400
I1
aI1
asS'Destroy'
p1401
(lp1402
I1
aI1
asS'Leonard.'
p1403
(lp1404
I1
aI1
asS'beautifulpic.twitter.com/5crlxNX6vW'
p1405
(lp1406
I1
aI1
asS'competition!http://goo.gl/Clm7W&nbsp;#Win#CompetitionPlease'
p1407
(lp1408
I1
aI1
asS'memories'
p1409
(lp1410
I1
aI1
asS'Men'
p1411
(lp1412
I3
aI3
asS'Answers'
p1413
(lp1414
I1
aI1
asS'provider'
p1415
(lp1416
I1
aI1
asS'Mar.'
p1417
(lp1418
I1
aI1
asS':&#39;))'
p1419
(lp1420
I1
aI1
asS'tuned...#ThisIsMe7o#TeamMe7opic.twitter.com/mn7ZF26NFi'
p1421
(lp1422
I1
aI1
asS'Patriotic'
p1423
(lp1424
I1
aI1
asS'on'
p1425
(lp1426
I17
aI17
asS'of'
p1427
(lp1428
I43
aI40
asS'favorite'
p1429
(lp1430
I2
aI2
asS'them.Thank'
p1431
(lp1432
I1
aI1
asS'or'
p1433
(lp1434
I6
aI6
asS'out.'
p1435
(lp1436
I1
aI1
asS'Bags'
p1437
(lp1438
I1
aI1
asS'No'
p1439
(lp1440
I1
aI1
asS'Pegg.pic.twitter.com/S4ToOS4zWs'
p1441
(lp1442
I1
aI1
asS'from@steam_games.'
p1443
(lp1444
I1
aI1
asS'your'
p1445
(lp1446
I15
aI14
asS'what&#39;s'
p1447
(lp1448
I1
aI1
asS'her'
p1449
(lp1450
I3
aI3
asS'there'
p1451
(lp1452
I1
aI1
asS'decay&#39;http://bbc.in/1B4mNcY&nbsp;'
p1453
(lp1454
I1
aI1
asS'exceptional'
p1455
(lp1456
I1
aI1
asS'bubble'
p1457
(lp1458
I1
aI1
asS'soon!http://twitch.tv/rockstargames&nbsp;#GTAOnlineAdversary'
p1459
(lp1460
I1
aI1
asS'you.'
p1461
(lp1462
I1
aI1
asS'platelets'
p1463
(lp1464
I1
aI1
asS'Remember'
p1465
(lp1466
I1
aI1
asS'enough'
p1467
(lp1468
I1
aI1
asS'know-how'
p1469
(lp1470
I1
aI1
asS'with'
p1471
(lp1472
I8
aI7
asS'this.http://i.victoria.com/GE0&nbsp;pic.twitter.com/AqBZLuq964'
p1473
(lp1474
I1
aI1
asS'@hollyrpeete:'
p1475
(lp1476
I1
aI1
asS'Retweet'
p1477
(lp1478
I1
aI1
asS'with@CindyCrawfordand'
p1479
(lp1480
I1
aI1
asS'deep'
p1481
(lp1482
I1
aI1
asS'an'
p1483
(lp1484
I7
aI7
asS'How'
p1485
(lp1486
I2
aI2
asS'as'
p1487
(lp1488
I1
aI1
asS'at'
p1489
(lp1490
I12
aI12
asS'spends'
p1491
(lp1492
I1
aI1
asS'film'
p1493
(lp1494
I1
aI1
asS'commemorating#Selma50pic.twitter.com/vPQyPf4qf0'
p1495
(lp1496
I1
aI1
asS'packaging,'
p1497
(lp1498
I1
aI1
asS'5'
p1499
(lp1500
I1
aI1
asS'you'
p1501
(lp1502
I16
aI15
asS'Great'
p1503
(lp1504
I1
aI1
asS'guys)pic.twitter.com/VNjAcmDTFg'
p1505
(lp1506
I1
aI1
asS'pool'
p1507
(lp1508
I1
aI1
asS'of#techw/@made@katalystlive@intel.'
p1509
(lp1510
I1
aI1
asS'hard-working'
p1511
(lp1512
I1
aI1
asS'Years&quot;'
p1513
(lp1514
I1
aI1
asS'u'
p1515
(lp1516
I6
aI5
asS'baby!!!!'
p1517
(lp1518
I1
aI1
asS'original'
p1519
(lp1520
I2
aI2
asS'all'
p1521
(lp1522
I7
aI7
asS'forget'
p1523
(lp1524
I1
aI1
asS'founded'
p1525
(lp1526
I1
aI1
asS'cooperative'
p1527
(lp1528
I1
aI1
asS'talks'
p1529
(lp1530
I1
aI1
asS'follow'
p1531
(lp1532
I1
aI1
asS'children'
p1533
(lp1534
I1
aI1
asS'glimpse'
p1535
(lp1536
I1
aI1
asS'Elle'
p1537
(lp1538
I1
aI1
asS'to'
p1539
(lp1540
I66
aI56
asS'AKA@__Jerwin__pic.twitter.com/03KhjTtHQP'
p1541
(lp1542
I1
aI1
asS'Partially'
p1543
(lp1544
I1
aI1
asS'woman'
p1545
(lp1546
I1
aI1
asS'song'
p1547
(lp1548
I2
aI2
asS'very'
p1549
(lp1550
I2
aI2
asS'not):http://vogue.cm/1BemA7b&nbsp;'
p1551
(lp1552
I1
aI1
asS'guns&quot;'
p1553
(lp1554
I1
aI1
asS'fan'
p1555
(lp1556
I1
aI1
asS'Here&#39;s'
p1557
(lp1558
I2
aI2
asS'--'
p1559
(lp1560
I1
aI1
asS'size:http://vogue.cm/1MUBC8C&nbsp;'
p1561
(lp1562
I1
aI1
asS'list'
p1563
(lp1564
I1
aI1
asS'joined'
p1565
(lp1566
I1
aI1
asS'Kill'
p1567
(lp1568
I1
aI1
asS'for#JBC.'
p1569
(lp1570
I1
aI1
asS'raccoonspic.twitter.com/WOnEXsj3if'
p1571
(lp1572
I1
aI1
asS'LIVE:http://twitch.tv/rockstargames&nbsp;#NowPlayingThe'
p1573
(lp1574
I1
aI1
asS'lightning,'
p1575
(lp1576
I1
aI1
asS'on@YahooSportsto'
p1577
(lp1578
I1
aI1
asS'Gave'
p1579
(lp1580
I1
aI1
asS'what'
p1581
(lp1582
I1
aI1
asS'Gets'
p1583
(lp1584
I1
aI1
asS'brackets'
p1585
(lp1586
I1
aI1
asS'Tourney.'
p1587
(lp1588
I1
aI1
asS'Resort,'
p1589
(lp1590
I1
aI1
asS'brothers@kevinlove@KyrieIrving@RealTristan13@matthewdellyon'
p1591
(lp1592
I1
aI1
asS'tribute'
p1593
(lp1594
I1
aI1
asS'50.00.FF&amp;'
p1595
(lp1596
I1
aI1
asS'full'
p1597
(lp1598
I2
aI2
asS'Herald'
p1599
(lp1600
I1
aI1
asS'strong'
p1601
(lp1602
I1
aI1
asS'&quot;Breaking'
p1603
(lp1604
I1
aI1
asS'ahead'
p1605
(lp1606
I1
aI1
asS'experience'
p1607
(lp1608
I2
aI2
asS'pics'
p1609
(lp1610
I1
aI1
asS'must-see'
p1611
(lp1612
I1
aI1
asS'Holiday#Competition.'
p1613
(lp1614
I1
aI1
asS'family'
p1615
(lp1616
I1
aI1
asS'young'
p1617
(lp1618
I3
aI3
asS'parties.'
p1619
(lp1620
I1
aI1
asS'America!'
p1621
(lp1622
I1
aI1
asS'athttp://ustre.am/zV1i/1&nbsp;)'
p1623
(lp1624
I1
aI1
asS'lots!'
p1625
(lp1626
I1
aI1
asS'pragmaticinsanity.tumblr'
p1627
(lp1628
I1
aI1
asS'Lived'
p1629
(lp1630
I1
aI1
asS'takes'
p1631
(lp1632
I2
aI2
asS'two'
p1633
(lp1634
I1
aI1
asS'pearl'
p1635
(lp1636
I1
aI1
asS'watch.'
p1637
(lp1638
I1
aI1
asS'6'
p1639
(lp1640
I2
aI2
asS'OUR'
p1641
(lp1642
I1
aI1
asS'unthinkable'
p1643
(lp1644
I1
aI1
asS'more'
p1645
(lp1646
I5
aI5
asS'flat'
p1647
(lp1648
I1
aI1
asS'guestshttp://rsg.ms/090fcaa&nbsp;pic.twitter.com/F3ZyCfI43y'
p1649
(lp1650
I1
aI1
asS'So'
p1651
(lp1652
I1
aI1
asS'Adidas'
p1653
(lp1654
I1
aI1
asS'Instagrams'
p1655
(lp1656
I1
aI1
asS'bomber'
p1657
(lp1658
I1
aI1
asS'budgets'
p1659
(lp1660
I1
aI1
asS'learn'
p1661
(lp1662
I1
aI1
asS'Your'
p1663
(lp1664
I2
aI2
asS'history'
p1665
(lp1666
I1
aI1
asS'Hahahahttps://instagram.com/p/0VtSjwiTKd/&nbsp;'
p1667
(lp1668
I1
aI1
asS'!'
p1669
(lp1670
I1
aI1
asS'information'
p1671
(lp1672
I1
aI1
asS'collection.&#10;https://amp.twimg.com/v/58cddbc5-9b70-4dce-a24a-40d077e3bc94&nbsp;'
p1673
(lp1674
I1
aI1
asS'newhttp://thisismelo.com&nbsp;next'
p1675
(lp1676
I1
aI1
asS'their....'
p1677
(lp1678
I1
aI1
asS'I&#39;ve'
p1679
(lp1680
I1
aI1
asS'Dog'
p1681
(lp1682
I1
aI1
asS'Lagerfeld#brasseriechanelpic.twitter.com/yd4jCR4fMN'
p1683
(lp1684
I1
aI1
asS'blood'
p1685
(lp1686
I2
aI2
asS'coming'
p1687
(lp1688
I1
aI1
asS'Amazing@kidsrockliveshow'
p1689
(lp1690
I1
aI1
asS'a'
p1691
(lp1692
I33
aI28
asS'Snapmatics:http://rsg.ms/5fd27cf&nbsp;#GTAVpic.twitter.com/hiDrjgFKEh'
p1693
(lp1694
I1
aI1
asS'Lagerfeld'
p1695
(lp1696
I2
aI2
asS'Nerd'
p1697
(lp1698
I1
aI1
asS'our#GiveWhatFireTakescampaign:http://rdcrss.org/twlp-firetakes&nbsp;'
p1699
(lp1700
I1
aI1
asS'What'
p1701
(lp1702
I5
aI5
asS'help'
p1703
(lp1704
I4
aI4
asS'Games!#Compexathletes#pexing#StriveForGreatness@mikemancias1https://instagram.com/p/z8-XRYiTIx/&nbsp;'
p1705
(lp1706
I1
aI1
asS'committed'
p1707
(lp1708
I1
aI1
asS'its'
p1709
(lp1710
I1
aI1
asS'25'
p1711
(lp1712
I2
aI2
asS'style'
p1713
(lp1714
I2
aI2
asS'March'
p1715
(lp1716
I3
aI3
asS'21'
p1717
(lp1718
I1
aI1
asS'now!!!!'
p1719
(lp1720
I1
aI1
asS'RT#nipclub#findtess#tesshttp://twitter.com/MsLuLuPuppy/status/497561130634842113/photo/1pic.twitter.com/dxzyZVGg4m&nbsp;/s/K3y8&#10;&#10;http://m.twitter.com/tc1242000&nbsp;&#10;#NCTCpals'
p1721
(lp1722
I1
aI1
asS'it.'
p1723
(lp1724
I1
aI1
asS'someone'
p1725
(lp1726
I1
aI1
asS'Trailerhttp://simonpegg.net/2015/02/20/kill-me-three-times-red-band-trailer/&nbsp;'
p1727
(lp1728
I1
aI1
asS'largest'
p1729
(lp1730
I2
aI2
asS'3/23http://rsg.ms/3b177a0&nbsp;pic.twitter.com/c0KcP4hM65'
p1731
(lp1732
I1
aI1
asS'@FragranceFTDN'
p1733
(lp1734
I1
aI1
asS'always'
p1735
(lp1736
I2
aI2
asS'equality?'
p1737
(lp1738
I1
aI1
asS'how@loveeashlynis'
p1739
(lp1740
I1
aI1
asS'Thanks'
p1741
(lp1742
I1
aI1
asS'found'
p1743
(lp1744
I1
aI1
asS'Sounds'
p1745
(lp1746
I1
aI1
asS'trailer'
p1747
(lp1748
I1
aI1
asS'sketches'
p1749
(lp1750
I1
aI1
asS'Sports'
p1751
(lp1752
I2
aI2
asS'$1.8'
p1753
(lp1754
I1
aI1
asS'event'
p1755
(lp1756
I1
aI1
asS'really'
p1757
(lp1758
I1
aI1
asS'lipstick'
p1759
(lp1760
I2
aI2
asS'4pm'
p1761
(lp1762
I1
aI1
asS'since'
p1763
(lp1764
I1
aI1
asS'anothermagazine'
p1765
(lp1766
I1
aI1
asS'health'
p1767
(lp1768
I2
aI2
asS'7'
p1769
(lp1770
I1
aI1
asS'issue'
p1771
(lp1772
I1
aI1
asS'Warriors-inspired'
p1773
(lp1774
I1
aI1
asS'pair.'
p1775
(lp1776
I1
aI1
asS'with@BloodyBeetrootsand'
p1777
(lp1778
I1
aI1
asS'help#Vanuatuin'
p1779
(lp1780
I1
aI1
asS'reason'
p1781
(lp1782
I1
aI1
asS'on@VEVO!pic.twitter.com/lLkgYd1Zxl'
p1783
(lp1784
I1
aI1
asS'enter!...http://fb.me/1y4B3NUrI&nbsp;'
p1785
(lp1786
I1
aI1
asS'3@Jumpman23#M11All-Star'
p1787
(lp1788
I1
aI1
asS'Block'
p1789
(lp1790
I1
aI1
asS'FASCINATING.'
p1791
(lp1792
I1
aI1
asS'Chronograph'
p1793
(lp1794
I2
aI2
asS'benefits'
p1795
(lp1796
I1
aI1
asS'Simons'
p1797
(lp1798
I2
aI2
asS'onhttp://chanel-news.com/-fall-winter-2015-16-rtw&nbsp;&#10;https://amp.twimg.com/v/9a53a90c-6651-4a7b-94b0-d7f2c6419c77&nbsp;'
p1799
(lp1800
I1
aI1
asS'Past'
p1801
(lp1802
I1
aI1
asS'Pass'
p1803
(lp1804
I1
aI1
asS'Respect'
p1805
(lp1806
I1
aI1
asS'HD,'
p1807
(lp1808
I1
aI1
asS'Orchid'
p1809
(lp1810
I1
aI1
asS'emblazoned'
p1811
(lp1812
I1
aI1
asS'feel'
p1813
(lp1814
I2
aI2
asS'number'
p1815
(lp1816
I1
aI1
asS'feet'
p1817
(lp1818
I1
aI1
asS'Indian'
p1819
(lp1820
I1
aI1
asS'miss'
p1821
(lp1822
I1
aI1
asS'story'
p1823
(lp1824
I1
aI1
asS'by@inezandvinoodhin'
p1825
(lp1826
I1
aI1
asS'least'
p1827
(lp1828
I1
aI1
asS'ID'
p1829
(lp1830
I1
aI1
asS'follow@teamme7ofor'
p1831
(lp1832
I1
aI1
asS'for#GTAOnline,'
p1833
(lp1834
I1
aI1
asS'scheme'
p1835
(lp1836
I1
aI1
asS'option'
p1837
(lp1838
I1
aI1
asS'here.http://www.walmart.com/msharbor/ip/42068227?wmlspartner=wlpa&amp;wl0&amp;wl1=g&amp;wl2=c&amp;wl3=53411334992&amp;wl4&amp;wl5=pla&amp;wl6=88847729097&amp;veh=mweb:sem&nbsp;CF'
p1839
(lp1840
I1
aI1
asS'part'
p1841
(lp1842
I4
aI4
asS'show#brasseriechanel&#10;https://amp.twimg.com/v/d80a8fa6-be99-4177-98b3-01170e1bb11b&nbsp;'
p1843
(lp1844
I1
aI1
asS'kind'
p1845
(lp1846
I1
aI1
asS'brunch?#Decisions#WorkHardPlayHardhttp://i.victoria.com/dWl&nbsp;pic.twitter.com/B8SaBOwvoL'
p1847
(lp1848
I1
aI1
asS'with@SMSAudio&#39;s'
p1849
(lp1850
I1
aI1
asS'LIVE:http://twitch.tv/rockstargames&nbsp;#GTAOnlineAdversary'
p1851
(lp1852
I1
aI1
asS'Click'
p1853
(lp1854
I1
aI1
asS'by@mediangame'
p1855
(lp1856
I1
aI1
asS'Penn'
p1857
(lp1858
I1
aI1
asS'lil'
p1859
(lp1860
I1
aI1
asS'also'
p1861
(lp1862
I1
aI1
asS'finding'
p1863
(lp1864
I1
aI1
asS'lace.#HeatThingsUphttp://i.victoria.com/GD8&nbsp;pic.twitter.com/mQDpsrCuCl'
p1865
(lp1866
I1
aI1
asS'Pockit'
p1867
(lp1868
I1
aI1
asS'say...we'
p1869
(lp1870
I1
aI1
asS'Thx'
p1871
(lp1872
I2
aI2
asS'mileor'
p1873
(lp1874
I1
aI1
asS'reach'
p1875
(lp1876
I1
aI1
asS'thx@simonpegg-@tipcharitypatron'
p1877
(lp1878
I1
aI1
asS'most'
p1879
(lp1880
I3
aI3
asS'The'
p1881
(lp1882
I23
aI23
asS'approved'
p1883
(lp1884
I1
aI1
asS'.@KevinHart4Realknows!'
p1885
(lp1886
I1
aI1
asS'Breastfeeding'
p1887
(lp1888
I1
aI1
asS'Bridge'
p1889
(lp1890
I1
aI1
asS'understands'
p1891
(lp1892
I1
aI1
asS'RT@JadoreEllenRoseCompetition!'
p1893
(lp1894
I1
aI1
asS'humanitarian'
p1895
(lp1896
I1
aI1
asS'traditional'
p1897
(lp1898
I1
aI1
asS'Wifey'
p1899
(lp1900
I1
aI1
asS'lost?http://bbc.in/1DzQoBT&nbsp;'
p1901
(lp1902
I1
aI1
asS'available.http://rsg.ms/2411d56&nbsp;pic.twitter.com/a83GlwG619'
p1903
(lp1904
I1
aI1
asS'Has'
p1905
(lp1906
I2
aI2
asS'Premiere'
p1907
(lp1908
I1
aI1
asS'writer'
p1909
(lp1910
I1
aI1
asS'all:http://vogue.cm/1C7gZ7s&nbsp;'
p1911
(lp1912
I1
aI1
asS'his'
p1913
(lp1914
I2
aI2
asS'Africa.pic.twitter.com/PaspNhGlbG'
p1915
(lp1916
I1
aI1
asS'rest'
p1917
(lp1918
I1
aI1
asS'during'
p1919
(lp1920
I1
aI1
asS'season:http://vogue.cm/1MWT1gY&nbsp;'
p1921
(lp1922
I1
aI1
asS'Help'
p1923
(lp1924
I3
aI3
asS'with@NerdBlockand'
p1925
(lp1926
I1
aI1
asS'muhphucka!!!#iHeartAwards#iHeartNavy'
p1927
(lp1928
I1
aI1
asS'art'
p1929
(lp1930
I2
aI2
asS'For'
p1931
(lp1932
I1
aI1
asS'see'
p1933
(lp1934
I4
aI4
asS'are'
p1935
(lp1936
I6
aI5
asS'Cross!pic.twitter.com/Ffh3RLoIoA'
p1937
(lp1938
I1
aI1
asS'pictures'
p1939
(lp1940
I1
aI1
asS'please'
p1941
(lp1942
I2
aI2
asS'fans'
p1943
(lp1944
I1
aI1
asS'missing'
p1945
(lp1946
I1
aI1
asS'pedicuresjust'
p1947
(lp1948
I1
aI1
asS'small:http://rdcrss.org/tw-firetakes&nbsp;#GiveWhatFireTakes'
p1949
(lp1950
I1
aI1
asS'days!'
p1951
(lp1952
I1
aI1
asS'AND'
p1953
(lp1954
I2
aI2
asS'Pegg.'
p1955
(lp1956
I1
aI1
asS'Pegg!'
p1957
(lp1958
I1
aI1
asS'Yes'
p1959
(lp1960
I1
aI1
asS'whole'
p1961
(lp1962
I2
aI2
asS'Cotton'
p1963
(lp1964
I1
aI1
asS'you@Wawafor'
p1965
(lp1966
I1
aI1
asS'11/12.'
p1967
(lp1968
I1
aI1
asS'raise'
p1969
(lp1970
I1
aI1
asS'creativity'
p1971
(lp1972
I1
aI1
asS'describes'
p1973
(lp1974
I1
aI1
asS'Moss'
p1975
(lp1976
I2
aI2
asS'&#10;&#10;Found'
p1977
(lp1978
I2
aI2
asS'4'
p1979
(lp1980
I4
aI4
asS'fire'
p1981
(lp1982
I5
aI5
asS'fund'
p1983
(lp1984
I1
aI1
asS'Starting'
p1985
(lp1986
I1
aI1
asS'Michel'
p1987
(lp1988
I1
aI1
asS'Surface,'
p1989
(lp1990
I1
aI1
asS'the#Zoolander2momentmakeup'
p1991
(lp1992
I1
aI1
asS'Dont'
p1993
(lp1994
I1
aI1
asS'all-time'
p1995
(lp1996
I1
aI1
asS'straight'
p1997
(lp1998
I1
aI1
asS'fun'
p1999
(lp2000
I1
aI1
asS'Miss'
p2001
(lp2002
I2
aI2
asS'guide'
p2003
(lp2004
I3
aI3
asS'City'
p2005
(lp2006
I1
aI1
asS'supporters,'
p2007
(lp2008
I1
aI1
asS'Tip'
p2009
(lp2010
I1
aI1
asS'BIRTHDAY'
p2011
(lp2012
I1
aI1
asS'ready'
p2013
(lp2014
I1
aI1
asS'decor'
p2015
(lp2016
I1
aI1
asS'RT@apachehorsham#CompetitionWin'
p2017
(lp2018
I1
aI1
asS'Backstage'
p2019
(lp2020
I1
aI1
asS'conflict'
p2021
(lp2022
I1
aI1
asS'higher'
p2023
(lp2024
I1
aI1
asS'moment'
p2025
(lp2026
I1
aI1
asS'arrived'
p2027
(lp2028
I1
aI1
asS'recent'
p2029
(lp2030
I1
aI1
asS'Limited'
p2031
(lp2032
I1
aI1
asS'the#CarmeloAnthonyFoundation.#thisismelo#NBAAllStarNYCpic.twitter.com/jDungw33JR'
p2033
(lp2034
I1
aI1
asS'support!@simonpegg@Bristol_CCGpic.twitter.com/xCDM2NDL9n'
p2035
(lp2036
I1
aI1
asS'mini,'
p2037
(lp2038
I1
aI1
asS'honor'
p2039
(lp2040
I1
aI1
asS'Girl'
p2041
(lp2042
I1
aI1
asS'Karl'
p2043
(lp2044
I3
aI3
asS'ambassador'
p2045
(lp2046
I1
aI1
asS'Pegg'
p2047
(lp2048
I3
aI3
asS'world.pic.twitter.com/C3DiA2Gu7f'
p2049
(lp2050
I1
aI1
asS'press'
p2051
(lp2052
I2
aI2
asS'Earth!pic.twitter.com/bYHopsYVPE'
p2053
(lp2054
I1
aI1
asS'sandal'
p2055
(lp2056
I1
aI1
asS'tablet'
p2057
(lp2058
I1
aI1
asS'to@CoachDruJoyceon'
p2059
(lp2060
I1
aI1
asS'more!pic.twitter.com/p5JKQVmFDJ'
p2061
(lp2062
I1
aI1
asS'Front'
p2063
(lp2064
I1
aI1
asS'&#10;#DreamworksAnimationHOMEhttps://instagram.com/p/0ObkeNhMxU/&nbsp;'
p2065
(lp2066
I1
aI1
asS'excited'
p2067
(lp2068
I2
aI2
asS'On'
p2069
(lp2070
I1
aI1
asS'embroidery.#baselworld2015&#10;https://amp.twimg.com/v/da9f5534-e5fa-4876-9637-0d7c3565f4cf&nbsp;'
p2071
(lp2072
I1
aI1
asS'Welcoming'
p2073
(lp2074
I1
aI1
asS'Of'
p2075
(lp2076
I1
aI1
asS'sightings'
p2077
(lp2078
I1
aI1
asS'&#10;Shot'
p2079
(lp2080
I1
aI1
asS'arrest.pic.twitter.com/hCPAjRnPsc'
p2081
(lp2082
I1
aI1
asS'game'
p2083
(lp2084
I3
aI2
asS'bit'
p2085
(lp2086
I1
aI1
asS'Or'
p2087
(lp2088
I2
aI2
asS'Fan?'
p2089
(lp2090
I1
aI1
asS'panties'
p2091
(lp2092
I2
aI2
asS'success'
p2093
(lp2094
I1
aI1
asS'-30'
p2095
(lp2096
I1
aI1
asS'covered:http://rdcrss.org/1stAidApp&nbsp;#Firstaidapp#FerrellTakesTheField'
p2097
(lp2098
I1
aI1
asS'Beautifully'
p2099
(lp2100
I1
aI1
asS'timepieces'
p2101
(lp2102
I1
aI1
asS'didn&#39;t'
p2103
(lp2104
I1
aI1
asS'some'
p2105
(lp2106
I1
aI1
asS'back'
p2107
(lp2108
I1
aI1
asS'Pumped!'
p2109
(lp2110
I2
aI2
asS'mirror'
p2111
(lp2112
I1
aI1
asS'pale'
p2113
(lp2114
I1
aI1
asS'HAPPY'
p2115
(lp2116
I1
aI1
asS'Fire'
p2117
(lp2118
I1
aI1
asS'Albino'
p2119
(lp2120
I1
aI1
asS'Nothing'
p2121
(lp2122
I1
aI1
asS'be'
p2123
(lp2124
I11
aI11
asS'run'
p2125
(lp2126
I1
aI1
asS'the@WhiteHousetoday#WHFilmFest#bosswoman#powerplaybook#ruletheworld&#10;https://amp.twimg.com/v/2d89a0e3-e198-4c98-84bf-a44553c7d58a&nbsp;'
p2127
(lp2128
I1
aI1
asS'David'
p2129
(lp2130
I1
aI1
asS'Heists'
p2131
(lp2132
I1
aI1
asS'2/2'
p2133
(lp2134
I1
aI1
asS'by'
p2135
(lp2136
I13
aI13
asS'vaccine'
p2137
(lp2138
I2
aI2
asS'Pack'
p2139
(lp2140
I1
aI1
asS'onhttp://chanel-news.com/-fall-winter-2015-16-rtw&nbsp;pic.twitter.com/Zy2wOBB25S'
p2141
(lp2142
I1
aI1
asS'IVF'
p2143
(lp2144
I1
aI1
asS'working'
p2145
(lp2146
I1
aI1
asS'anything'
p2147
(lp2148
I1
aI1
asS'Scandalous'
p2149
(lp2150
I1
aI1
asS'I&#39;mhttps://instagram.com/p/0MKmB-CTHw/&nbsp;'
p2151
(lp2152
I1
aI1
asS'Future...'
p2153
(lp2154
I1
aI1
asS'forget:'
p2155
(lp2156
I1
aI1
asS'seeing'
p2157
(lp2158
I2
aI2
asS'Simon'
p2159
(lp2160
I6
aI6
asS'style:http://vogue.cm/1MVYBQL&nbsp;pic.twitter.com/iKobVaJLWo'
p2161
(lp2162
I1
aI1
asS'into'
p2163
(lp2164
I3
aI3
asS'Young'
p2165
(lp2166
I1
aI1
asS'Guestshttp://www.twitch.tv/rockstargames&nbsp;(Sorry'
p2167
(lp2168
I1
aI1
asS'Their'
p2169
(lp2170
I1
aI1
asS'momma'
p2171
(lp2172
I1
aI1
asS'lesson'
p2173
(lp2174
I2
aI2
asS'#COVERHarpersBazaar'
p2175
(lp2176
I1
aI1
asS'withhttps://instagram.com/p/z6TtFRBM64/&nbsp;'
p2177
(lp2178
I1
aI1
asS'(our'
p2179
(lp2180
I1
aI1
asS'Painted'
p2181
(lp2182
I1
aI1
asS'long'
p2183
(lp2184
I1
aI1
asS'custom'
p2185
(lp2186
I1
aI1
asS'u.'
p2187
(lp2188
I1
aI1
asS'Every'
p2189
(lp2190
I2
aI2
asS'soles:http://vogue.cm/1MUkAay&nbsp;'
p2191
(lp2192
I1
aI1
asS'homemade'
p2193
(lp2194
I1
aI1
asS'Come'
p2195
(lp2196
I1
aI1
asS'Editions#ThisIsMelopic.twitter.com/gGZxEn7O0H'
p2197
(lp2198
I1
aI1
asS'Details'
p2199
(lp2200
I1
aI1
asS'poster'
p2201
(lp2202
I1
aI1
asS't-shirt'
p2203
(lp2204
I2
aI1
asS'link'
p2205
(lp2206
I1
aI1
asS'Tourney'
p2207
(lp2208
I1
aI1
asS'deployed'
p2209
(lp2210
I1
aI1
asS'posted'
p2211
(lp2212
I1
aI1
asS'Dallas!'
p2213
(lp2214
I1
aI1
asS'Bell'
p2215
(lp2216
I2
aI2
asS'Awesome'
p2217
(lp2218
I1
aI1
asS'us'
p2219
(lp2220
I1
aI1
asS'ur'
p2221
(lp2222
I1
aI1
asS'Florence'
p2223
(lp2224
I1
aI1
asS'wearing@SMSAudiopic.twitter.com/ULJNeZeHG3'
p2225
(lp2226
I1
aI1
asS'Diggins'
p2227
(lp2228
I1
aI1
asS'single'
p2229
(lp2230
I1
aI1
asS'Twins'
p2231
(lp2232
I1
aI1
asS'developedhttp://bbc.in/1B8y2B6&nbsp;'
p2233
(lp2234
I1
aI1
asS'New'
p2235
(lp2236
I1
aI1
asS'harpersbazaarcn'
p2237
(lp2238
I1
aI1
asS'.@SMSAudiogiving'
p2239
(lp2240
I1
aI1
asS'Sun&quot;!!'
p2241
(lp2242
I1
aI1
asS'May'
p2243
(lp2244
I1
aI1
asS'Max'
p2245
(lp2246
I1
aI1
asS'stunning@JasTookesmakes'
p2247
(lp2248
I1
aI1
asS'Modepic.twitter.com/kLDsDCENPy'
p2249
(lp2250
I1
aI1
asS'new#OfficialAudioStreamingChartNo.1!'
p2251
(lp2252
I1
aI1
asS'Making'
p2253
(lp2254
I1
aI1
asS'March&#39;s@NerdBlockClassic!http://www.nerdblock.com/r/Simonpegg&nbsp;'
p2255
(lp2256
I1
aI1
asS'humbling,'
p2257
(lp2258
I1
aI1
asS'jabhttp://bbc.in/1AD6cxG&nbsp;'
p2259
(lp2260
I1
aI1
asS'An'
p2261
(lp2262
I2
aI2
asS'videos.'
p2263
(lp2264
I1
aI1
asS'fresh'
p2265
(lp2266
I1
aI1
asS'hello'
p2267
(lp2268
I1
aI1
asS'Luxe'
p2269
(lp2270
I1
aI1
asS'Feeding'
p2271
(lp2272
I1
aI1
asS'thanks@RockstarGamesfor'
p2273
(lp2274
I1
aI1
asS'degrees.pic.twitter.com/ueX8FMzdae'
p2275
(lp2276
I1
aI1
asS'go'
p2277
(lp2278
I2
aI2
asS'blood,'
p2279
(lp2280
I1
aI1
asS'Launching'
p2281
(lp2282
I1
aI1
asS'7/$27'
p2283
(lp2284
I1
aI1
asS'Lucky'
p2285
(lp2286
I1
aI1
asS'Payne'
p2287
(lp2288
I1
aI1
asS'Step'
p2289
(lp2290
I1
aI1
asS'position,'
p2291
(lp2292
I1
aI1
asS'Earrings!pic.twitter.com/hMo4TBgV#competition'
p2293
(lp2294
I1
aI1
asS'Now'
p2295
(lp2296
I1
aI1
asS'friendly'
p2297
(lp2298
I1
aI1
asS'sent'
p2299
(lp2300
I2
aI2
asS'featuring@MadMaxMovieUK,@EmWatson,@HayleyAtwelland@simonpegg!http://www.gamesradar.com/total-film-latest-issue/&nbsp;pic.twitter.com/YoVhAKxj9Y'
p2301
(lp2302
I1
aI1
asS'i&#39;m'
p2303
(lp2304
I1
aI1
asS'Enjoy'
p2305
(lp2306
I1
aI1
asS'Instagram,'
p2307
(lp2308
I1
aI1
asS'Scotlandhttp://www.heraldscotland.com/news/home-news/partially-sighted-man-in-new-plea-for-missing-guide-dog.24993186&nbsp;via@hsnewsbreak'
p2309
(lp2310
I1
aI1
asS'gettin'
p2311
(lp2312
I1
aI1
asS'try'
p2313
(lp2314
I1
aI1
asS'pants,'
p2315
(lp2316
I1
aI1
asS'THIS.#SecretRewardshttp://i.victoria.com/J1U&nbsp;pic.twitter.com/hguNaZHHg8'
p2317
(lp2318
I1
aI1
asS'two-tone'
p2319
(lp2320
I1
aI1
asS'video'
p2321
(lp2322
I2
aI2
asS'met#ChenMan&#10;Hair'
p2323
(lp2324
I1
aI1
asS'cope,'
p2325
(lp2326
I1
aI1
asS'that.'
p2327
(lp2328
I1
aI1
asS'3x'
p2329
(lp2330
I1
aI1
asS'plays'
p2331
(lp2332
I2
aI2
asS'Jessica'
p2333
(lp2334
I1
aI1
asS'giving'
p2335
(lp2336
I1
aI1
asS'Boys'
p2337
(lp2338
I1
aI1
asS'busy'
p2339
(lp2340
I1
aI1
asS'great'
p2341
(lp2342
I1
aI1
asS'US/PR'
p2343
(lp2344
I1
aI1
asS'us:http://vogue.cm/1OfJh4Q&nbsp;pic.twitter.com/wRbI6OvJbv'
p2345
(lp2346
I1
aI1
asS'involved'
p2347
(lp2348
I2
aI2
asS'submerged'
p2349
(lp2350
I1
aI1
asS'Download'
p2351
(lp2352
I1
aI1
asS'play.'
p2353
(lp2354
I1
aI1
asS'Pale'
p2355
(lp2356
I1
aI1
asS'10http://zagg.to/DYL4g2&nbsp;'
p2357
(lp2358
I1
aI1
asS'FW'
p2359
(lp2360
I1
aI1
asS'win'
p2361
(lp2362
I7
aI7
asS'With?'
p2363
(lp2364
I1
aI1
asS'wit'
p2365
(lp2366
I1
aI1
asS'new@SOPHIAWEBSTERwedding'
p2367
(lp2368
I1
aI1
asS'use'
p2369
(lp2370
I1
aI1
asS'from'
p2371
(lp2372
I13
aI13
asS'with@ohsnapjbsmoove&amp;'
p2373
(lp2374
I1
aI1
asS'few'
p2375
(lp2376
I1
aI1
asS'means'
p2377
(lp2378
I1
aI1
asS'made.#OwnTheBeachhttp://i.victoria.com/I1l&nbsp;pic.twitter.com/10cqPJk2qd'
p2379
(lp2380
I1
aI1
asS'1/2'
p2381
(lp2382
I1
aI1
asS'2015#kumhosweepswinners.#NBAAllStarNYCpic.twitter.com/9LLJVDalPx'
p2383
(lp2384
I1
aI1
asS'Sacai'
p2385
(lp2386
I1
aI1
asS'toohttp://withsyria.com&nbsp;@oxfamgb'
p2387
(lp2388
I1
aI1
asS'baby'
p2389
(lp2390
I1
aI1
asS'account'
p2391
(lp2392
I1
aI1
asS'this'
p2393
(lp2394
I8
aI8
asS'Tablet-a-day'
p2395
(lp2396
I1
aI1
asS'0800'
p2397
(lp2398
I1
aI1
asS'Mr.'
p2399
(lp2400
I1
aI1
asS'prompts'
p2401
(lp2402
I1
aI1
asS'to#win!'
p2403
(lp2404
I1
aI1
asS'sexy.#HeatThingsUphttp://i.victoria.com/HG1&nbsp;pic.twitter.com/Z9QxbpYbUe'
p2405
(lp2406
I1
aI1
asS'streamed'
p2407
(lp2408
I1
aI1
asS'slip'
p2409
(lp2410
I2
aI2
asS'in#Syria:http://rdcrss.org/syria4&nbsp;#RedforSyriapic.twitter.com/yn32WYrsbj'
p2411
(lp2412
I1
aI1
asS'something'
p2413
(lp2414
I1
aI1
asS'tab'
p2415
(lp2416
I1
aI1
asS'HUGE'
p2417
(lp2418
I1
aI1
asS'memorize'
p2419
(lp2420
I1
aI1
asS'LIVE:http://twitch.tv/rockstargames&nbsp;Playing'
p2421
(lp2422
I1
aI1
asS'challengeshttp://bbc.in/1AKGes9&nbsp;'
p2423
(lp2424
I1
aI1
asS'winners'
p2425
(lp2426
I1
aI1
asS'&quot;DROP'
p2427
(lp2428
I1
aI1
asS'by@ZAGGdaily:'
p2429
(lp2430
I1
aI1
asS'collection'
p2431
(lp2432
I1
aI1
asS'Mrs'
p2433
(lp2434
I1
aI1
asS'purpose.'
p2435
(lp2436
I1
aI1
asS'dealhttp://bbc.in/1Hfvw4e&nbsp;'
p2437
(lp2438
I1
aI1
asS'One'
p2439
(lp2440
I3
aI3
asS'fun.&#39;s'
p2441
(lp2442
I1
aI1
asS'Nenet'
p2443
(lp2444
I1
aI1
asS'necklace'
p2445
(lp2446
I1
aI1
asS'Kanye&#39;s'
p2447
(lp2448
I1
aI1
asS'move'
p2449
(lp2450
I1
aI1
asS'making.'
p2451
(lp2452
I1
aI1
asS'looks'
p2453
(lp2454
I1
aI1
asS'Final'
p2455
(lp2456
I1
aI1
asS'extinctpic.twitter.com/y2uwi5GU6F'
p2457
(lp2458
I1
aI1
asS'Congrats'
p2459
(lp2460
I2
aI2
asS'the@RockstarGamestwitch'
p2461
(lp2462
I1
aI1
asS'2015'
p2463
(lp2464
I3
aI3
asS'world.'
p2465
(lp2466
I1
aI1
asS'greater'
p2467
(lp2468
I1
aI1
asS'-http://fburls.com/63-xToFzgdW&nbsp;'
p2469
(lp2470
I1
aI1
asS'dat'
p2471
(lp2472
I1
aI1
asS'Pre-order'
p2473
(lp2474
I1
aI1
asS'Mother'
p2475
(lp2476
I1
aI1
asS'day'
p2477
(lp2478
I6
aI6
asS'San'
p2479
(lp2480
I1
aI1
asS'mode'
p2481
(lp2482
I1
aI1
asS'dog@therealjrsmithafter'
p2483
(lp2484
I1
aI1
asS'|'
p2485
(lp2486
I1
aI1
asS'From'
p2487
(lp2488
I3
aI3
asS'88'
p2489
(lp2490
I1
aI1
asS'Which'
p2491
(lp2492
I1
aI1
asS'our'
p2493
(lp2494
I8
aI8
asS'special'
p2495
(lp2496
I2
aI2
asS'out'
p2497
(lp2498
I14
aI14
asS'clinching'
p2499
(lp2500
I1
aI1
asS'res'
p2501
(lp2502
I1
aI1
asS'China'
p2503
(lp2504
I1
aI1
asS'smog'
p2505
(lp2506
I1
aI1
asS'jersey.#BigBrackethttp://yhoo.it/carmelo&nbsp;'
p2507
(lp2508
I1
aI1
asS'cause'
p2509
(lp2510
I1
aI1
asS'out!http://i.victoria.com/EZR&nbsp;pic.twitter.com/qQhz7PdN7I'
p2511
(lp2512
I1
aI1
asS'relate.'
p2513
(lp2514
I1
aI1
asS'This'
p2515
(lp2516
I4
aI4
asS'the#JapanEarthquake,#RedCrosscontinues'
p2517
(lp2518
I1
aI1
asS'Meet'
p2519
(lp2520
I1
aI1
asS'could'
p2521
(lp2522
I2
aI2
asS'skateboard'
p2523
(lp2524
I1
aI1
asS'her#GTAOnlinecharacterpic.twitter.com/3e1xMgmdkl'
p2525
(lp2526
I1
aI1
asS'Silhouette'
p2527
(lp2528
I1
aI1
asS'show#brasseriechanel.'
p2529
(lp2530
I1
aI1
asS'-for'
p2531
(lp2532
I1
aI1
asS'IG:panama_red1981pic.twitter.com/OsZr3CKTjD'
p2533
(lp2534
I1
aI1
asS'CHANEL'
p2535
(lp2536
I2
aI2
asS'playlist'
p2537
(lp2538
I1
aI1
asS'reasonsfrom'
p2539
(lp2540
I1
aI1
asS'guys'
p2541
(lp2542
I2
aI1
asS'their'
p2543
(lp2544
I4
aI3
asS'enough.'
p2545
(lp2546
I1
aI1
asS'man'
p2547
(lp2548
I1
aI1
asS'see.....'
p2549
(lp2550
I1
aI1
asS'Twitch'
p2551
(lp2552
I1
aI1
asS'Edition'
p2553
(lp2554
I1
aI1
asS'providing'
p2555
(lp2556
I1
aI1
asS'of@bigtalksince'
p2557
(lp2558
I1
aI1
asS'ITS'
p2559
(lp2560
I1
aI1
asS'8K+'
p2561
(lp2562
I1
aI1
asS'comfortable'
p2563
(lp2564
I1
aI1
asS'tonight'
p2565
(lp2566
I2
aI2
asS'have'
p2567
(lp2568
I8
aI8
asS'spattered'
p2569
(lp2570
I1
aI1
asS'celebrate#FragranceDay.http://i.victoria.com/CGM&nbsp;pic.twitter.com/OOOuLGMPVS'
p2571
(lp2572
I1
aI1
asS'purchasing'
p2573
(lp2574
I1
aI1
asS'Photos'
p2575
(lp2576
I1
aI1
asS'PS4'
p2577
(lp2578
I1
aI1
asS'Radio'
p2579
(lp2580
I1
aI1
asS'Siberia'
p2581
(lp2582
I1
aI1
asS'-&gt;http://ow.ly/aDbp9&nbsp;with@lowcostholidays#competition'
p2583
(lp2584
I1
aI1
asS'collaboration'
p2585
(lp2586
I2
aI2
asS'who'
p2587
(lp2588
I3
aI3
asS'more!pic.twitter.com/4AwmGRTcUb'
p2589
(lp2590
I1
aI1
asS'device'
p2591
(lp2592
I1
aI1
asS'gallery'
p2593
(lp2594
I1
aI1
asS'plumber'
p2595
(lp2596
I1
aI1
asS'stranded'
p2597
(lp2598
I1
aI1
asS'Aquaspeed'
p2599
(lp2600
I2
aI2
asS'Brown&#39;s'
p2601
(lp2602
I1
aI1
asS'WOW.https://instagram.com/p/z8_QTfCTKb/&nbsp;'
p2603
(lp2604
I1
aI1
asS'startedUS/PR'
p2605
(lp2606
I1
aI1
asS'cub.'
p2607
(lp2608
I1
aI1
asS'woes!!'
p2609
(lp2610
I1
aI1
asS'8%&#39;http://bbc.in/1B8UOJb&nbsp;'
p2611
(lp2612
I1
aI1
asS'shoes'
p2613
(lp2614
I1
aI1
asS'filmed'
p2615
(lp2616
I1
aI1
asS'Impeccable#GTAVpixel'
p2617
(lp2618
I1
aI1
asS'should'
p2619
(lp2620
I2
aI2
asS'jab'
p2621
(lp2622
I1
aI1
asS'nude:http://vogue.cm/1MVWIna&nbsp;pic.twitter.com/bh2hEaKKiS'
p2623
(lp2624
I1
aI1
asS'discovers'
p2625
(lp2626
I1
aI1
asS'-----&gt;http://smarturl.it/TowardsTheSun&nbsp;'
p2627
(lp2628
I1
aI1
asS'watching'
p2629
(lp2630
I1
aI1
asS'Keep'
p2631
(lp2632
I1
aI1
asS'Once'
p2633
(lp2634
I1
aI1
asS'tobacco'
p2635
(lp2636
I1
aI1
asS'damageshttp://bbc.in/1CBMqHx&nbsp;'
p2637
(lp2638
I1
aI1
asS'iPad'
p2639
(lp2640
I1
aI1
asS'the#GTAVgame'
p2641
(lp2642
I1
aI1
asS'Trevor#fanartbyhttp://chaosandentropy.tumblr.com/&nbsp;pic.twitter.com/MfMOI9KJbG'
p2643
(lp2644
I1
aI1
asS'Good'
p2645
(lp2646
I1
aI1
asS'routine'
p2647
(lp2648
I1
aI1
asS'cover!!@AnOtherMagazineat@coletteparis&amp;'
p2649
(lp2650
I1
aI1
asS'Privately-run'
p2651
(lp2652
I1
aI1
asS'.@simonpeggActually,'
p2653
(lp2654
I1
aI1
asS'Subway'
p2655
(lp2656
I1
aI1
asS'flats'
p2657
(lp2658
I1
aI1
asS'official:'
p2659
(lp2660
I1
aI1
asS'pleahttp://bbc.in/1CELp1n&nbsp;'
p2661
(lp2662
I1
aI1
asS'Bristol&#39;s'
p2663
(lp2664
I1
aI1
asS'a#firstdayofspringstate'
p2665
(lp2666
I1
aI1
asS'today?pic.twitter.com/GwdYIDjXgq'
p2667
(lp2668
I1
aI1
asS'LIVE:http://twitch.tv/rockstargames&nbsp;#NowPlayingthe'
p2669
(lp2670
I1
aI1
asS'equal'
p2671
(lp2672
I1
aI1
asS'net.#MarchHotness#OwnTheBeachhttp://i.victoria.com/We9&nbsp;pic.twitter.com/Un4zEhGgZB'
p2673
(lp2674
I1
aI1
asS'children@UHBristolNHS&#10;RT&amp;Donatehttp://ow.ly/3xwVVj&nbsp;'
p2675
(lp2676
I1
aI1
asS'herehttp://bit.ly/1C7oX0w&nbsp;pic.twitter.com/z52SH5tncL'
p2677
(lp2678
I1
aI1
asS'IQ&#39;http://bbc.in/1AWx2Qz&nbsp;'
p2679
(lp2680
I1
aI1
asS'goinghttps://instagram.com/p/0MeyjZCTFE/&nbsp;'
p2681
(lp2682
I1
aI1
asS'Modespic.twitter.com/srhqFpf9zp'
p2683
(lp2684
I1
aI1
asS'point(talking'
p2685
(lp2686
I1
aI1
asS'Get'
p2687
(lp2688
I6
aI6
asS'Pharrell&#39;s'
p2689
(lp2690
I1
aI1
asS'of#GTAV#fanartby@deviantARTs'
p2691
(lp2692
I1
aI1
asS'home,'
p2693
(lp2694
I2
aI2
asS'Trevor'
p2695
(lp2696
I1
aI1
asS'&quot;Towards'
p2697
(lp2698
I1
aI1
asS'volunteer'
p2699
(lp2700
I1
aI1
asS'ETpic.twitter.com/FZpGOp6p2L'
p2701
(lp2702
I1
aI1
asS'k1irving@realtristan13@i_am_iman@therealjrsmith#TheLand#SwagCliquehttps://instagram.com/p/0KEQMoCTGh/&nbsp;'
p2703
(lp2704
I1
aI1
asS'will'
p2705
(lp2706
I5
aI5
asS'vs'
p2707
(lp2708
I1
aI1
asS'defend-the-fort'
p2709
(lp2710
I1
aI1
asS'Toxic'
p2711
(lp2712
I1
aI1
asS'You'
p2713
(lp2714
I4
aI4
asS'#PantyParty&#39;s'
p2715
(lp2716
I1
aI1
asS'at@TribecaFilmFest!@TheTessMorris@lakebellhttp://tribecafilm.com/stories/tribeca-film-festival-2015-spotlight&nbsp;pic.twitter.com/sKlcs7xGwY'
p2717
(lp2718
I1
aI1
asS'Tumblr,'
p2719
(lp2720
I1
aI1
asS'words.@HauteTime@THEREALSWIZZZ#ThisIsMe7o&#10;https://amp.twimg.com/v/4eef07d5-bde4-4fc6-a2e8-24cf4e98d306&nbsp;'
p2721
(lp2722
I1
aI1
asS'of@lalafor'
p2723
(lp2724
I1
aI1
asS'mosaic'
p2725
(lp2726
I1
aI1
asS'&#39;linked'
p2727
(lp2728
I1
aI1
asS'alarm!#turnandtest.http://rdcrss.org/mSpringDST&nbsp;pic.twitter.com/4JG8lUS40b'
p2729
(lp2730
I1
aI1
asS'Rockstar'
p2731
(lp2732
I1
aI1
asS'i'
p2733
(lp2734
I2
aI2
asS'guru@patmcgrathrealwas'
p2735
(lp2736
I1
aI1
asS'privilege.'
p2737
(lp2738
I1
aI1
asS'Welch'
p2739
(lp2740
I1
aI1
asS'He&#39;s'
p2741
(lp2742
I1
aI1
asS'latest'
p2743
(lp2744
I1
aI1
asS'newest'
p2745
(lp2746
I1
aI1
asS'only.'
p2747
(lp2748
I1
aI1
asS'TIP'
p2749
(lp2750
I1
aI1
asS'director,'
p2751
(lp2752
I1
aI1
asS'you@LDSChurchfor'
p2753
(lp2754
I1
aI1
asS'chic?'
p2755
(lp2756
I1
aI1
asS'Victoria'
p2757
(lp2758
I1
aI1
asS'Fab'
p2759
(lp2760
I1
aI1
asS'World.pic.twitter.com/6IELnRou3d'
p2761
(lp2762
I1
aI1
asS'dress:http://vogue.cm/1C8cMjT&nbsp;'
p2763
(lp2764
I1
aI1
asS'spend@republicfashionhttp://on.fb.me/JfrwnS&nbsp;x'
p2765
(lp2766
I1
aI1
asS'know'
p2767
(lp2768
I4
aI4
asS'study#GTAVpic.twitter.com/CYAJQETyz7'
p2769
(lp2770
I1
aI1
asS'like'
p2771
(lp2772
I3
aI3
asS'lost'
p2773
(lp2774
I2
aI2
asS'THIS.#SecretRewardshttp://i.victoria.com/J1U&nbsp;pic.twitter.com/j2hanjtyA6'
p2775
(lp2776
I1
aI1
asS'page'
p2777
(lp2778
I1
aI1
asS'Simon&#39;s'
p2779
(lp2780
I2
aI2
asS'on.#HappyStPatricksDaypic.twitter.com/TV8mHjgByo'
p2781
(lp2782
I1
aI1
asS'Sun'
p2783
(lp2784
I2
aI2
asS'Arizona.pic.twitter.com/AY4gz5OYV3'
p2785
(lp2786
I1
aI1
asS'home'
p2787
(lp2788
I4
aI4
asS'ROI'
p2789
(lp2790
I1
aI1
asS'iPad,'
p2791
(lp2792
I1
aI1
asS'lean'
p2793
(lp2794
I1
aI1
asS'does'
p2795
(lp2796
I1
aI1
asS'passion'
p2797
(lp2798
I1
aI1
asS'Stairs'
p2799
(lp2800
I1
aI1
asS'schedule'
p2801
(lp2802
I1
aI1
asS'Ur'
p2803
(lp2804
I1
aI1
asS'signed#M11All'
p2805
(lp2806
I1
aI1
asS'Kindle'
p2807
(lp2808
I1
aI1
asS'&amp;'
p2809
(lp2810
I15
aI14
asS'lastnight'
p2811
(lp2812
I1
aI1
asS'Microsoft'
p2813
(lp2814
I1
aI1
asS'about'
p2815
(lp2816
I5
aI5
asS'rare'
p2817
(lp2818
I2
aI2
asS'Mental'
p2819
(lp2820
I1
aI1
asS'getting'
p2821
(lp2822
I1
aI1
asS'world!#BallGame#StriveForGreatness#Blessedhttps://instagram.com/p/0JVDEWiTCl/&nbsp;'
p2823
(lp2824
I1
aI1
asS'UK'
p2825
(lp2826
I1
aI1
asS'Two'
p2827
(lp2828
I1
aI1
asS'pretty.http://i.victoria.com/5TM&nbsp;pic.twitter.com/nbhuDJ3mLH'
p2829
(lp2830
I1
aI1
asS'playoff'
p2831
(lp2832
I1
aI1
asS'couldnt'
p2833
(lp2834
I1
aI1
asS'iMAG'
p2835
(lp2836
I1
aI1
asS'rayn34!!'
p2837
(lp2838
I1
aI1
asS'biggest'
p2839
(lp2840
I1
aI1
asS'svcs'
p2841
(lp2842
I1
aI1
asS'spring...#NOPE'
p2843
(lp2844
I1
aI1
asS'brand'
p2845
(lp2846
I1
aI1
asS'Fall-Winter'
p2847
(lp2848
I13
aI13
asS'but'
p2849
(lp2850
I2
aI2
asS'sock,'
p2851
(lp2852
I1
aI1
asS'highest'
p2853
(lp2854
I1
aI1
asS'Consumer'
p2855
(lp2856
I1
aI1
asS'he'
p2857
(lp2858
I1
aI1
asS'denim-on-denim'
p2859
(lp2860
I1
aI1
asS'icon@Rihannaonhttp://bit.ly/1AuLCDd&nbsp;.'
p2861
(lp2862
I1
aI1
asS'official'
p2863
(lp2864
I2
aI2
asS'signed'
p2865
(lp2866
I1
aI1
asS'below'
p2867
(lp2868
I1
aI1
asS'Kate'
p2869
(lp2870
I2
aI2
asS'Watchhttp://woobox.com/thvrws/2xewcc&nbsp;from@Watches2U'
p2871
(lp2872
I1
aI1
asS'pin'
p2873
(lp2874
I1
aI1
asS'pic'
p2875
(lp2876
I1
aI1
asS'Lake'
p2877
(lp2878
I2
aI2
asS'SNOW'
p2879
(lp2880
I1
aI1
asS'&quot;RIP'
p2881
(lp2882
I1
aI1
asS'Gaubert'
p2883
(lp2884
I1
aI1
asS'other'
p2885
(lp2886
I1
aI1
asS'sick'
p2887
(lp2888
I1
aI1
asS'star'
p2889
(lp2890
I1
aI1
asS'Rockhttps://instagram.com/p/0EvP4IiTAu/&nbsp;'
p2891
(lp2892
I1
aI1
asS'stay'
p2893
(lp2894
I2
aI2
asS'chance'
p2895
(lp2896
I6
aI6
asS'U'
p2897
(lp2898
I1
aI1
asS'death!'
p2899
(lp2900
I1
aI1
asS'friends'
p2901
(lp2902
I1
aI1
asS'South'
p2903
(lp2904
I1
aI1
asS'livestreamhttp://www.twitch.tv/rockstargames&nbsp;'
p2905
(lp2906
I1
aI1
asS'Wells.'
p2907
(lp2908
I1
aI1
asS'Discover'
p2909
(lp2910
I1
aI1
asS'Friday?'
p2911
(lp2912
I1
aI1
as.