(lp0
(iscraper
User
p1
(dp2
S'attraction'
p3
(lp4
I0
aI0
aI0
asS'name'
p5
S'armanjtehrani'
p6
sba(iscraper
User
p7
(dp8
g3
(lp9
I0
aI0
aI17
asg5
S'joof'
p10
sba(iscraper
User
p11
(dp12
g3
(lp13
I0
aI0
aI20
asg5
S'KingJames'
p14
sba(iscraper
User
p15
(dp16
g3
(lp17
I0
aI0
aI19
asg5
S'CHANEL'
p18
sba(iscraper
User
p19
(dp20
g3
(lp21
I0
aI0
aI20
asg5
S'simonpegg'
p22
sba(iscraper
User
p23
(dp24
g3
(lp25
I0
aI0
aI17
asg5
S'rihanna'
p26
sba(iscraper
User
p27
(dp28
g3
(lp29
I0
aI0
aI19
asg5
S'carmeloanthony'
p30
sba(iscraper
User
p31
(dp32
g3
(lp33
I0
aI0
aI20
asg5
S'VictoriasSecret'
p34
sba(iscraper
User
p35
(dp36
g3
(lp37
I0
aI0
aI20
asg5
S'RedCross'
p38
sba(iscraper
User
p39
(dp40
g3
(lp41
I0
aI0
aI21
asg5
S'RockstarGames'
p42
sba(iscraper
User
p43
(dp44
g3
(lp45
I0
aI0
aI20
asg5
S'planetepics'
p46
sba(iscraper
User
p47
(dp48
g3
(lp49
I0
aI0
aI20
asg5
S'voguemagazine'
p50
sba(iscraper
User
p51
(dp52
g3
(lp53
I0
aI0
aI18
asg5
S'nasahqphoto'
p54
sba(iscraper
User
p55
(dp56
g3
(lp57
I0
aI0
aI20
asg5
S'PlayStation'
p58
sba(iscraper
User
p59
(dp60
g3
(lp61
I0
aI0
aI20
asg5
S'Cristiano'
p62
sba(iscraper
User
p63
(dp64
g3
(lp65
I0
aI0
aI20
asg5
S'DogsTrust'
p66
sba(iscraper
User
p67
(dp68
g3
(lp69
I0
aI0
aI20
asg5
S'hsnewsbreak'
p70
sba(iscraper
User
p71
(dp72
g3
(lp73
I0
aI0
aI21
asg5
S'guidedogs'
p74
sba(iscraper
User
p75
(dp76
g3
(lp77
I0
aI0
aI20
asg5
S'ScotRail'
p78
sba(iscraper
User
p79
(dp80
g3
(lp81
I0
aI0
aI20
asg5
S'TravelineScot'
p82
sba(iscraper
User
p83
(dp84
g3
(lp85
I0
aI0
aI19
asg5
S'BBCTravelScot'
p86
sba(iscraper
User
p87
(dp88
g3
(lp89
I0
aI0
aI17
asg5
S'cannykay1'
p90
sba(iscraper
User
p91
(dp92
g3
(lp93
I0
aI0
aI16
asg5
S'dazhop'
p94
sba(iscraper
User
p95
(dp96
g3
(lp97
I0
aI0
aI21
asg5
S'trafficscotland'
p98
sba(iscraper
User
p99
(dp100
g3
(lp101
I0
aI0
aI20
asg5
S'Watches2U'
p102
sba(iscraper
User
p103
(dp104
g3
(lp105
I0
aI0
aI14
asg5
S'marciadorsey'
p106
sba(iscraper
User
p107
(dp108
g3
(lp109
I0
aI0
aI17
asg5
S'jack'
p110
sba(iscraper
User
p111
(dp112
g3
(lp113
I0
aI0
aI20
asg5
S'OurNameIsFun'
p114
sba(iscraper
User
p115
(dp116
g3
(lp117
I0
aI0
aI20
asg5
S'RakutenUK'
p118
sba(iscraper
User
p119
(dp120
g3
(lp121
I0
aI0
aI0
asg5
S'Tom_Morgs'
p122
sba(iscraper
User
p123
(dp124
g3
(lp125
I0
aI0
aI19
asg5
S'ao'
p126
sba(iscraper
User
p127
(dp128
g3
(lp129
I0
aI0
aI19
asg5
S'RussellHobbsUK'
p130
sba(iscraper
User
p131
(dp132
g3
(lp133
I0
aI0
aI20
asg5
S'JohnLegere'
p134
sba(iscraper
User
p135
(dp136
g3
(lp137
I0
aI0
aI19
asg5
S'ElizabethBanks'
p138
sba(iscraper
User
p139
(dp140
g3
(lp141
I0
aI0
aI19
asg5
S'KendrickPerkins'
p142
sba(iscraper
User
p143
(dp144
g3
(lp145
I0
aI0
aI19
asg5
S'ItsMeTamraD'
p146
sba(iscraper
User
p147
(dp148
g3
(lp149
I0
aI0
aI20
asg5
S'CarrieKeagan'
p150
sba(iscraper
User
p151
(dp152
g3
(lp153
I0
aI0
aI14
asg5
S'TrainwreckMovie'
p154
sba(iscraper
User
p155
(dp156
g3
(lp157
I0
aI0
aI20
asg5
S'Gibbsyyyy'
p158
sba(iscraper
User
p159
(dp160
g3
(lp161
I0
aI0
aI19
asg5
S'CoachDambrot'
p162
sba(iscraper
User
p163
(dp164
g3
(lp165
I0
aI0
aI18
asg5
S'TBurich'
p166
sba(iscraper
User
p167
(dp168
g3
(lp169
I0
aI0
aI20
asg5
S'uninterrupted'
p170
sba(iscraper
User
p171
(dp172
g3
(lp173
I0
aI0
aI20
asg5
S'Amanda_Furrer'
p174
sba(iscraper
User
p175
(dp176
g3
(lp177
I0
aI0
aI19
asg5
S'RealDealBeal23'
p178
sba(iscraper
User
p179
(dp180
g3
(lp181
I0
aI0
aI20
asg5
S'jtimberlake'
p182
sba(iscraper
User
p183
(dp184
g3
(lp185
I0
aI0
aI20
asg5
S'CharissaT'
p186
sba(iscraper
User
p187
(dp188
g3
(lp189
I0
aI0
aI20
asg5
S'MrCavalier34'
p190
sba(iscraper
User
p191
(dp192
g3
(lp193
I0
aI0
aI19
asg5
S'FSOAllieOop'
p194
sba(iscraper
User
p195
(dp196
g3
(lp197
I0
aI0
aI19
asg5
S'cavs'
p198
sba(iscraper
User
p199
(dp200
g3
(lp201
I0
aI0
aI17
asg5
S'ayoDO_o'
p202
sba(iscraper
User
p203
(dp204
g3
(lp205
I0
aI0
aI20
asg5
S'ImChrissyChriss'
p206
sba(iscraper
User
p207
(dp208
g3
(lp209
I0
aI0
aI19
asg5
S'fatbellybella'
p210
sba.