(lp0
(iscraper
User
p1
(dp2
S'attraction'
p3
(lp4
I0
aI0
aI0
asS'name'
p5
S'armanjtehrani'
p6
sba(iscraper
User
p7
(dp8
g3
(lp9
I0
aI0
aI17
asg5
S'joof'
p10
sba(iscraper
User
p11
(dp12
g3
(lp13
I0
aI0
aI20
asg5
S'KingJames'
p14
sba(iscraper
User
p15
(dp16
g3
(lp17
I0
aI0
aI19
asg5
S'CHANEL'
p18
sba(iscraper
User
p19
(dp20
g3
(lp21
I0
aI0
aI20
asg5
S'simonpegg'
p22
sba(iscraper
User
p23
(dp24
g3
(lp25
I0
aI0
aI17
asg5
S'rihanna'
p26
sba(iscraper
User
p27
(dp28
g3
(lp29
I0
aI0
aI19
asg5
S'carmeloanthony'
p30
sba(iscraper
User
p31
(dp32
g3
(lp33
I0
aI0
aI20
asg5
S'VictoriasSecret'
p34
sba(iscraper
User
p35
(dp36
g3
(lp37
I0
aI0
aI20
asg5
S'RedCross'
p38
sba(iscraper
User
p39
(dp40
g3
(lp41
I0
aI0
aI21
asg5
S'RockstarGames'
p42
sba(iscraper
User
p43
(dp44
g3
(lp45
I0
aI0
aI20
asg5
S'planetepics'
p46
sba(iscraper
User
p47
(dp48
g3
(lp49
I0
aI0
aI20
asg5
S'voguemagazine'
p50
sba(iscraper
User
p51
(dp52
g3
(lp53
I0
aI0
aI18
asg5
S'nasahqphoto'
p54
sba(iscraper
User
p55
(dp56
g3
(lp57
I0
aI0
aI20
asg5
S'PlayStation'
p58
sba(iscraper
User
p59
(dp60
g3
(lp61
I0
aI0
aI20
asg5
S'Cristiano'
p62
sba(iscraper
User
p63
(dp64
g3
(lp65
I0
aI0
aI20
asg5
S'DogsTrust'
p66
sba(iscraper
User
p67
(dp68
g3
(lp69
I0
aI0
aI20
asg5
S'hsnewsbreak'
p70
sba(iscraper
User
p71
(dp72
g3
(lp73
I0
aI0
aI21
asg5
S'guidedogs'
p74
sba(iscraper
User
p75
(dp76
g3
(lp77
I0
aI0
aI20
asg5
S'ScotRail'
p78
sba(iscraper
User
p79
(dp80
g3
(lp81
I0
aI0
aI20
asg5
S'TravelineScot'
p82
sba(iscraper
User
p83
(dp84
g3
(lp85
I0
aI0
aI19
asg5
S'BBCTravelScot'
p86
sba(iscraper
User
p87
(dp88
g3
(lp89
I0
aI0
aI17
asg5
S'cannykay1'
p90
sba(iscraper
User
p91
(dp92
g3
(lp93
I0
aI0
aI16
asg5
S'dazhop'
p94
sba(iscraper
User
p95
(dp96
g3
(lp97
I0
aI0
aI21
asg5
S'trafficscotland'
p98
sba(iscraper
User
p99
(dp100
g3
(lp101
I0
aI0
aI20
asg5
S'Watches2U'
p102
sba(iscraper
User
p103
(dp104
g3
(lp105
I0
aI0
aI14
asg5
S'marciadorsey'
p106
sba(iscraper
User
p107
(dp108
g3
(lp109
I0
aI0
aI17
asg5
S'jack'
p110
sba(iscraper
User
p111
(dp112
g3
(lp113
I0
aI0
aI20
asg5
S'OurNameIsFun'
p114
sba(iscraper
User
p115
(dp116
g3
(lp117
I0
aI0
aI20
asg5
S'RakutenUK'
p118
sba(iscraper
User
p119
(dp120
g3
(lp121
I0
aI0
aI0
asg5
S'Tom_Morgs'
p122
sba(iscraper
User
p123
(dp124
g3
(lp125
I0
aI0
aI19
asg5
S'ao'
p126
sba(iscraper
User
p127
(dp128
g3
(lp129
I0
aI0
aI19
asg5
S'RussellHobbsUK'
p130
sba(iscraper
User
p131
(dp132
g3
(lp133
I0
aI0
aI20
asg5
S'JohnLegere'
p134
sba(iscraper
User
p135
(dp136
g3
(lp137
I0
aI0
aI19
asg5
S'ElizabethBanks'
p138
sba(iscraper
User
p139
(dp140
g3
(lp141
I0
aI0
aI19
asg5
S'KendrickPerkins'
p142
sba(iscraper
User
p143
(dp144
g3
(lp145
I0
aI0
aI19
asg5
S'ItsMeTamraD'
p146
sba(iscraper
User
p147
(dp148
g3
(lp149
I0
aI0
aI20
asg5
S'CarrieKeagan'
p150
sba(iscraper
User
p151
(dp152
g3
(lp153
I0
aI0
aI14
asg5
S'TrainwreckMovie'
p154
sba(iscraper
User
p155
(dp156
g3
(lp157
I0
aI0
aI20
asg5
S'Gibbsyyyy'
p158
sba(iscraper
User
p159
(dp160
g3
(lp161
I0
aI0
aI19
asg5
S'CoachDambrot'
p162
sba(iscraper
User
p163
(dp164
g3
(lp165
I0
aI0
aI18
asg5
S'TBurich'
p166
sba(iscraper
User
p167
(dp168
g3
(lp169
I0
aI0
aI20
asg5
S'uninterrupted'
p170
sba(iscraper
User
p171
(dp172
g3
(lp173
I0
aI0
aI20
asg5
S'Amanda_Furrer'
p174
sba(iscraper
User
p175
(dp176
g3
(lp177
I0
aI0
aI19
asg5
S'RealDealBeal23'
p178
sba(iscraper
User
p179
(dp180
g3
(lp181
I0
aI0
aI20
asg5
S'jtimberlake'
p182
sba(iscraper
User
p183
(dp184
g3
(lp185
I0
aI0
aI20
asg5
S'CharissaT'
p186
sba(iscraper
User
p187
(dp188
g3
(lp189
I0
aI0
aI20
asg5
S'MrCavalier34'
p190
sba(iscraper
User
p191
(dp192
g3
(lp193
I0
aI0
aI19
asg5
S'FSOAllieOop'
p194
sba(iscraper
User
p195
(dp196
g3
(lp197
I0
aI0
aI19
asg5
S'cavs'
p198
sba(iscraper
User
p199
(dp200
g3
(lp201
I0
aI0
aI17
asg5
S'ayoDO_o'
p202
sba(iscraper
User
p203
(dp204
g3
(lp205
I0
aI0
aI20
asg5
S'ImChrissyChriss'
p206
sba(iscraper
User
p207
(dp208
g3
(lp209
I0
aI0
aI19
asg5
S'fatbellybella'
p210
sba(iscraper
User
p211
(dp212
g3
(lp213
I0
aI0
aI18
asg5
S'BahtheLegend'
p214
sba(iscraper
User
p215
(dp216
g3
(lp217
I0
aI0
aI17
asg5
S'OftenImitated_'
p218
sba(iscraper
User
p219
(dp220
g3
(lp221
I0
aI0
aI19
asg5
S'laurabrown99'
p222
sba(iscraper
User
p223
(dp224
g3
(lp225
I0
aI0
aI19
asg5
S'Vevo'
p226
sba(iscraper
User
p227
(dp228
g3
(lp229
I0
aI0
aI20
asg5
S'_sydneic'
p230
sba(iscraper
User
p231
(dp232
g3
(lp233
I0
aI0
aI20
asg5
S'NicoKartel'
p234
sba(iscraper
User
p235
(dp236
g3
(lp237
I0
aI0
aI19
asg5
S'iHateScottieToo'
p238
sba(iscraper
User
p239
(dp240
g3
(lp241
I0
aI0
aI19
asg5
S'10yearsofslay'
p242
sba(iscraper
User
p243
(dp244
g3
(lp245
I0
aI0
aI17
asg5
S'bmorenavy'
p246
sba(iscraper
User
p247
(dp248
g3
(lp249
I0
aI0
aI17
asg5
S'DNZLX'
p250
sba(iscraper
User
p251
(dp252
g3
(lp253
I0
aI0
aI19
asg5
S'Malamin_J'
p254
sba(iscraper
User
p255
(dp256
g3
(lp257
I0
aI0
aI19
asg5
S'MakeYouMyBitch'
p258
sba(iscraper
User
p259
(dp260
g3
(lp261
I0
aI0
aI10
asg5
S'KaiCole_'
p262
sba(iscraper
User
p263
(dp264
g3
(lp265
I0
aI0
aI20
asg5
S'SamerSum'
p266
sba(iscraper
User
p267
(dp268
g3
(lp269
I0
aI0
aI20
asg5
S'ciphasounds'
p270
sba(iscraper
User
p271
(dp272
g3
(lp273
I0
aI0
aI20
asg5
S'bhorowitz'
p274
sba(iscraper
User
p275
(dp276
g3
(lp277
I0
aI0
aI20
asg5
S'kevinlove'
p278
sba(iscraper
User
p279
(dp280
g3
(lp281
I0
aI0
aI20
asg5
S'Yg_Trece'
p282
sba(iscraper
User
p283
(dp284
g3
(lp285
I0
aI0
aI2
asg5
S'RichardCocks'
p286
sba(iscraper
User
p287
(dp288
g3
(lp289
I0
aI0
aI19
asg5
S'cecenightowl'
p290
sba(iscraper
User
p291
(dp292
g3
(lp293
I0
aI0
aI18
asg5
S'runlikemk'
p294
sba(iscraper
User
p295
(dp296
g3
(lp297
I0
aI0
aI16
asg5
S'jpknicks'
p298
sba(iscraper
User
p299
(dp300
g3
(lp301
I0
aI0
aI16
asg5
S'blossombubble'
p302
sba(iscraper
User
p303
(dp304
g3
(lp305
I0
aI0
aI17
asg5
S'DrinkPOWERCOCO'
p306
sba(iscraper
User
p307
(dp308
g3
(lp309
I0
aI0
aI16
asg5
S'HEBRUBRANTLEY'
p310
sba(iscraper
User
p311
(dp312
g3
(lp313
I0
aI0
aI17
asg5
S'kendricklamar'
p314
sba(iscraper
User
p315
(dp316
g3
(lp317
I0
aI0
aI19
asg5
S'ravinbracha'
p318
sba(iscraper
User
p319
(dp320
g3
(lp321
I0
aI0
aI20
asg5
S'LouisFarrakhan'
p322
sba(iscraper
User
p323
(dp324
g3
(lp325
I0
aI0
aI18
asg5
S'RealJasonKidd'
p326
sba(iscraper
User
p327
(dp328
g3
(lp329
I0
aI0
aI17
asg5
S'LewisHamilton'
p330
sba(iscraper
User
p331
(dp332
g3
(lp333
I0
aI0
aI14
asg5
S'MassaFelipe19'
p334
sba(iscraper
User
p335
(dp336
g3
(lp337
I0
aI0
aI19
asg5
S'kobebryant'
p338
sba(iscraper
User
p339
(dp340
g3
(lp341
I0
aI0
aI18
asg5
S'libbynicole1'
p342
sba(iscraper
User
p343
(dp344
g3
(lp345
I0
aI0
aI14
asg5
S'teamkoralreef'
p346
sba(iscraper
User
p347
(dp348
g3
(lp349
I0
aI0
aI16
asg5
S'PINK_Bubblessx3'
p350
sba(iscraper
User
p351
(dp352
g3
(lp353
I0
aI0
aI20
asg5
S'daishastar'
p354
sba(iscraper
User
p355
(dp356
g3
(lp357
I0
aI0
aI0
asg5
S'paracryptid'
p358
sba(iscraper
User
p359
(dp360
g3
(lp361
I0
aI0
aI17
asg5
S'TaySalo'
p362
sba(iscraper
User
p363
(dp364
g3
(lp365
I0
aI0
aI20
asg5
S'Phatyo'
p366
sba(iscraper
User
p367
(dp368
g3
(lp369
I0
aI0
aI17
asg5
S'x__kaatiee'
p370
sba(iscraper
User
p371
(dp372
g3
(lp373
I0
aI0
aI19
asg5
S'rebecca_dot'
p374
sba(iscraper
User
p375
(dp376
g3
(lp377
I0
aI0
aI18
asg5
S'mn_espngirl99'
p378
sba(iscraper
User
p379
(dp380
g3
(lp381
I0
aI0
aI18
asg5
S'vitasidorkina'
p382
sba(iscraper
User
p383
(dp384
g3
(lp385
I0
aI0
aI18
asg5
S'SuzFlooze'
p386
sba(iscraper
User
p387
(dp388
g3
(lp389
I0
aI0
aI17
asg5
S'MccradyMiasha'
p390
sba.