(lp0
(iscraper
User
p1
(dp2
S'attraction'
p3
(lp4
I0
aI0
aI0
asS'name'
p5
S'armanjtehrani'
p6
sba(iscraper
User
p7
(dp8
g3
(lp9
I0
aI0
aI17
asg5
S'joof'
p10
sba(iscraper
User
p11
(dp12
g3
(lp13
I0
aI0
aI20
asg5
S'KingJames'
p14
sba(iscraper
User
p15
(dp16
g3
(lp17
I0
aI0
aI19
asg5
S'CHANEL'
p18
sba(iscraper
User
p19
(dp20
g3
(lp21
I0
aI0
aI20
asg5
S'simonpegg'
p22
sba(iscraper
User
p23
(dp24
g3
(lp25
I0
aI0
aI17
asg5
S'rihanna'
p26
sba(iscraper
User
p27
(dp28
g3
(lp29
I0
aI0
aI19
asg5
S'carmeloanthony'
p30
sba(iscraper
User
p31
(dp32
g3
(lp33
I0
aI0
aI20
asg5
S'VictoriasSecret'
p34
sba(iscraper
User
p35
(dp36
g3
(lp37
I0
aI0
aI20
asg5
S'RedCross'
p38
sba(iscraper
User
p39
(dp40
g3
(lp41
I0
aI0
aI21
asg5
S'RockstarGames'
p42
sba(iscraper
User
p43
(dp44
g3
(lp45
I0
aI0
aI20
asg5
S'planetepics'
p46
sba(iscraper
User
p47
(dp48
g3
(lp49
I0
aI0
aI20
asg5
S'voguemagazine'
p50
sba(iscraper
User
p51
(dp52
g3
(lp53
I0
aI0
aI18
asg5
S'nasahqphoto'
p54
sba(iscraper
User
p55
(dp56
g3
(lp57
I0
aI0
aI20
asg5
S'PlayStation'
p58
sba(iscraper
User
p59
(dp60
g3
(lp61
I0
aI0
aI20
asg5
S'Cristiano'
p62
sba(iscraper
User
p63
(dp64
g3
(lp65
I0
aI0
aI20
asg5
S'DogsTrust'
p66
sba(iscraper
User
p67
(dp68
g3
(lp69
I0
aI0
aI20
asg5
S'hsnewsbreak'
p70
sba(iscraper
User
p71
(dp72
g3
(lp73
I0
aI0
aI21
asg5
S'guidedogs'
p74
sba(iscraper
User
p75
(dp76
g3
(lp77
I0
aI0
aI20
asg5
S'ScotRail'
p78
sba(iscraper
User
p79
(dp80
g3
(lp81
I0
aI0
aI20
asg5
S'TravelineScot'
p82
sba(iscraper
User
p83
(dp84
g3
(lp85
I0
aI0
aI19
asg5
S'BBCTravelScot'
p86
sba(iscraper
User
p87
(dp88
g3
(lp89
I0
aI0
aI17
asg5
S'cannykay1'
p90
sba(iscraper
User
p91
(dp92
g3
(lp93
I0
aI0
aI16
asg5
S'dazhop'
p94
sba(iscraper
User
p95
(dp96
g3
(lp97
I0
aI0
aI21
asg5
S'trafficscotland'
p98
sba(iscraper
User
p99
(dp100
g3
(lp101
I0
aI0
aI20
asg5
S'Watches2U'
p102
sba(iscraper
User
p103
(dp104
g3
(lp105
I0
aI0
aI14
asg5
S'marciadorsey'
p106
sba(iscraper
User
p107
(dp108
g3
(lp109
I0
aI0
aI17
asg5
S'jack'
p110
sba(iscraper
User
p111
(dp112
g3
(lp113
I0
aI0
aI20
asg5
S'OurNameIsFun'
p114
sba(iscraper
User
p115
(dp116
g3
(lp117
I0
aI0
aI20
asg5
S'RakutenUK'
p118
sba(iscraper
User
p119
(dp120
g3
(lp121
I0
aI0
aI0
asg5
S'Tom_Morgs'
p122
sba(iscraper
User
p123
(dp124
g3
(lp125
I0
aI0
aI19
asg5
S'ao'
p126
sba(iscraper
User
p127
(dp128
g3
(lp129
I0
aI0
aI19
asg5
S'RussellHobbsUK'
p130
sba(iscraper
User
p131
(dp132
g3
(lp133
I0
aI0
aI20
asg5
S'JohnLegere'
p134
sba(iscraper
User
p135
(dp136
g3
(lp137
I0
aI0
aI19
asg5
S'ElizabethBanks'
p138
sba(iscraper
User
p139
(dp140
g3
(lp141
I0
aI0
aI19
asg5
S'KendrickPerkins'
p142
sba(iscraper
User
p143
(dp144
g3
(lp145
I0
aI0
aI19
asg5
S'ItsMeTamraD'
p146
sba(iscraper
User
p147
(dp148
g3
(lp149
I0
aI0
aI20
asg5
S'CarrieKeagan'
p150
sba(iscraper
User
p151
(dp152
g3
(lp153
I0
aI0
aI14
asg5
S'TrainwreckMovie'
p154
sba(iscraper
User
p155
(dp156
g3
(lp157
I0
aI0
aI20
asg5
S'Gibbsyyyy'
p158
sba(iscraper
User
p159
(dp160
g3
(lp161
I0
aI0
aI19
asg5
S'CoachDambrot'
p162
sba(iscraper
User
p163
(dp164
g3
(lp165
I0
aI0
aI18
asg5
S'TBurich'
p166
sba(iscraper
User
p167
(dp168
g3
(lp169
I0
aI0
aI20
asg5
S'uninterrupted'
p170
sba(iscraper
User
p171
(dp172
g3
(lp173
I0
aI0
aI20
asg5
S'Amanda_Furrer'
p174
sba(iscraper
User
p175
(dp176
g3
(lp177
I0
aI0
aI19
asg5
S'RealDealBeal23'
p178
sba(iscraper
User
p179
(dp180
g3
(lp181
I0
aI0
aI20
asg5
S'jtimberlake'
p182
sba(iscraper
User
p183
(dp184
g3
(lp185
I0
aI0
aI20
asg5
S'CharissaT'
p186
sba(iscraper
User
p187
(dp188
g3
(lp189
I0
aI0
aI20
asg5
S'MrCavalier34'
p190
sba(iscraper
User
p191
(dp192
g3
(lp193
I0
aI0
aI19
asg5
S'FSOAllieOop'
p194
sba(iscraper
User
p195
(dp196
g3
(lp197
I0
aI0
aI19
asg5
S'cavs'
p198
sba(iscraper
User
p199
(dp200
g3
(lp201
I0
aI0
aI17
asg5
S'ayoDO_o'
p202
sba(iscraper
User
p203
(dp204
g3
(lp205
I0
aI0
aI20
asg5
S'ImChrissyChriss'
p206
sba(iscraper
User
p207
(dp208
g3
(lp209
I0
aI0
aI19
asg5
S'fatbellybella'
p210
sba(iscraper
User
p211
(dp212
g3
(lp213
I0
aI0
aI18
asg5
S'BahtheLegend'
p214
sba(iscraper
User
p215
(dp216
g3
(lp217
I0
aI0
aI17
asg5
S'OftenImitated_'
p218
sba(iscraper
User
p219
(dp220
g3
(lp221
I0
aI0
aI19
asg5
S'laurabrown99'
p222
sba(iscraper
User
p223
(dp224
g3
(lp225
I0
aI0
aI19
asg5
S'Vevo'
p226
sba(iscraper
User
p227
(dp228
g3
(lp229
I0
aI0
aI20
asg5
S'_sydneic'
p230
sba(iscraper
User
p231
(dp232
g3
(lp233
I0
aI0
aI20
asg5
S'NicoKartel'
p234
sba(iscraper
User
p235
(dp236
g3
(lp237
I0
aI0
aI19
asg5
S'iHateScottieToo'
p238
sba(iscraper
User
p239
(dp240
g3
(lp241
I0
aI0
aI19
asg5
S'10yearsofslay'
p242
sba(iscraper
User
p243
(dp244
g3
(lp245
I0
aI0
aI17
asg5
S'bmorenavy'
p246
sba(iscraper
User
p247
(dp248
g3
(lp249
I0
aI0
aI17
asg5
S'DNZLX'
p250
sba(iscraper
User
p251
(dp252
g3
(lp253
I0
aI0
aI19
asg5
S'Malamin_J'
p254
sba(iscraper
User
p255
(dp256
g3
(lp257
I0
aI0
aI19
asg5
S'MakeYouMyBitch'
p258
sba(iscraper
User
p259
(dp260
g3
(lp261
I0
aI0
aI10
asg5
S'KaiCole_'
p262
sba(iscraper
User
p263
(dp264
g3
(lp265
I0
aI0
aI20
asg5
S'SamerSum'
p266
sba(iscraper
User
p267
(dp268
g3
(lp269
I0
aI0
aI20
asg5
S'ciphasounds'
p270
sba(iscraper
User
p271
(dp272
g3
(lp273
I0
aI0
aI20
asg5
S'bhorowitz'
p274
sba(iscraper
User
p275
(dp276
g3
(lp277
I0
aI0
aI20
asg5
S'kevinlove'
p278
sba(iscraper
User
p279
(dp280
g3
(lp281
I0
aI0
aI20
asg5
S'Yg_Trece'
p282
sba(iscraper
User
p283
(dp284
g3
(lp285
I0
aI0
aI2
asg5
S'RichardCocks'
p286
sba(iscraper
User
p287
(dp288
g3
(lp289
I0
aI0
aI19
asg5
S'cecenightowl'
p290
sba(iscraper
User
p291
(dp292
g3
(lp293
I0
aI0
aI18
asg5
S'runlikemk'
p294
sba(iscraper
User
p295
(dp296
g3
(lp297
I0
aI0
aI16
asg5
S'jpknicks'
p298
sba(iscraper
User
p299
(dp300
g3
(lp301
I0
aI0
aI16
asg5
S'blossombubble'
p302
sba(iscraper
User
p303
(dp304
g3
(lp305
I0
aI0
aI17
asg5
S'DrinkPOWERCOCO'
p306
sba(iscraper
User
p307
(dp308
g3
(lp309
I0
aI0
aI16
asg5
S'HEBRUBRANTLEY'
p310
sba(iscraper
User
p311
(dp312
g3
(lp313
I0
aI0
aI17
asg5
S'kendricklamar'
p314
sba(iscraper
User
p315
(dp316
g3
(lp317
I0
aI0
aI19
asg5
S'ravinbracha'
p318
sba(iscraper
User
p319
(dp320
g3
(lp321
I0
aI0
aI20
asg5
S'LouisFarrakhan'
p322
sba(iscraper
User
p323
(dp324
g3
(lp325
I0
aI0
aI18
asg5
S'RealJasonKidd'
p326
sba(iscraper
User
p327
(dp328
g3
(lp329
I0
aI0
aI17
asg5
S'LewisHamilton'
p330
sba(iscraper
User
p331
(dp332
g3
(lp333
I0
aI0
aI14
asg5
S'MassaFelipe19'
p334
sba(iscraper
User
p335
(dp336
g3
(lp337
I0
aI0
aI19
asg5
S'kobebryant'
p338
sba(iscraper
User
p339
(dp340
g3
(lp341
I0
aI0
aI18
asg5
S'libbynicole1'
p342
sba(iscraper
User
p343
(dp344
g3
(lp345
I0
aI0
aI14
asg5
S'teamkoralreef'
p346
sba(iscraper
User
p347
(dp348
g3
(lp349
I0
aI0
aI16
asg5
S'PINK_Bubblessx3'
p350
sba(iscraper
User
p351
(dp352
g3
(lp353
I0
aI0
aI20
asg5
S'daishastar'
p354
sba(iscraper
User
p355
(dp356
g3
(lp357
I0
aI0
aI0
asg5
S'paracryptid'
p358
sba(iscraper
User
p359
(dp360
g3
(lp361
I0
aI0
aI17
asg5
S'TaySalo'
p362
sba(iscraper
User
p363
(dp364
g3
(lp365
I0
aI0
aI20
asg5
S'Phatyo'
p366
sba(iscraper
User
p367
(dp368
g3
(lp369
I0
aI0
aI17
asg5
S'x__kaatiee'
p370
sba(iscraper
User
p371
(dp372
g3
(lp373
I0
aI0
aI19
asg5
S'rebecca_dot'
p374
sba(iscraper
User
p375
(dp376
g3
(lp377
I0
aI0
aI18
asg5
S'mn_espngirl99'
p378
sba(iscraper
User
p379
(dp380
g3
(lp381
I0
aI0
aI18
asg5
S'vitasidorkina'
p382
sba(iscraper
User
p383
(dp384
g3
(lp385
I0
aI0
aI18
asg5
S'SuzFlooze'
p386
sba(iscraper
User
p387
(dp388
g3
(lp389
I0
aI0
aI17
asg5
S'MccradyMiasha'
p390
sba(iscraper
User
p391
(dp392
g3
(lp393
I0
aI0
aI20
asg5
S'Coach_Thumper'
p394
sba(iscraper
User
p395
(dp396
g3
(lp397
I0
aI0
aI20
asg5
S'Coach_Thumper'
p398
sba(iscraper
User
p399
(dp400
g3
(lp401
I0
aI0
aI20
asg5
S'Coach_Thumper'
p402
sba(iscraper
User
p403
(dp404
g3
(lp405
I0
aI0
aI20
asg5
S'No_IAintYaPoPs'
p406
sba(iscraper
User
p407
(dp408
g3
(lp409
I0
aI0
aI19
asg5
S'intlfamilylinks'
p410
sba(iscraper
User
p411
(dp412
g3
(lp413
I0
aI0
aI7
asg5
S'gchoquet'
p414
sba(iscraper
User
p415
(dp416
g3
(lp417
I0
aI0
aI20
asg5
S'DougBaldwinJr'
p418
sba(iscraper
User
p419
(dp420
g3
(lp421
I0
aI0
aI18
asg5
S'Aloha_Lexi'
p422
sba(iscraper
User
p423
(dp424
g3
(lp425
I0
aI0
aI20
asg5
S'imnicolewalters'
p426
sba(iscraper
User
p427
(dp428
g3
(lp429
I0
aI0
aI18
asg5
S'BadgerJake'
p430
sba(iscraper
User
p431
(dp432
g3
(lp433
I0
aI0
aI20
asg5
S'markcritch'
p434
sba(iscraper
User
p435
(dp436
g3
(lp437
I0
aI0
aI4
asg5
S'CarySanchezHope'
p438
sba(iscraper
User
p439
(dp440
g3
(lp441
I0
aI0
aI20
asg5
S'BorisKodjoe'
p442
sba(iscraper
User
p443
(dp444
g3
(lp445
I0
aI0
aI19
asg5
S'TomKierein'
p446
sba(iscraper
User
p447
(dp448
g3
(lp449
I0
aI0
aI19
asg5
S'JenniferBrigham'
p450
sba(iscraper
User
p451
(dp452
g3
(lp453
I0
aI0
aI18
asg5
S'BadFredRhodes'
p454
sba(iscraper
User
p455
(dp456
g3
(lp457
I0
aI0
aI6
asg5
S'mediangame'
p458
sba(iscraper
User
p459
(dp460
g3
(lp461
I0
aI0
aI17
asg5
S'davis_mccarthy'
p462
sba(iscraper
User
p463
(dp464
g3
(lp465
I0
aI0
aI19
asg5
S'drassenov'
p466
sba(iscraper
User
p467
(dp468
g3
(lp469
I0
aI0
aI0
asg5
S'__Jerwin__'
p470
sba(iscraper
User
p471
(dp472
g3
(lp473
I0
aI0
aI18
asg5
S'MaxScoville'
p474
sba(iscraper
User
p475
(dp476
g3
(lp477
I0
aI0
aI20
asg5
S'agentbizzle'
p478
sba(iscraper
User
p479
(dp480
g3
(lp481
I0
aI0
aI21
asg5
S'IIJERiiCHOII'
p482
sba(iscraper
User
p483
(dp484
g3
(lp485
I0
aI0
aI18
asg5
S'BloodyBeetroots'
p486
sba(iscraper
User
p487
(dp488
g3
(lp489
I0
aI0
aI20
asg5
S'ohsnapjbsmoove'
p490
sba(iscraper
User
p491
(dp492
g3
(lp493
I0
aI0
aI18
asg5
S'dimmak'
p494
sba(iscraper
User
p495
(dp496
g3
(lp497
I0
aI0
aI16
asg5
S'gtafiveallday'
p498
sba(iscraper
User
p499
(dp500
g3
(lp501
I0
aI0
aI19
asg5
S'Herbal_Gamer_89'
p502
sba(iscraper
User
p503
(dp504
g3
(lp505
I0
aI0
aI15
asg5
S'GTA_Society'
p506
sba(iscraper
User
p507
(dp508
g3
(lp509
I0
aI0
aI17
asg5
S'RealFPJr'
p510
sba(iscraper
User
p511
(dp512
g3
(lp513
I0
aI0
aI20
asg5
S'GTAGFX'
p514
sba(iscraper
User
p515
(dp516
g3
(lp517
I0
aI0
aI21
asg5
S'iCrazyTeddy'
p518
sba(iscraper
User
p519
(dp520
g3
(lp521
I0
aI0
aI19
asg5
S'MrNastyDJ'
p522
sba(iscraper
User
p523
(dp524
g3
(lp525
I0
aI0
aI14
asg5
S'Neville_fox82'
p526
sba(iscraper
User
p527
(dp528
g3
(lp529
I0
aI0
aI19
asg5
S'NicolaFarleigh'
p530
sba(iscraper
User
p531
(dp532
g3
(lp533
I0
aI0
aI19
asg5
S'chargraham99'
p534
sba(iscraper
User
p535
(dp536
g3
(lp537
I0
aI0
aI18
asg5
S'helsrouts'
p538
sba(iscraper
User
p539
(dp540
g3
(lp541
I0
aI0
aI16
asg5
S'Natasha2662'
p542
sba(iscraper
User
p543
(dp544
g3
(lp545
I0
aI0
aI17
asg5
S'Dyoxus'
p546
sba(iscraper
User
p547
(dp548
g3
(lp549
I0
aI0
aI17
asg5
S'SheridanJemma'
p550
sba(iscraper
User
p551
(dp552
g3
(lp553
I0
aI0
aI18
asg5
S'KingPrebs'
p554
sba(iscraper
User
p555
(dp556
g3
(lp557
I0
aI0
aI18
asg5
S'samanthayoungX'
p558
sba(iscraper
User
p559
(dp560
g3
(lp561
I0
aI0
aI19
asg5
S'Mikey_moo_86'
p562
sba(iscraper
User
p563
(dp564
g3
(lp565
I0
aI0
aI7
asg5
S'NellyWreland'
p566
sba(iscraper
User
p567
(dp568
g3
(lp569
I0
aI0
aI20
asg5
S'caitlinorman5'
p570
sba(iscraper
User
p571
(dp572
g3
(lp573
I0
aI0
aI13
asg5
S'lynsey_rainey'
p574
sba(iscraper
User
p575
(dp576
g3
(lp577
I0
aI0
aI20
asg5
S'DietzDonA'
p578
sba(iscraper
User
p579
(dp580
g3
(lp581
I0
aI0
aI19
asg5
S'VixLindsay'
p582
sba(iscraper
User
p583
(dp584
g3
(lp585
I0
aI0
aI19
asg5
S'jessieheyman'
p586
sba(iscraper
User
p587
(dp588
g3
(lp589
I0
aI0
aI19
asg5
S'MagnumPhotos'
p590
sba(iscraper
User
p591
(dp592
g3
(lp593
I0
aI0
aI2
asg5
S'wiickstrand'
p594
sba(iscraper
User
p595
(dp596
g3
(lp597
I0
aI0
aI19
asg5
S'henryandrel'
p598
sba(iscraper
User
p599
(dp600
g3
(lp601
I0
aI0
aI20
asg5
S'DefJamRecords'
p602
sba(iscraper
User
p603
(dp604
g3
(lp605
I0
aI0
aI20
asg5
S'gwneff'
p606
sba(iscraper
User
p607
(dp608
g3
(lp609
I0
aI0
aI6
asg5
S'ItsStarWarsTime'
p610
sba(iscraper
User
p611
(dp612
g3
(lp613
I0
aI0
aI20
asg5
S'solangeknowles'
p614
sba(iscraper
User
p615
(dp616
g3
(lp617
I0
aI0
aI16
asg5
S'iamwill'
p618
sba(iscraper
User
p619
(dp620
g3
(lp621
I0
aI0
aI19
asg5
S'spring'
p622
sba(iscraper
User
p623
(dp624
g3
(lp625
I0
aI0
aI18
asg5
S'rebeccabengal'
p626
sba(iscraper
User
p627
(dp628
g3
(lp629
I0
aI0
aI20
asg5
S'SophieElgort'
p630
sba(iscraper
User
p631
(dp632
g3
(lp633
I0
aI0
aI18
asg5
S'didiondoc'
p634
sba(iscraper
User
p635
(dp636
g3
(lp637
I0
aI0
aI19
asg5
S'THECORNERdotcom'
p638
sba(iscraper
User
p639
(dp640
g3
(lp641
I0
aI0
aI17
asg5
S'devhynes'
p642
sba(iscraper
User
p643
(dp644
g3
(lp645
I0
aI0
aI19
asg5
S'ulalaunch'
p646
sba(iscraper
User
p647
(dp648
g3
(lp649
I0
aI0
aI11
asg5
S'B_Millepied'
p650
sba(iscraper
User
p651
(dp652
g3
(lp653
I0
aI0
aI18
asg5
S'MichaelStarobin'
p654
sba(iscraper
User
p655
(dp656
g3
(lp657
I0
aI0
aI19
asg5
S'USSenatePhoto'
p658
sba(iscraper
User
p659
(dp660
g3
(lp661
I0
aI0
aI13
asg5
S'ingallsimages'
p662
sba(iscraper
User
p663
(dp664
g3
(lp665
I0
aI0
aI19
asg5
S'jakowsky'
p666
sba(iscraper
User
p667
(dp668
g3
(lp669
I0
aI0
aI20
asg5
S'JAXA_en'
p670
sba(iscraper
User
p671
(dp672
g3
(lp673
I0
aI0
aI20
asg5
S'AsteroidWatch'
p674
sba(iscraper
User
p675
(dp676
g3
(lp677
I0
aI0
aI20
asg5
S'NASA_Rain'
p678
sba(iscraper
User
p679
(dp680
g3
(lp681
I0
aI0
aI19
asg5
S'nytimesscience'
p682
sba(iscraper
User
p683
(dp684
g3
(lp685
I0
aI0
aI19
asg5
S'DavidWeaver'
p686
sba(iscraper
User
p687
(dp688
g3
(lp689
I0
aI0
aI20
asg5
S'geekdotcom'
p690
sba(iscraper
User
p691
(dp692
g3
(lp693
I0
aI0
aI19
asg5
S'keithwj'
p694
sba(iscraper
User
p695
(dp696
g3
(lp697
I0
aI0
aI18
asg5
S'JamesEstrin'
p698
sba(iscraper
User
p699
(dp700
g3
(lp701
I0
aI0
aI14
asg5
S'YasielPuig'
p702
sba(iscraper
User
p703
(dp704
g3
(lp705
I0
aI0
aI15
asg5
S'shaunwhite'
p706
sba(iscraper
User
p707
(dp708
g3
(lp709
I0
aI0
aI19
asg5
S'SnoopDogg'
p710
sba(iscraper
User
p711
(dp712
g3
(lp713
I0
aI0
aI17
asg5
S'ranminisce'
p714
sba(iscraper
User
p715
(dp716
g3
(lp717
I0
aI0
aI21
asg5
S'CallofDuty'
p718
sba(iscraper
User
p719
(dp720
g3
(lp721
I0
aI0
aI20
asg5
S'TheRealStanLee'
p722
sba(iscraper
User
p723
(dp724
g3
(lp725
I0
aI0
aI21
asg5
S'Polygon'
p726
sba(iscraper
User
p727
(dp728
g3
(lp729
I0
aI0
aI19
asg5
S'MichnaOfficial'
p730
sba(iscraper
User
p731
(dp732
g3
(lp733
I0
aI0
aI20
asg5
S'YachtClubGames'
p734
sba(iscraper
User
p735
(dp736
g3
(lp737
I0
aI0
aI20
asg5
S'FF_XIV_EN'
p738
sba(iscraper
User
p739
(dp740
g3
(lp741
I0
aI0
aI16
asg5
S'CapcomFighters'
p742
sba(iscraper
User
p743
(dp744
g3
(lp745
I0
aI0
aI0
asg5
S'IndiaMartinez'
p746
sba(iscraper
User
p747
(dp748
g3
(lp749
I0
aI0
aI0
asg5
S'JoaoMoutinho'
p750
sba(iscraper
User
p751
(dp752
g3
(lp753
I0
aI0
aI10
asg5
S'FALCAO'
p754
sba(iscraper
User
p755
(dp756
g3
(lp757
I0
aI0
aI1
asg5
S'jamesdrodriguez'
p758
sba(iscraper
User
p759
(dp760
g3
(lp761
I0
aI0
aI19
asg5
S'Trios22'
p762
sba(iscraper
User
p763
(dp764
g3
(lp765
I0
aI0
aI17
asg5
S'TAGHeuer'
p766
sba(iscraper
User
p767
(dp768
g3
(lp769
I0
aI0
aI20
asg5
S'sportlobster'
p770
sba(iscraper
User
p771
(dp772
g3
(lp773
I0
aI0
aI18
asg5
S'IFC_FIVES'
p774
sba(iscraper
User
p775
(dp776
g3
(lp777
I0
aI0
aI0
asg5
S'LukinhasMendes7'
p778
sba(iscraper
User
p779
(dp780
g3
(lp781
I0
aI0
aI6
asg5
S'CR7StrongChile'
p782
sba(iscraper
User
p783
(dp784
g3
(lp785
I0
aI0
aI18
asg5
S'Dynamomagician'
p786
sba(iscraper
User
p787
(dp788
g3
(lp789
I0
aI0
aI14
asg5
S'LilTunechi'
p790
sba(iscraper
User
p791
(dp792
g3
(lp793
I0
aI0
aI20
asg5
S'Herbalife'
p794
sba(iscraper
User
p795
(dp796
g3
(lp797
I0
aI0
aI19
asg5
S'FloydMayweather'
p798
sba(iscraper
User
p799
(dp800
g3
(lp801
I0
aI0
aI15
asg5
S'yago'
p802
sba(iscraper
User
p803
(dp804
g3
(lp805
I0
aI0
aI20
asg5
S'GAMEbyRonaldo'
p806
sba(iscraper
User
p807
(dp808
g3
(lp809
I0
aI0
aI12
asg5
S'AniiaUgaldee'
p810
sba(iscraper
User
p811
(dp812
g3
(lp813
I0
aI0
aI18
asg5
S'minironaldo19'
p814
sba(iscraper
User
p815
(dp816
g3
(lp817
I0
aI0
aI19
asg5
S'ChloeGrassOrkin'
p818
sba(iscraper
User
p819
(dp820
g3
(lp821
I0
aI0
aI16
asg5
S'Bethjonesi'
p822
sba(iscraper
User
p823
(dp824
g3
(lp825
I0
aI0
aI19
asg5
S'PADSKENNELS'
p826
sba(iscraper
User
p827
(dp828
g3
(lp829
I0
aI0
aI18
asg5
S'ASOS_Lucy'
p830
sba(iscraper
User
p831
(dp832
g3
(lp833
I0
aI0
aI14
asg5
S'michloomill'
p834
sba(iscraper
User
p835
(dp836
g3
(lp837
I0
aI0
aI18
asg5
S'mummie0661'
p838
sba(iscraper
User
p839
(dp840
g3
(lp841
I0
aI0
aI17
asg5
S'geeadams'
p842
sba(iscraper
User
p843
(dp844
g3
(lp845
I0
aI0
aI19
asg5
S'TheMalonesGB'
p846
sba(iscraper
User
p847
(dp848
g3
(lp849
I0
aI0
aI0
asg5
S'claire69373781'
p850
sba(iscraper
User
p851
(dp852
g3
(lp853
I0
aI0
aI19
asg5
S'Andrew_Whitelaw'
p854
sba(iscraper
User
p855
(dp856
g3
(lp857
I0
aI0
aI20
asg5
S'cherryewilson'
p858
sba(iscraper
User
p859
(dp860
g3
(lp861
I0
aI0
aI19
asg5
S'kate_wake'
p862
sba(iscraper
User
p863
(dp864
g3
(lp865
I0
aI0
aI1
asg5
S'barbarafromwath'
p866
sba(iscraper
User
p867
(dp868
g3
(lp869
I0
aI0
aI21
asg5
S'Metro_Bank'
p870
sba(iscraper
User
p871
(dp872
g3
(lp873
I0
aI0
aI19
asg5
S'almurray'
p874
sba(iscraper
User
p875
(dp876
g3
(lp877
I0
aI0
aI20
asg5
S'ashishskynews'
p878
sba(iscraper
User
p879
(dp880
g3
(lp881
I0
aI0
aI18
asg5
S'Fox1NtheBox'
p882
sba(iscraper
User
p883
(dp884
g3
(lp885
I1
aI1
aI20
asg5
S'Herald_Editor'
p886
sba(iscraper
User
p887
(dp888
g3
(lp889
I1
aI1
aI20
asg5
S'heraldscotland'
p890
sba(iscraper
User
p891
(dp892
g3
(lp893
I1
aI1
aI18
asg5
S'GuideDogsMMT'
p894
sba(iscraper
User
p895
(dp896
g3
(lp897
I1
aI1
aI18
asg5
S'Volonteurope'
p898
sba(iscraper
User
p899
(dp900
g3
(lp901
I1
aI1
aI19
asg5
S'nicestjob'
p902
sba(iscraper
User
p903
(dp904
g3
(lp905
I1
aI1
aI19
asg5
S'lopwert'
p906
sba(iscraper
User
p907
(dp908
g3
(lp909
I1
aI1
aI20
asg5
S'OutdoorsShow'
p910
sba(iscraper
User
p911
(dp912
g3
(lp913
I1
aI1
aI20
asg5
S'GdnVoluntary'
p914
sba(iscraper
User
p915
(dp916
g3
(lp917
I1
aI1
aI19
asg5
S'nfumcolchester'
p918
sba(iscraper
User
p919
(dp920
g3
(lp921
I1
aI1
aI19
asg5
S'JustSimonCowell'
p922
sba(iscraper
User
p923
(dp924
g3
(lp925
I1
aI1
aI18
asg5
S'ollyofficial'
p926
sba(iscraper
User
p927
(dp928
g3
(lp929
I1
aI1
aI19
asg5
S'lourobertshaw'
p930
sba(iscraper
User
p931
(dp932
g3
(lp933
I1
aI1
aI20
asg5
S'JustTextGiving'
p934
sba(iscraper
User
p935
(dp936
g3
(lp937
I1
aI1
aI21
asg5
S'buffer'
p938
sba(iscraper
User
p939
(dp940
g3
(lp941
I1
aI1
aI19
asg5
S'thehut_com'
p942
sba(iscraper
User
p943
(dp944
g3
(lp945
I1
aI1
aI20
asg5
S'Tog4ShortLives'
p946
sba(iscraper
User
p947
(dp948
g3
(lp949
I1
aI1
aI20
asg5
S'WellChild'
p950
sba(iscraper
User
p951
(dp952
g3
(lp953
I1
aI1
aI20
asg5
S'TippingPointITV'
p954
sba(iscraper
User
p955
(dp956
g3
(lp957
I1
aI1
aI16
asg5
S'itv2'
p958
sba(iscraper
User
p959
(dp960
g3
(lp961
I1
aI1
aI20
asg5
S'ITVTextSanta'
p962
sba(iscraper
User
p963
(dp964
g3
(lp965
I1
aI1
aI20
asg5
S'OhMyCrabcakes'
p966
sba(iscraper
User
p967
(dp968
g3
(lp969
I1
aI1
aI19
asg5
S'grant_roseanne'
p970
sba(iscraper
User
p971
(dp972
g3
(lp973
I1
aI1
aI19
asg5
S'NetworkRailEGIP'
p974
sba(iscraper
User
p975
(dp976
g3
(lp977
I1
aI1
aI19
asg5
S'Steoph'
p978
sba(iscraper
User
p979
(dp980
g3
(lp981
I1
aI1
aI18
asg5
S'3i1idh'
p982
sba(iscraper
User
p983
(dp984
g3
(lp985
I1
aI1
aI20
asg5
S'Lindamurray82'
p986
sba(iscraper
User
p987
(dp988
g3
(lp989
I1
aI1
aI19
asg5
S'Uzey_MohX'
p990
sba(iscraper
User
p991
(dp992
g3
(lp993
I1
aI1
aI16
asg5
S'alandunsmore1'
p994
sba(iscraper
User
p995
(dp996
g3
(lp997
I1
aI1
aI16
asg5
S'_Rhitweetx'
p998
sba(iscraper
User
p999
(dp1000
g3
(lp1001
I1
aI1
aI18
asg5
S'spookyjonathan'
p1002
sba(iscraper
User
p1003
(dp1004
g3
(lp1005
I1
aI1
aI19
asg5
S'gregmcmullen96'
p1006
sba(iscraper
User
p1007
(dp1008
g3
(lp1009
I1
aI1
aI17
asg5
S'SarahMcMast3r'
p1010
sba(iscraper
User
p1011
(dp1012
g3
(lp1013
I1
aI1
aI19
asg5
S'kevintowers'
p1014
sba(iscraper
User
p1015
(dp1016
g3
(lp1017
I1
aI1
aI19
asg5
S'beverbeverley'
p1018
sba(iscraper
User
p1019
(dp1020
g3
(lp1021
I1
aI1
aI19
asg5
S'neil_logan'
p1022
sba(iscraper
User
p1023
(dp1024
g3
(lp1025
I1
aI1
aI19
asg5
S'M4rkThorburn'
p1026
sba(iscraper
User
p1027
(dp1028
g3
(lp1029
I1
aI1
aI18
asg5
S'PaulThomsonEK'
p1030
sba(iscraper
User
p1031
(dp1032
g3
(lp1033
I1
aI1
aI21
asg5
S'BTP'
p1034
sba(iscraper
User
p1035
(dp1036
g3
(lp1037
I1
aI1
aI19
asg5
S'TrapezeGroupUK'
p1038
sba(iscraper
User
p1039
(dp1040
g3
(lp1041
I1
aI1
aI20
asg5
S'ArgyllFerries'
p1042
sba(iscraper
User
p1043
(dp1044
g3
(lp1045
I1
aI1
aI19
asg5
S'PentlandFerries'
p1046
sba(iscraper
User
p1047
(dp1048
g3
(lp1049
I1
aI1
aI20
asg5
S'CalMac_Updates'
p1050
sba(iscraper
User
p1051
(dp1052
g3
(lp1053
I1
aI1
aI20
asg5
S'StagecoachNScot'
p1054
sba(iscraper
User
p1055
(dp1056
g3
(lp1057
I1
aI1
aI19
asg5
S'TransportTimes'
p1058
sba(iscraper
User
p1059
(dp1060
g3
(lp1061
I1
aI1
aI19
asg5
S'StagecoachWScot'
p1062
sba(iscraper
User
p1063
(dp1064
g3
(lp1065
I1
aI1
aI20
asg5
S'Simpli_info'
p1066
sba(iscraper
User
p1067
(dp1068
g3
(lp1069
F0.0
aF0.0
aI19
asg5
S'crosscountryuk'
p1070
sba(iscraper
User
p1071
(dp1072
g3
(lp1073
F0.0
aF0.0
aI20
asg5
S'TwitterUKI_SME'
p1074
sba(iscraper
User
p1075
(dp1076
g3
(lp1077
F0.0
aF0.0
aI19
asg5
S'CalMacFerries'
p1078
sba(iscraper
User
p1079
(dp1080
g3
(lp1081
F0.0
aF0.0
aI19
asg5
S'PerrymansBuses'
p1082
sba(iscraper
User
p1083
(dp1084
g3
(lp1085
F0.0
aF0.0
aI19
asg5
S'PLUSBUS_UK'
p1086
sba(iscraper
User
p1087
(dp1088
g3
(lp1089
F0.0
aF0.0
aI18
asg5
S'GoAheadGroup'
p1090
sba(iscraper
User
p1091
(dp1092
g3
(lp1093
F0.0
aF0.0
aI20
asg5
S'northsound1'
p1094
sba(iscraper
User
p1095
(dp1096
g3
(lp1097
F0.0
aF0.0
aI19
asg5
S'johnco'
p1098
sba(iscraper
User
p1099
(dp1100
g3
(lp1101
F0.0
aF0.0
aI19
asg5
S'NETrunkRoads'
p1102
sba(iscraper
User
p1103
(dp1104
g3
(lp1105
F0.0
aF0.0
aI20
asg5
S'bbcweather'
p1106
sba(iscraper
User
p1107
(dp1108
g3
(lp1109
F0.0
aF0.0
aI20
asg5
S'BritPanopticon'
p1110
sba(iscraper
User
p1111
(dp1112
g3
(lp1113
F0.0
aF0.0
aI20
asg5
S'STVNews'
p1114
sba(iscraper
User
p1115
(dp1116
g3
(lp1117
F0.0
aF0.0
aI20
asg5
S'Daily_Record'
p1118
sba(iscraper
User
p1119
(dp1120
g3
(lp1121
F0.0
aF0.0
aI19
asg5
S'BBCMarkDaly'
p1122
sba(iscraper
User
p1123
(dp1124
g3
(lp1125
F0.0
aF0.0
aI19
asg5
S'STN_Airport'
p1126
sba(iscraper
User
p1127
(dp1128
g3
(lp1129
F0.0
aF0.0
aI19
asg5
S'LDNLutonAirport'
p1130
sba(iscraper
User
p1131
(dp1132
g3
(lp1133
F0.0
aF0.0
aI19
asg5
S'AmazonUK'
p1134
sba(iscraper
User
p1135
(dp1136
g3
(lp1137
F0.0
aF0.0
aI20
asg5
S'SETrunkRoads'
p1138
sba(iscraper
User
p1139
(dp1140
g3
(lp1141
F0.0
aF0.0
aI19
asg5
S'BBCNews'
p1142
sba(iscraper
User
p1143
(dp1144
g3
(lp1145
F0.0
aF0.0
aI20
asg5
S'BBCBreaking'
p1146
sba(iscraper
User
p1147
(dp1148
g3
(lp1149
F0.0
aF0.0
aI19
asg5
S'hbthewriter'
p1150
sba(iscraper
User
p1151
(dp1152
g3
(lp1153
F0.0
aF0.0
aI21
asg5
S'Taurushoroscop'
p1154
sba(iscraper
User
p1155
(dp1156
g3
(lp1157
F0.0
aF0.0
aI19
asg5
S'Chips_Away'
p1158
sba(iscraper
User
p1159
(dp1160
g3
(lp1161
F0.0
aF0.0
aI21
asg5
S'upsidedownstud'
p1162
sba(iscraper
User
p1163
(dp1164
g3
(lp1165
F0.0
aF0.0
aI20
asg5
S'InteriorDesire'
p1166
sba(iscraper
User
p1167
(dp1168
g3
(lp1169
F0.0
aF0.0
aI19
asg5
S'davidsonandson'
p1170
sba(iscraper
User
p1171
(dp1172
g3
(lp1173
F0.0
aF0.0
aI19
asg5
S'Sadenss'
p1174
sba(iscraper
User
p1175
(dp1176
g3
(lp1177
F0.0
aF0.0
aI17
asg5
S'statics4you'
p1178
sba(iscraper
User
p1179
(dp1180
g3
(lp1181
F0.0
aF0.0
aI19
asg5
S'StCyrusPrk'
p1182
sba(iscraper
User
p1183
(dp1184
g3
(lp1185
F0.0
aF0.0
aI17
asg5
S'Baseysofalnwick'
p1186
sba(iscraper
User
p1187
(dp1188
g3
(lp1189
F0.0
aF0.0
aI19
asg5
S'GeoffBurch'
p1190
sba(iscraper
User
p1191
(dp1192
g3
(lp1193
F0.0
aF0.0
aI19
asg5
S'kennym_gaplny'
p1194
sba(iscraper
User
p1195
(dp1196
g3
(lp1197
F0.0
aF0.0
aI18
asg5
S'KatVintage'
p1198
sba(iscraper
User
p1199
(dp1200
g3
(lp1201
F0.0
aF0.0
aI19
asg5
S'funnelholic'
p1202
sba(iscraper
User
p1203
(dp1204
g3
(lp1205
F0.0
aF0.0
aI20
asg5
S'MrSteThompson'
p1206
sba(iscraper
User
p1207
(dp1208
g3
(lp1209
F0.0
aF0.0
aI18
asg5
S'VoucherCave'
p1210
sba(iscraper
User
p1211
(dp1212
g3
(lp1213
F0.0
aF0.0
aI18
asg5
S'bubblesoccerNE'
p1214
sba(iscraper
User
p1215
(dp1216
g3
(lp1217
F0.0
aF0.0
aI19
asg5
S'RobertMAnthony1'
p1218
sba(iscraper
User
p1219
(dp1220
g3
(lp1221
F0.0
aF0.0
aI18
asg5
S'VanessaAmorosi'
p1222
sba(iscraper
User
p1223
(dp1224
g3
(lp1225
F0.0
aF0.0
aI20
asg5
S'richardosman'
p1226
sba(iscraper
User
p1227
(dp1228
g3
(lp1229
F0.0
aF0.0
aI20
asg5
S'OfficialClancy'
p1230
sba(iscraper
User
p1231
(dp1232
g3
(lp1233
F0.0
aF0.0
aI20
asg5
S'ZozeeBo'
p1234
sba(iscraper
User
p1235
(dp1236
g3
(lp1237
F0.0
aF0.0
aI20
asg5
S'virgingalactic'
p1238
sba(iscraper
User
p1239
(dp1240
g3
(lp1241
F0.0
aF0.0
aI20
asg5
S'laurenplatt7'
p1242
sba(iscraper
User
p1243
(dp1244
g3
(lp1245
F0.0
aF0.0
aI19
asg5
S'WeeMissBea'
p1246
sba(iscraper
User
p1247
(dp1248
g3
(lp1249
F0.0
aF0.0
aI20
asg5
S'BBCOne'
p1250
sba(iscraper
User
p1251
(dp1252
g3
(lp1253
F0.0
aF0.0
aI20
asg5
S'ITV'
p1254
sba(iscraper
User
p1255
(dp1256
g3
(lp1257
F0.0
aF0.0
aI20
asg5
S'Nigel_Farage'
p1258
sba(iscraper
User
p1259
(dp1260
g3
(lp1261
F0.0
aF0.0
aI19
asg5
S'NickFerrariLBC'
p1262
sba(iscraper
User
p1263
(dp1264
g3
(lp1265
F0.0
aF0.0
aI20
asg5
S'IainDale'
p1266
sba(iscraper
User
p1267
(dp1268
g3
(lp1269
F0.0
aF0.0
aI19
asg5
S'THEJamesWhale'
p1270
sba(iscraper
User
p1271
(dp1272
g3
(lp1273
F0.0
aF0.0
aI19
asg5
S'TOTDS'
p1274
sba(iscraper
User
p1275
(dp1276
g3
(lp1277
F0.0
aF0.0
aI18
asg5
S'laurasayers'
p1278
sba(iscraper
User
p1279
(dp1280
g3
(lp1281
F0.0
aF0.0
aI19
asg5
S'LadyWilloughby'
p1282
sba(iscraper
User
p1283
(dp1284
g3
(lp1285
F0.0
aF0.0
aI17
asg5
S'SueRiotGraphics'
p1286
sba(iscraper
User
p1287
(dp1288
g3
(lp1289
F0.0
aF0.0
aI20
asg5
S'theglenshee'
p1290
sba(iscraper
User
p1291
(dp1292
g3
(lp1293
F0.0
aF0.0
aI19
asg5
S'bigjohn105'
p1294
sba(iscraper
User
p1295
(dp1296
g3
(lp1297
F0.0
aF0.0
aI19
asg5
S'BEAR_M80'
p1298
sba(iscraper
User
p1299
(dp1300
g3
(lp1301
F0.0
aF0.0
aI20
asg5
S'GryffeRoadwatch'
p1302
sba(iscraper
User
p1303
(dp1304
g3
(lp1305
F0.0
aF0.0
aI19
asg5
S'A93_Scotland'
p1306
sba(iscraper
User
p1307
(dp1308
g3
(lp1309
F0.0
aF0.0
aI20
asg5
S'polscotair'
p1310
sba(iscraper
User
p1311
(dp1312
g3
(lp1313
F0.0
aF0.0
aI19
asg5
S'HChighlandroads'
p1314
sba(iscraper
User
p1315
(dp1316
g3
(lp1317
F0.0
aF0.0
aI19
asg5
S'ArranResilience'
p1318
sba(iscraper
User
p1319
(dp1320
g3
(lp1321
F0.0
aF0.0
aI19
asg5
S'ScotGovFM'
p1322
sba(iscraper
User
p1323
(dp1324
g3
(lp1325
F0.0
aF0.0
aI20
asg5
S'DefenceHQ'
p1326
sba.