(lp0
(iscraper
User
p1
(dp2
S'attraction'
p3
(lp4
F0.0
aF0.0
aF0.0
asS'followingUsernames'
p5
ccopy_reg
_reconstructor
p6
(cBeautifulSoup
ResultSet
p7
c__builtin__
list
p8
(lp9
S'KingJames'
p10
aS'CHANEL'
p11
aS'nytimes'
p12
aS'simonpegg'
p13
aS'carmeloanthony'
p14
aS'bbchealth'
p15
aS'VictoriasSecret'
p16
aS'rihanna'
p17
aS'KDTrey5'
p18
aS'PlayStation'
p19
aS'RockstarGames'
p20
aS'voguemagazine'
p21
aS'planetepics'
p22
aS'MensHealthMag'
p23
aS'Ubisoft'
p24
aS'nasahqphoto'
p25
aS'MeetAnimals'
p26
aS'Xbox'
p27
atp28
Rp29
(dp30
S'source'
p31
(iBeautifulSoup
SoupStrainer
p32
(dp33
S'text'
p34
NsS'name'
p35
S'span'
p36
sS'attrs'
p37
(dp38
S'class'
p39
S'u-linkComplex-target'
p40
ssbsbsg35
S'armanjtehrani'
p41
sba(iscraper
User
p42
(dp43
g3
(lp44
F0.0
aF0.0
aI17
asg5
g6
(g7
g8
(lp45
S'Jackpotjoy'
p46
aS'DogsTrust'
p47
aS'hsnewsbreak'
p48
aS'guidedogs'
p49
aS'ScotRail'
p50
aS'TravelineScot'
p51
aS'BBCTravelScot'
p52
aS'cannykay1'
p53
aS'dazhop'
p54
aS'trafficscotland'
p55
aS'Watches2U'
p56
aS'marciadorsey'
p57
aS'jack'
p58
aS'OurNameIsFun'
p59
aS'RakutenUK'
p60
aS'Tom_Morgs'
p61
aS'ao'
p62
aS'RussellHobbsUK'
p63
atp64
Rp65
(dp66
g31
(iBeautifulSoup
SoupStrainer
p67
(dp68
g34
Nsg35
g36
sg37
(dp69
g39
g40
ssbsbsg35
S'joof'
p70
sba(iscraper
User
p71
(dp72
g3
(lp73
F0.0
aF0.0
aI20
asg5
g6
(g7
g8
(lp74
S'JLo'
p75
aS'KendrickPerkins'
p76
aS'rihanna'
p77
aS'TrainwreckMovie'
p78
aS'Gibbsyyyy'
p79
aS'CoachDambrot'
p80
aS'uninterrupted'
p81
aS'Amanda_Furrer'
p82
aS'RealDealBeal23'
p83
aS'jtimberlake'
p84
aS'CharissaT'
p85
aS'MrCavalier34'
p86
aS'FSOAllieOop'
p87
aS'cavs'
p88
aS'TeamVic'
p89
aS'Rodney_Eighty81'
p90
aS'dionwaiters3'
p91
aS'YesJulz'
p92
atp93
Rp94
(dp95
g31
(iBeautifulSoup
SoupStrainer
p96
(dp97
g34
Nsg35
g36
sg37
(dp98
g39
g40
ssbsbsg35
g10
sba(iscraper
User
p99
(dp100
g3
(lp101
F0.0
aF0.058823529411764705
aI17
asg5
g6
(g7
g8
(lp102
tp103
Rp104
(dp105
g31
(iBeautifulSoup
SoupStrainer
p106
(dp107
g34
Nsg35
g36
sg37
(dp108
g39
g40
ssbsbsg35
g11
sba(iscraper
User
p109
(dp110
g3
(lp111
F0.0
aF0.0
aI20
asg5
g6
(g7
g8
(lp112
S'andrewrchow'
p113
aS'nhannahjones'
p114
aS'lindazebian'
p115
aS'ToddGregory'
p116
aS'jazzedloon'
p117
aS'_nicolaclark'
p118
aS'stevemayne'
p119
aS'tatertatiana'
p120
aS'wmcdonaldnyt'
p121
aS'tomwp'
p122
aS'astrzemien'
p123
aS'manujosephsan'
p124
aS'lauriek808'
p125
aS'pinkgrammar'
p126
aS'puiwingtam'
p127
aS'noamscheiber'
p128
aS'jimwindolf'
p129
aS'FrancescaDonner'
p130
atp131
Rp132
(dp133
g31
(iBeautifulSoup
SoupStrainer
p134
(dp135
g34
Nsg35
g36
sg37
(dp136
g39
g40
ssbsbsg35
g12
sba(iscraper
User
p137
(dp138
g3
(lp139
F0.0
aF0.0
aI20
asg5
g6
(g7
g8
(lp140
tp141
Rp142
(dp143
g31
(iBeautifulSoup
SoupStrainer
p144
(dp145
g34
Nsg35
g36
sg37
(dp146
g39
g40
ssbsbsg35
g13
sba(iscraper
User
p147
(dp148
g3
(lp149
F0.0
aF0.0
aI19
asg5
g6
(g7
g8
(lp150
S'bhorowitz'
p151
aS'kevinlove'
p152
aS'Yg_Trece'
p153
aS'VICE'
p154
aS'RichardCocks'
p155
aS'cecenightowl'
p156
aS'runlikemk'
p157
aS'jpknicks'
p158
aS'blossombubble'
p159
aS'DrinkPOWERCOCO'
p160
aS'HEBRUBRANTLEY'
p161
aS'kendricklamar'
p162
aS'ravinbracha'
p163
aS'LouisFarrakhan'
p164
aS'RealJasonKidd'
p165
aS'LewisHamilton'
p166
aS'MassaFelipe19'
p167
aS'kobebryant'
p168
atp169
Rp170
(dp171
g31
(iBeautifulSoup
SoupStrainer
p172
(dp173
g34
Nsg35
g36
sg37
(dp174
g39
g40
ssbsbsg35
g14
sba(iscraper
User
p175
(dp176
g3
(lp177
F0.0
aF0.0
aI20
asg5
g6
(g7
g8
(lp178
S'NickTriggle'
p179
aS'janedreaper'
p180
aS'branwenjeffreys'
p181
aS'BBCWorld'
p182
aS'BBCBreaking'
p183
aS'BBCNews'
p184
aS'BBCFergusWalsh'
p185
atp186
Rp187
(dp188
g31
(iBeautifulSoup
SoupStrainer
p189
(dp190
g34
Nsg35
g36
sg37
(dp191
g39
g40
ssbsbsg35
g15
sba(iscraper
User
p192
(dp193
g3
(lp194
F0.0
aF0.0
aI20
asg5
g6
(g7
g8
(lp195
S'jerome_duran'
p196
aS'PreMedPrincess_'
p197
aS'libbynicole1'
p198
aS'teamkoralreef'
p199
aS'PINK_Bubblessx3'
p200
aS'daishastar'
p201
aS'paracryptid'
p202
aS'TaySalo'
p203
aS'Phatyo'
p204
aS'juanes'
p205
aS'x__kaatiee'
p206
aS'lxvatoswxrrior'
p207
aS'rebecca_dot'
p208
aS'mn_espngirl99'
p209
aS'vitasidorkina'
p210
aS'SuzFlooze'
p211
aS'MccradyMiasha'
p212
aS'jadefowler__'
p213
atp214
Rp215
(dp216
g31
(iBeautifulSoup
SoupStrainer
p217
(dp218
g34
Nsg35
g36
sg37
(dp219
g39
g40
ssbsbsg35
g16
sba(iscraper
User
p220
(dp221
g3
(lp222
F0.0
aF0.0
aI17
asg5
g6
(g7
g8
(lp223
S'TIDALHiFi'
p224
aS'ayoDO_o'
p225
aS'ImChrissyChriss'
p226
aS'fatbellybella'
p227
aS'BahtheLegend'
p228
aS'OftenImitated_'
p229
aS'laurabrown99'
p230
aS'Vevo'
p231
aS'_sydneic'
p232
aS'NicoKartel'
p233
aS'iHateScottieToo'
p234
aS'10yearsofslay'
p235
aS'bmorenavy'
p236
aS'DNZLX'
p237
aS'Malamin_J'
p238
aS'MakeYouMyBitch'
p239
aS'KaiCole_'
p240
aS'SamerSum'
p241
atp242
Rp243
(dp244
g31
(iBeautifulSoup
SoupStrainer
p245
(dp246
g34
Nsg35
g36
sg37
(dp247
g39
g40
ssbsbsg35
g17
sba(iscraper
User
p248
(dp249
g3
(lp250
F0.0
aF0.0
aI20
asg5
g6
(g7
g8
(lp251
S'SerayahLove'
p252
aS'xHBHFx'
p253
aS'DontGivUpOnGod'
p254
aS'KedowWalker'
p255
aS'Nelzzzzz32'
p256
aS'Enes_Kanter'
p257
aS'KyleSingler'
p258
aS'LALovetheboss'
p259
aS'RobGronkowski'
p260
aS'djones7861'
p261
aS'amfam'
p262
aS'CharissaT'
p263
aS'WojYahooNBA'
p264
aS'TrevorJordanNYC'
p265
aS'devontetyoung'
p266
aS'JrMarkyMark'
p267
aS'ShapeFutureOK'
p268
aS'sonicdrivein'
p269
atp270
Rp271
(dp272
g31
(iBeautifulSoup
SoupStrainer
p273
(dp274
g34
Nsg35
g36
sg37
(dp275
g39
g40
ssbsbsg35
g18
sba(iscraper
User
p276
(dp277
g3
(lp278
F0.0
aF0.0
aI19
asg5
g6
(g7
g8
(lp279
S'MLBTheShow'
p280
aS'Spotify'
p281
aS'thegranturismo'
p282
aS'psnstores'
p283
aS'AxiomVerge'
p284
aS'Dan_Adelman'
p285
aS'drdre'
p286
aS'StephenCurry30'
p287
aS'YasielPuig'
p288
aS'shaunwhite'
p289
aS'SnoopDogg'
p290
aS'ranminisce'
p291
aS'CallofDuty'
p292
aS'Treyarch'
p293
aS'TheRealStanLee'
p294
aS'Polygon'
p295
aS'MichnaOfficial'
p296
aS'YachtClubGames'
p297
atp298
Rp299
(dp300
g31
(iBeautifulSoup
SoupStrainer
p301
(dp302
g34
Nsg35
g36
sg37
(dp303
g39
g40
ssbsbsg35
g19
sba(iscraper
User
p304
(dp305
g3
(lp306
F0.0
aF0.0
aI19
asg5
g6
(g7
g8
(lp307
S'BadFredRhodes'
p308
aS'mediangame'
p309
aS'davis_mccarthy'
p310
aS'drassenov'
p311
aS'__Jerwin__'
p312
aS'MaxScoville'
p313
aS'agentbizzle'
p314
aS'IIJERiiCHOII'
p315
aS'BloodyBeetroots'
p316
aS'ohsnapjbsmoove'
p317
aS'dimmak'
p318
aS'gtafiveallday'
p319
aS'Herbal_Gamer_89'
p320
aS'GTA_Society'
p321
aS'RealFPJr'
p322
aS'GTAGFX'
p323
aS'iCrazyTeddy'
p324
aS'MrNastyDJ'
p325
atp326
Rp327
(dp328
g31
(iBeautifulSoup
SoupStrainer
p329
(dp330
g34
Nsg35
g36
sg37
(dp331
g39
g40
ssbsbsg35
g20
sba(iscraper
User
p332
(dp333
g3
(lp334
F0.0
aF0.0
aI20
asg5
g6
(g7
g8
(lp335
S'jessieheyman'
p336
aS'MagnumPhotos'
p337
aS'henryandrel'
p338
aS'DefJamRecords'
p339
aS'gwneff'
p340
aS'JennaRennert'
p341
aS'angelica_cheung'
p342
aS'nbcsnl'
p343
aS'iamwill'
p344
aS'solangeknowles'
p345
aS'ItsStarWarsTime'
p346
aS'spring'
p347
aS'rebeccabengal'
p348
aS'SophieElgort'
p349
aS'didiondoc'
p350
aS'THECORNERdotcom'
p351
aS'devhynes'
p352
aS'B_Millepied'
p353
atp354
Rp355
(dp356
g31
(iBeautifulSoup
SoupStrainer
p357
(dp358
g34
Nsg35
g36
sg37
(dp359
g39
g40
ssbsbsg35
g21
sba(iscraper
User
p360
(dp361
g3
(lp362
F0.0
aF0.0
aI17
asg5
g6
(g7
g8
(lp363
S'veraktla'
p364
aS'SharonTay888'
p365
aS'EvelynTaft'
p366
aS'JackieJohnsonLA'
p367
aS'JavierSolorzano'
p368
aS'aristeguicnn'
p369
aS'TapiaFernanda'
p370
aS'marthadebayle'
p371
aS'silviaolmedo'
p372
aS'luisroguzman'
p373
aS'danielhenney'
p374
aS'robcorddry'
p375
aS'hellolanemoore'
p376
aS'YahooNoise'
p377
aS'Stephania_ESPN'
p378
aS'MatthewBerryTMR'
p379
aS'GottliebShow'
p380
aS'SethDavisHoops'
p381
atp382
Rp383
(dp384
g31
(iBeautifulSoup
SoupStrainer
p385
(dp386
g34
Nsg35
g36
sg37
(dp387
g39
g40
ssbsbsg35
g22
sba(iscraper
User
p388
(dp389
g3
(lp390
F0.0
aF0.0
aI20
asg5
g6
(g7
g8
(lp391
S'PGATOUR'
p392
aS'GSKamalesh'
p393
aS'lisabarrier2'
p394
aS'MHBetterMan'
p395
aS'DSWShoeLovers'
p396
aS'BodyForWife'
p397
aS'GreggStebben'
p398
aS'EatCleanFeed'
p399
aS'VictoriaWolk'
p400
aS'Prediinimous'
p401
aS'Prondhi'
p402
aS'JustinCrew'
p403
aS'joeamedio'
p404
aS'contbarth'
p405
aS'MensHealthMVPs'
p406
aS'KevinHart4real'
p407
aS'thunderdan09'
p408
aS'Season_Nvr_Ends'
p409
atp410
Rp411
(dp412
g31
(iBeautifulSoup
SoupStrainer
p413
(dp414
g34
Nsg35
g36
sg37
(dp415
g39
g40
ssbsbsg35
g23
sba(iscraper
User
p416
(dp417
g3
(lp418
F0.0
aF0.0
aI20
asg5
g6
(g7
g8
(lp419
S'DecayingSteve'
p420
aS'Sally_DSD'
p421
aS'AppMeerkat'
p422
aS'EscoBlades'
p423
aS'beetlebear'
p424
aS'SXSWGaming'
p425
aS'sxsw'
p426
aS'Siefe'
p427
aS'middleearthgame'
p428
aS'Obsidian'
p429
aS'RabAnderson7'
p430
aS'RogueMoosic'
p431
aS'AsoboStudio'
p432
aS'20thcenturyfox'
p433
aS'Deadline'
p434
aS'TigerWoods'
p435
aS'koareck'
p436
aS'chocomongosnaps'
p437
atp438
Rp439
(dp440
g31
(iBeautifulSoup
SoupStrainer
p441
(dp442
g34
Nsg35
g36
sg37
(dp443
g39
g40
ssbsbsg35
g24
sba(iscraper
User
p444
(dp445
g3
(lp446
F0.0
aF0.0
aI17
asg5
g6
(g7
g8
(lp447
S'ulalaunch'
p448
aS'MichaelStarobin'
p449
aS'NASA_Johnson'
p450
aS'bnjacobs'
p451
aS'schierholz'
p452
aS'USSenatePhoto'
p453
aS'ingallsimages'
p454
aS'jakowsky'
p455
aS'JAXA_en'
p456
aS'AsteroidWatch'
p457
aS'cambridgecolour'
p458
aS'DavidWeaver'
p459
aS'nytimesscience'
p460
aS'NASA_Rain'
p461
aS'geekdotcom'
p462
aS'keithwj'
p463
aS'JamesEstrin'
p464
aS'miatramz'
p465
atp466
Rp467
(dp468
g31
(iBeautifulSoup
SoupStrainer
p469
(dp470
g34
Nsg35
g36
sg37
(dp471
g39
g40
ssbsbsg35
g25
sba(iscraper
User
p472
(dp473
g3
(lp474
F0.0
aF0.0
aI20
asg5
g6
(g7
g8
(lp475
S'JoshAtXbox'
p476
aS'GamersPrey'
p477
aS'hooperzdream23'
p478
aS'HaloFollowerCom'
p479
aS'ChiefCanuck'
p480
aS'subzerotd'
p481
aS'Wild_Morrigan'
p482
aS'Magiz'
p483
aS'hokie98jj'
p484
aS'TheStarbuck86x'
p485
aS'ClixWizard'
p486
aS'B_Dailey13'
p487
aS'djrunning11'
p488
aS'LASeaN8'
p489
aS'iThe_Truth'
p490
aS'AWM26'
p491
aS'nfl'
p492
aS'HoloLens'
p493
atp494
Rp495
(dp496
g31
(iBeautifulSoup
SoupStrainer
p497
(dp498
g34
Nsg35
g36
sg37
(dp499
g39
g40
ssbsbsg35
g27
sba(iscraper
User
p500
(dp501
g3
(lp502
F0.0
aF0.0
aI17
asg5
g6
(g7
g8
(lp503
S'Deborah_Cox'
p504
aS'Nicole_Murphy'
p505
aS'DuleHill'
p506
aS'NiaLong'
p507
aS'IvankaTrump'
p508
aS'HamiltonAnthony'
p509
aS'NiecyNash'
p510
aS'Jtillathekilla2'
p511
aS'anthonyanderson'
p512
aS'kevwilliamson'
p513
aS'kristoffstjohn1'
p514
aS'PamGrier'
p515
aS'ApprenticeNBC'
p516
aS'TheRealEve'
p517
aS'LilKim'
p518
aS'BrandiGlanville'
p519
aS'SamuelLJackson'
p520
aS'debbimorgan'
p521
atp522
Rp523
(dp524
g31
(iBeautifulSoup
SoupStrainer
p525
(dp526
g34
Nsg35
g36
sg37
(dp527
g39
g40
ssbsbsg35
g26
sba(iscraper
User
p528
(dp529
g3
(lp530
F0.0
aF0.0
aI20
asg5
g6
(g7
g8
(lp531
S'DalimSoftware'
p532
aS'TheCabinGroup'
p533
aS'xmunie'
p534
aS'bella97p'
p535
aS'WhichBingoUK'
p536
aS'EarnCashNow2015'
p537
aS'PaddyMcGuinness'
p538
aS'GURGELUK'
p539
aS'simplymeasured'
p540
aS'SupportJPJ'
p541
aS'hashtracking'
p542
aS'miklea'
p543
aS'mikecarr899'
p544
aS'IncomeAccess'
p545
aS'dougkeatinge'
p546
aS'SnapchatProbbz'
p547
aS'Brendan_Surrey'
p548
aS'Kwei_Quartey'
p549
atp550
Rp551
(dp552
g31
(iBeautifulSoup
SoupStrainer
p553
(dp554
g34
Nsg35
g36
sg37
(dp555
g39
g40
ssbsbsg35
g46
sba(iscraper
User
p556
(dp557
g3
(lp558
F0.0
aF0.0
aI20
asg5
g6
(g7
g8
(lp559
S'2ParkCity'
p560
aS'charlottepatonx'
p561
aS'MarsMeta'
p562
aS'TomMcTague'
p563
aS'gwentpolice'
p564
aS'LornaDoran'
p565
aS'SleepSkee'
p566
aS'homeaway'
p567
aS'millsswift'
p568
aS'HayleyCraft2'
p569
aS'ngniki'
p570
aS'DERK41SER'
p571
aS'DT_Pawlitical'
p572
aS'MorganGuitars'
p573
aS'siriuslydoggy'
p574
aS'CousinGrande'
p575
aS'Kings_Hall_HB'
p576
aS'BallDarrel'
p577
atp578
Rp579
(dp580
g31
(iBeautifulSoup
SoupStrainer
p581
(dp582
g34
Nsg35
g36
sg37
(dp583
g39
g40
ssbsbsg35
g47
sba(iscraper
User
p584
(dp585
g3
(lp586
F0.0
aF0.0
aI20
asg5
g6
(g7
g8
(lp587
S'Herald_Editor'
p588
aS'heraldscotland'
p589
atp590
Rp591
(dp592
g31
(iBeautifulSoup
SoupStrainer
p593
(dp594
g34
Nsg35
g36
sg37
(dp595
g39
g40
ssbsbsg35
g48
sba(iscraper
User
p596
(dp597
g3
(lp598
F0.0
aF0.0
aI21
asg5
g6
(g7
g8
(lp599
S'bbc5live'
p600
aS'GuideDogsMMT'
p601
aS'Volonteurope'
p602
aS'nicestjob'
p603
aS'lopwert'
p604
aS'OutdoorsShow'
p605
aS'GdnVoluntary'
p606
aS'nfumcolchester'
p607
aS'JustSimonCowell'
p608
aS'ollyofficial'
p609
aS'lourobertshaw'
p610
aS'JustTextGiving'
p611
aS'buffer'
p612
aS'thehut_com'
p613
aS'Tog4ShortLives'
p614
aS'WellChild'
p615
aS'TippingPointITV'
p616
aS'itv2'
p617
atp618
Rp619
(dp620
g31
(iBeautifulSoup
SoupStrainer
p621
(dp622
g34
Nsg35
g36
sg37
(dp623
g39
g40
ssbsbsg35
g49
sba(iscraper
User
p624
(dp625
g3
(lp626
F0.0
aF0.0
aI20
asg5
g6
(g7
g8
(lp627
S'clazzaa'
p628
aS'forbaItjmore'
p629
aS'FionaGammie'
p630
aS'bingham_roman'
p631
aS'Scottehboy'
p632
aS'jeffholmes24'
p633
aS'EmmaBurns1234'
p634
aS'WallaceGJ'
p635
aS'ConnorDiamonds'
p636
aS'lisaaamuirrr'
p637
aS'nattydoll25'
p638
aS'normanbowman69'
p639
aS'SpontraineousUk'
p640
aS'BBCScotWeather'
p641
aS'Mikgreg_'
p642
aS'bestowlatedinc'
p643
aS'CaitlinMacIver'
p644
aS'TheScotsman'
p645
atp646
Rp647
(dp648
g31
(iBeautifulSoup
SoupStrainer
p649
(dp650
g34
Nsg35
g36
sg37
(dp651
g39
g40
ssbsbsg35
g50
sba(iscraper
User
p652
(dp653
g3
(lp654
F0.0
aF0.0
aI20
asg5
g6
(g7
g8
(lp655
S'CalSleeper'
p656
aS'TSCatapult'
p657
aS'BTP'
p658
aS'TrapezeGroupUK'
p659
aS'ArgyllFerries'
p660
aS'PentlandFerries'
p661
aS'CalMac_Updates'
p662
aS'StagecoachNScot'
p663
aS'TransportTimes'
p664
aS'StagecoachWScot'
p665
aS'Simpli_info'
p666
aS'GLASubwayTravel'
p667
aS'CPT_UK'
p668
aS'crosscountryuk'
p669
aS'TwitterUKI_SME'
p670
aS'CalMacFerries'
p671
aS'PerrymansBuses'
p672
aS'PLUSBUS_UK'
p673
atp674
Rp675
(dp676
g31
(iBeautifulSoup
SoupStrainer
p677
(dp678
g34
Nsg35
g36
sg37
(dp679
g39
g40
ssbsbsg35
g51
sba(iscraper
User
p680
(dp681
g3
(lp682
F0.0
aF0.0
aI20
asg5
g6
(g7
g8
(lp683
S'polscothorses'
p684
aS'polscotdogs'
p685
aS'CoastguardTeam'
p686
aS'northsound1'
p687
aS'BritPanopticon'
p688
aS'bbcweather'
p689
aS'BBCRadioScot'
p690
aS'Schafernaker'
p691
aS'johnco'
p692
aS'NETrunkRoads'
p693
aS'ArgyllFerries'
p694
aS'NetworkRailSCOT'
p695
aS'STVNews'
p696
aS'BBCMarkDaly'
p697
aS'STN_Airport'
p698
aS'LDNLutonAirport'
p699
aS'AmazonUK'
p700
aS'SETrunkRoads'
p701
atp702
Rp703
(dp704
g31
(iBeautifulSoup
SoupStrainer
p705
(dp706
g34
Nsg35
g36
sg37
(dp707
g39
g40
ssbsbsg35
g52
sba(iscraper
User
p708
(dp709
g3
(lp710
F0.0
aF0.0
aI17
asg5
g6
(g7
g8
(lp711
S'hbthewriter'
p712
aS'Taurushoroscop'
p713
aS'Chips_Away'
p714
aS'upsidedownstud'
p715
aS'InteriorDesire'
p716
aS'davidsonandson'
p717
aS'Sadenss'
p718
aS'statics4you'
p719
aS'StCyrusPrk'
p720
aS'Baseysofalnwick'
p721
aS'GeoffBurch'
p722
aS'kennym_gaplny'
p723
aS'KatVintage'
p724
aS'funnelholic'
p725
aS'MrSteThompson'
p726
aS'VoucherCave'
p727
aS'bubblesoccerNE'
p728
aS'RobertMAnthony1'
p729
atp730
Rp731
(dp732
g31
(iBeautifulSoup
SoupStrainer
p733
(dp734
g34
Nsg35
g36
sg37
(dp735
g39
g40
ssbsbsg35
g53
sba(iscraper
User
p736
(dp737
g3
(lp738
F0.0
aF0.0
aI16
asg5
g6
(g7
g8
(lp739
S'VanessaAmorosi'
p740
aS'richardosman'
p741
aS'OfficialClancy'
p742
aS'ZozeeBo'
p743
aS'ITVTextSanta'
p744
aS'virgingalactic'
p745
aS'laurenplatt7'
p746
aS'AmazonUK'
p747
aS'WeeMissBea'
p748
aS'BBCOne'
p749
aS'ITV'
p750
aS'Nigel_Farage'
p751
aS'NickFerrariLBC'
p752
aS'IainDale'
p753
aS'THEJamesWhale'
p754
aS'TOTDS'
p755
aS'laurasayers'
p756
aS'LadyWilloughby'
p757
atp758
Rp759
(dp760
g31
(iBeautifulSoup
SoupStrainer
p761
(dp762
g34
Nsg35
g36
sg37
(dp763
g39
g40
ssbsbsg35
g54
sba(iscraper
User
p764
(dp765
g3
(lp766
F0.0
aF0.0
aI21
asg5
g6
(g7
g8
(lp767
S'SueRiotGraphics'
p768
aS'theglenshee'
p769
aS'bigjohn105'
p770
aS'FunkeyJaybee'
p771
aS'GryffeRoadwatch'
p772
aS'BEAR_M80'
p773
aS'A93_Scotland'
p774
aS'polscotair'
p775
aS'ArranResilience'
p776
aS'NETrunkRoads'
p777
aS'HChighlandroads'
p778
aS'ScotGovFM'
p779
aS'DefenceHQ'
p780
aS'Nicola_Moir'
p781
aS'GroundControlGC'
p782
aS'RoyalNavy'
p783
aS'TheGreenBeret'
p784
aS'rlssuk_Scottish'
p785
atp786
Rp787
(dp788
g31
(iBeautifulSoup
SoupStrainer
p789
(dp790
g34
Nsg35
g36
sg37
(dp791
g39
g40
ssbsbsg35
g55
sba(iscraper
User
p792
(dp793
g3
(lp794
F0.0
aF0.0
aI19
asg5
g6
(g7
g8
(lp795
S'dagaferD'
p796
aS'StanCollymore'
p797
aS'xox4life831'
p798
aS'horology_rr'
p799
aS'StuartHilton1'
p800
aS'BreitlingNews'
p801
aS'Hublot'
p802
aS'Diego_Farias'
p803
aS'omegawatches'
p804
aS'gegraves'
p805
aS'KatieJ_A_C'
p806
aS'competwition'
p807
aS'TheLadBible'
p808
aS'competitionclub'
p809
aS'faisal2200'
p810
aS'gucci'
p811
aS'TommyHilfiger'
p812
aS'Versace'
p813
atp814
Rp815
(dp816
g31
(iBeautifulSoup
SoupStrainer
p817
(dp818
g34
Nsg35
g36
sg37
(dp819
g39
g40
ssbsbsg35
g56
sba(iscraper
User
p820
(dp821
g3
(lp822
F0.0
aF0.0
aI16
asg5
g6
(g7
g8
(lp823
S'littledipperstl'
p824
aS'martinmroz'
p825
aS'MarnieTheDog'
p826
aS'DianeGCibrian'
p827
aS'manofsteele'
p828
aS'DannyDeVito'
p829
aS'DalaiLama'
p830
aS'want2helpUtoday'
p831
aS'peterfenton'
p832
aS'kimgarst'
p833
aS'Elenka2012'
p834
aS'TheTalk_CBS'
p835
aS'CharlieGittos'
p836
aS'brigitte_bardot'
p837
aS'CNNMoney'
p838
aS'Entrepreneur'
p839
aS'WSJbusiness'
p840
aS'FortuneMagazine'
p841
atp842
Rp843
(dp844
g31
(iBeautifulSoup
SoupStrainer
p845
(dp846
g34
Nsg35
g36
sg37
(dp847
g39
g40
ssbsbsg35
g57
sba(iscraper
User
p848
(dp849
g3
(lp850
F0.0
aF0.0
aI19
asg5
g6
(g7
g8
(lp851
S'bchesky'
p852
aS'rapino99'
p853
aS'GabiViolin14'
p854
aS'Lefsetz'
p855
aS'the___udontc'
p856
aS'AaronKnightNY'
p857
aS'Markis'
p858
aS'lovemercyfilm'
p859
aS'peretti'
p860
aS'TIDALHiFi'
p861
aS'WrestleMania'
p862
aS'jimcramer'
p863
aS'periscopetv'
p864
aS'superme'
p865
aS'MobyDickatSea'
p866
aS'stewart'
p867
aS'BrianWilsonLive'
p868
aS'HIMANSHU'
p869
atp870
Rp871
(dp872
g31
(iBeautifulSoup
SoupStrainer
p873
(dp874
g34
Nsg35
g36
sg37
(dp875
g39
g40
ssbsbsg35
g58
sba(iscraper
User
p876
(dp877
g3
(lp878
F0.0
aF0.0
aI20
asg5
g6
(g7
g8
(lp879
S'nateruessmusic'
p880
aS'USAfunatics'
p881
aS'OurNewsIsFun'
p882
aS'bleachersmusic'
p883
aS'Grimezsz'
p884
aS'StyleMarkHolmes'
p885
aS'AndrewRannells'
p886
aS'stofanieSTEF'
p887
aS'SaraBareilles'
p888
aS'andrewmcmahon'
p889
aS'allycoalition'
p890
aS'elliegoulding'
p891
aS'iamlp'
p892
aS'jasonhecht'
p893
aS'TrevorProject'
p894
aS'okaycaceface'
p895
aS'FueledByRamen'
p896
aS'GibsonFr'
p897
atp898
Rp899
(dp900
g31
(iBeautifulSoup
SoupStrainer
p901
(dp902
g34
Nsg35
g36
sg37
(dp903
g39
g40
ssbsbsg35
g59
sba(iscraper
User
p904
(dp905
g3
(lp906
F0.05
aF0.0
aI20
asg5
g6
(g7
g8
(lp907
S'CostaCoffee'
p908
aS'Bloodborne_PS4'
p909
aS'GPBrowne'
p910
aS'Wraptious'
p911
aS'Tabners'
p912
aS'TheBakerShop'
p913
aS'UreTilAlt'
p914
aS'GO2GAMES'
p915
aS'GreatGearStore'
p916
aS'yakelokids'
p917
aS'hollyandbeau'
p918
aS'TheSnugg'
p919
aS'CKBLtd'
p920
aS'RipleysClothing'
p921
aS'TheSweetPot'
p922
aS'eBuyGB'
p923
aS'SafetotsUK'
p924
aS'JBsMusic'
p925
atp926
Rp927
(dp928
g31
(iBeautifulSoup
SoupStrainer
p929
(dp930
g34
Nsg35
g36
sg37
(dp931
g39
g40
ssbsbsg35
g60
sba(iscraper
User
p932
(dp933
g3
(lp934
F0.0
aF0.0
aF0.0
asg5
g6
(g7
g8
(lp935
tp936
Rp937
(dp938
g31
(iBeautifulSoup
SoupStrainer
p939
(dp940
g34
Nsg35
g36
sg37
(dp941
g39
g40
ssbsbsg35
g61
sba(iscraper
User
p942
(dp943
g3
(lp944
F0.0
aF0.0
aI19
asg5
g6
(g7
g8
(lp945
S'Miss_HayleyMac'
p946
aS'Platinum78pt'
p947
aS'kalshanahan'
p948
aS'Yinster'
p949
aS'stuheritage'
p950
aS'SkintLondon'
p951
aS'TweetCardiff'
p952
aS'kamsdad'
p953
aS'quidco'
p954
aS'WhatsOnGlasgow'
p955
aS'peoplemakeGLA'
p956
aS'visit_glasgow'
p957
aS'JuraProducts'
p958
aS'competitionclub'
p959
aS'Katierebbeck'
p960
aS'LidlUK'
p961
aS'BelindaLondon'
p962
aS'Davemurray257'
p963
atp964
Rp965
(dp966
g31
(iBeautifulSoup
SoupStrainer
p967
(dp968
g34
Nsg35
g36
sg37
(dp969
g39
g40
ssbsbsg35
g62
sba(iscraper
User
p970
(dp971
g3
(lp972
F0.0
aF0.0
aI19
asg5
g6
(g7
g8
(lp973
S'd4nh0rn3'
p974
aS'_lizziehudson'
p975
aS'DanielRhodes92'
p976
aS'bigeamo'
p977
aS'wisevillageboy'
p978
aS'MarieLo01953489'
p979
aS'IcedJemsLtd'
p980
aS'SodaStreamUK'
p981
aS'SelectCambs_H'
p982
aS'Sexyladi84Nicks'
p983
aS'Cornish_People'
p984
aS'Gerry_c_1961'
p985
aS'yuyii_88'
p986
aS'kastrw'
p987
aS'paulnaylor078'
p988
aS'bmcdowall1'
p989
aS'jsmithlolathon'
p990
aS'newbuildhome'
p991
atp992
Rp993
(dp994
g31
(iBeautifulSoup
SoupStrainer
p995
(dp996
g34
Nsg35
g36
sg37
(dp997
g39
g40
ssbsbsg35
g63
sba(iscraper
User
p998
(dp999
g3
(lp1000
F0.0
aF0.0
aI19
asg5
g6
(g7
g8
(lp1001
S'lorealparisfr'
p1002
aS'camerondallas'
p1003
aS'SelenaLaLeyenda'
p1004
aS'LipsbyCarla'
p1005
aS'billboard'
p1006
aS'thereallisaann'
p1007
aS'RachelARich'
p1008
aS'ChildrensLA'
p1009
aS'ArianaGrande'
p1010
aS'DailyRapFacts'
p1011
aS'NickRadio'
p1012
aS'alexexis500'
p1013
aS'PaulCostabile'
p1014
aS'yvonneinla'
p1015
aS'SassyMamainLA'
p1016
aS'MomsLA'
p1017
aS'momdotme'
p1018
aS'RocNation'
p1019
atp1020
Rp1021
(dp1022
g31
(iBeautifulSoup
SoupStrainer
p1023
(dp1024
g34
Nsg35
g36
sg37
(dp1025
g39
g40
ssbsbsg35
g75
sba(iscraper
User
p1026
(dp1027
g3
(lp1028
F0.0
aF0.0
aI20
asg5
g6
(g7
g8
(lp1029
S'TeamVic'
p1030
aS'ErnieRamos32'
p1031
aS'pr_again'
p1032
aS'mozg25'
p1033
aS'cavsdan'
p1034
aS'b_wilTREY2'
p1035
aS'Maraed2Terrell'
p1036
aS'CavsFredMcLeod'
p1037
aS'VAREJAOANDERSON'
p1038
aS'ChrisBHaynes'
p1039
aS'cavs'
p1040
aS'KingJames'
p1041
aS'BerryTramel'
p1042
aS'OfficialMT23'
p1043
aS'lae_brown'
p1044
aS'FreewayRicky'
p1045
aS'rshaught'
p1046
aS'_d33dy6'
p1047
atp1048
Rp1049
(dp1050
g31
(iBeautifulSoup
SoupStrainer
p1051
(dp1052
g34
Nsg35
g36
sg37
(dp1053
g39
g40
ssbsbsg35
g76
sba(iscraper
User
p1054
(dp1055
g3
(lp1056
F0.0
aF0.0
aI14
asg5
g6
(g7
g8
(lp1057
S'UniversalPics'
p1058
aS'iamcolinquinn'
p1059
aS'birbigs'
p1060
aS'KingJames'
p1061
aS'JohnCena'
p1062
aS'amyschumer'
p1063
aS'JuddApatow'
p1064
aS'vine'
p1065
atp1066
Rp1067
(dp1068
g31
(iBeautifulSoup
SoupStrainer
p1069
(dp1070
g34
Nsg35
g36
sg37
(dp1071
g39
g40
ssbsbsg35
g78
sba(iscraper
User
p1072
(dp1073
g3
(lp1074
F0.0
aF0.0
aI18
asg5
g6
(g7
g8
(lp1075
S'I_Am_Iman'
p1076
aS'BelindaBencic'
p1077
aS'ChrissieEvert'
p1078
aS'FamilyCircleCup'
p1079
aS'matthewdelly'
p1080
aS'andyroddick'
p1081
aS'AustinAces'
p1082
aS'Frank_Underwood'
p1083
aS'mashable'
p1084
aS'flyLAXairport'
p1085
aS'MiguelCabrera'
p1086
aS'MarinaSportsMed'
p1087
aS'MileyCyrus'
p1088
aS'TheTennisNerds'
p1089
aS'KyrieIrving'
p1090
aS'1kmcphillips'
p1091
aS'ryanharrison92'
p1092
aS'ChristinaMcHale'
p1093
atp1094
Rp1095
(dp1096
g31
(iBeautifulSoup
SoupStrainer
p1097
(dp1098
g34
Nsg35
g36
sg37
(dp1099
g39
g40
ssbsbsg35
g79
sba(iscraper
User
p1100
(dp1101
g3
(lp1102
F0.0
aF0.0
aI19
asg5
g6
(g7
g8
(lp1103
S'sheetz'
p1104
aS'PresScarborough'
p1105
aS'Tall_ass_tree'
p1106
aS'AFCCleveland'
p1107
aS'Coach_Keith44'
p1108
aS'easymoney____1'
p1109
aS'AntinoJ'
p1110
aS'NoahRobotham14'
p1111
aS'VerbalCommits'
p1112
aS'UABBALLMANAGERS'
p1113
aS'Qdiggs13'
p1114
aS'ZipsMSoc'
p1115
aS's_mcnees'
p1116
aS'CoachDruJoyce'
p1117
aS'SummaHealth'
p1118
aS'mavcarter'
p1119
aS'WindhorstESPN'
p1120
aS'BigDog23_2E'
p1121
atp1122
Rp1123
(dp1124
g31
(iBeautifulSoup
SoupStrainer
p1125
(dp1126
g34
Nsg35
g36
sg37
(dp1127
g39
g40
ssbsbsg35
g80
sba(iscraper
User
p1128
(dp1129
g3
(lp1130
F0.0
aF0.0
aI20
asg5
g6
(g7
g8
(lp1131
S'TimHowardGK'
p1132
aS'OBJ_3'
p1133
aS'RSherman_25'
p1134
aS'carmeloanthony'
p1135
aS'KingJames'
p1136
aS'JManziel2'
p1137
aS'ProFootballTalk'
p1138
aS'NASCARONFOX'
p1139
aS'SFGate'
p1140
aS'TheEllenShow'
p1141
aS'DanicaPatrick'
p1142
aS'jimmyfallon'
p1143
aS'JeffGordonWeb'
p1144
aS'XGames'
p1145
aS'7x7'
p1146
aS'KarlTheFog'
p1147
aS'DaleJr'
p1148
aS'SI_LeeJenkins'
p1149
atp1150
Rp1151
(dp1152
g31
(iBeautifulSoup
SoupStrainer
p1153
(dp1154
g34
Nsg35
g36
sg37
(dp1155
g39
g40
ssbsbsg35
g81
sba(iscraper
User
p1156
(dp1157
g3
(lp1158
F0.0
aF0.0
aI19
asg5
g6
(g7
g8
(lp1159
S'USAMUSoldiers'
p1160
aS'JoshM_Ca'
p1161
aS'LongbowFinance'
p1162
aS'jessebwatters'
p1163
aS'Lexus'
p1164
aS'That_Nigga_Ross'
p1165
aS'WillAllenWAF'
p1166
aS'OhiozVeryOwn'
p1167
aS'ChrisSajnog'
p1168
aS'CenterMassGroup'
p1169
aS'aldridge_12'
p1170
aS'GBell_5'
p1171
aS'ShopBeauArrow'
p1172
aS'TrainHeroic'
p1173
aS'Rnewman101'
p1174
aS'ShepherdFirearm'
p1175
aS'JTChestnut'
p1176
aS'schutzhund13'
p1177
atp1178
Rp1179
(dp1180
g31
(iBeautifulSoup
SoupStrainer
p1181
(dp1182
g34
Nsg35
g36
sg37
(dp1183
g39
g40
ssbsbsg35
g82
sba(iscraper
User
p1184
(dp1185
g3
(lp1186
F0.0
aF0.0
aI19
asg5
g6
(g7
g8
(lp1187
S'K_Boynton1'
p1188
aS'McGheeM32'
p1189
aS'chanel_danise'
p1190
aS'KeithBattle'
p1191
aS'EzekielElliott'
p1192
aS'JColeNC'
p1193
aS'SexuaITurnOns'
p1194
aS'GatorZoneMBK'
p1195
aS'_LaurennKayy_'
p1196
aS'RasualButler45'
p1197
aS'STLEaglesBBall'
p1198
aS'H00PAllDayy'
p1199
aS'KP5K_'
p1200
aS'TheReal_HG3'
p1201
aS'Eastbay'
p1202
aS'Freddro_'
p1203
aS'alexbazzell'
p1204
aS'KrisHumphries'
p1205
atp1206
Rp1207
(dp1208
g31
(iBeautifulSoup
SoupStrainer
p1209
(dp1210
g34
Nsg35
g36
sg37
(dp1211
g39
g40
ssbsbsg35
g83
sba(iscraper
User
p1212
(dp1213
g3
(lp1214
F0.0
aF0.0
aI20
asg5
g6
(g7
g8
(lp1215
S'aa000G9'
p1216
aS'unclejeffgreen'
p1217
aS'MacBo50'
p1218
aS'mconley11'
p1219
aS'MarcGasol'
p1220
aS'kendricklamar'
p1221
aS'Alabama_Shakes'
p1222
aS'perlapell'
p1223
aS'luccadoes'
p1224
aS'nateyetton'
p1225
aS'Beyonce'
p1226
aS'taylorswift13'
p1227
aS'ChrisStapleton'
p1228
aS'chrisrock'
p1229
aS'garthbrooks'
p1230
aS'DarrenAronofsky'
p1231
aS'packers'
p1232
aS'TheDailyShow'
p1233
atp1234
Rp1235
(dp1236
g31
(iBeautifulSoup
SoupStrainer
p1237
(dp1238
g34
Nsg35
g36
sg37
(dp1239
g39
g40
ssbsbsg35
g84
sba(iscraper
User
p1240
(dp1241
g3
(lp1242
F0.0
aF0.0
aI19
asg5
g6
(g7
g8
(lp1243
S'RiawnaCapri'
p1244
aS'RyanPaevey'
p1245
aS'SmokingSpots'
p1246
aS'NicolasJBechtel'
p1247
aS'UncleRUSH'
p1248
aS'DwyaneWade'
p1249
aS'ReggieMillerTNT'
p1250
aS'realgranthill33'
p1251
aS'realchriswebber'
p1252
aS'MarkusMcLaughln'
p1253
aS'StanRosenfield'
p1254
aS'beautypress'
p1255
aS'OMGFunniest_'
p1256
aS'David_Boreanaz'
p1257
aS'DeionSanders'
p1258
aS'God_Loved'
p1259
aS'herbiberous'
p1260
aS'MichaelNBCLA'
p1261
atp1262
Rp1263
(dp1264
g31
(iBeautifulSoup
SoupStrainer
p1265
(dp1266
g34
Nsg35
g36
sg37
(dp1267
g39
g40
ssbsbsg35
g85
sba(iscraper
User
p1268
(dp1269
g3
(lp1270
F0.0
aF0.0
aI20
asg5
g6
(g7
g8
(lp1271
S'M_Bauer10'
p1272
aS'SportsNBA_23'
p1273
aS'WMB72buckeye'
p1274
aS'cjramey00'
p1275
aS'DimeMecka'
p1276
aS'bigsexy_54'
p1277
aS'JoshKungle'
p1278
aS'1_Last_Thing'
p1279
aS'creatinekid33'
p1280
aS'AmirMd_'
p1281
aS'Manveer_Pooni'
p1282
aS'JennHarcher'
p1283
aS'clevemetroparks'
p1284
aS'BethHMcLeod'
p1285
aS'cablesamurai'
p1286
aS'LivinLifeDfiant'
p1287
aS'DB_Cavs'
p1288
aS'_David_Wahl_'
p1289
atp1290
Rp1291
(dp1292
g31
(iBeautifulSoup
SoupStrainer
p1293
(dp1294
g34
Nsg35
g36
sg37
(dp1295
g39
g40
ssbsbsg35
g86
sba(iscraper
User
p1296
(dp1297
g3
(lp1298
F0.0
aF0.0
aI18
asg5
g6
(g7
g8
(lp1299
S'JamDwnBurke'
p1300
aS'JoeGoodmanJr'
p1301
aS'ScoJo13'
p1302
aS'SkyDigg4'
p1303
aS'tweetdavebenz'
p1304
aS'BarryChurch42'
p1305
aS'NIGEL_HAYES'
p1306
aS'jtimberlake'
p1307
aS'mozg25'
p1308
aS'GarbageTime'
p1309
aS'colinb7654'
p1310
aS'VicTafur'
p1311
aS'rmarkuz1'
p1312
aS'Hawk'
p1313
aS'Estecles'
p1314
aS'_bonerjamz69'
p1315
aS'sarahleviege'
p1316
aS'ChrisBHaynes'
p1317
atp1318
Rp1319
(dp1320
g31
(iBeautifulSoup
SoupStrainer
p1321
(dp1322
g34
Nsg35
g36
sg37
(dp1323
g39
g40
ssbsbsg35
g87
sba(iscraper
User
p1324
(dp1325
g3
(lp1326
F0.0
aF0.0
aI20
asg5
g6
(g7
g8
(lp1327
S'FanDuel'
p1328
aS'JRSwishFor3'
p1329
aS'nciric2'
p1330
aS'MCD_neo'
p1331
aS'CleFanForLife'
p1332
aS'JR_MESS'
p1333
aS'GCHFHReStore'
p1334
aS'nbaker17'
p1335
aS'ALieb_13'
p1336
aS'emily_hall'
p1337
aS'audiomac7'
p1338
aS'Kollarbear58'
p1339
aS'kejohns31'
p1340
aS'216optimist'
p1341
aS'grantwgates'
p1342
aS'NBAFrench'
p1343
aS'LoganAndress'
p1344
aS'Real_DKash'
p1345
atp1346
Rp1347
(dp1348
g31
(iBeautifulSoup
SoupStrainer
p1349
(dp1350
g34
Nsg35
g36
sg37
(dp1351
g39
g40
ssbsbsg35
g88
sba(iscraper
User
p1352
(dp1353
g3
(lp1354
F0.0
aF0.0
aI17
asg5
g6
(g7
g8
(lp1355
S'DeionSanders'
p1356
aS'MikeVick'
p1357
aS'rwtwtv'
p1358
aS'NoaJames'
p1359
aS'SupurbHustle'
p1360
aS'uninterrupted'
p1361
aS'31Gibbons'
p1362
aS'AlexisGlick'
p1363
aS'solutionsports'
p1364
aS'ALDOEBBM'
p1365
aS'ValMarinR'
p1366
aS'IranianRoyalty'
p1367
aS'GeorgeMartinNYG'
p1368
aS'BGCA_Clubs'
p1369
aS'jamesryang'
p1370
aS'PatsiArias'
p1371
aS'KTdaWinner'
p1372
aS'Kgaskins5'
p1373
atp1374
Rp1375
(dp1376
g31
(iBeautifulSoup
SoupStrainer
p1377
(dp1378
g34
Nsg35
g36
sg37
(dp1379
g39
g40
ssbsbsg35
g89
sba(iscraper
User
p1380
(dp1381
g3
(lp1382
F0.0
aF0.0
aI18
asg5
g6
(g7
g8
(lp1383
S'Variety'
p1384
aS'TarverDerrick'
p1385
aS'StaceyCargill'
p1386
aS'ArbriOHH'
p1387
aS'NielsenSocial'
p1388
aS'Adweek'
p1389
aS'Arielmeredith'
p1390
aS'rembert'
p1391
aS'Xangelovich103'
p1392
aS'echofon'
p1393
aS'JFowlerESPN'
p1394
aS'Sober_Shaune'
p1395
aS'Heartthrob_ROB5'
p1396
aS'Joyyynpain'
p1397
aS'TheMikeOMalley'
p1398
aS'JoeKasper8'
p1399
aS'JoeOravec3'
p1400
aS'SRemorse_Starz'
p1401
atp1402
Rp1403
(dp1404
g31
(iBeautifulSoup
SoupStrainer
p1405
(dp1406
g34
Nsg35
g36
sg37
(dp1407
g39
g40
ssbsbsg35
g90
sba(iscraper
User
p1408
(dp1409
g3
(lp1410
F0.0
aF0.0
aI19
asg5
g6
(g7
g8
(lp1411
S'Ms_LeahB'
p1412
aS'Envy_Deja'
p1413
aS'NET215'
p1414
aS'only1sharkeya'
p1415
aS'followMe_iLead'
p1416
aS'AmazingRoom'
p1417
aS'gdurbbb'
p1418
aS'Lex_topia'
p1419
aS'MissMarlenaRey'
p1420
aS'Siamesenee'
p1421
aS'youNA_built'
p1422
aS'bsmith_215'
p1423
aS'NinaaColadaaa'
p1424
aS'cavs'
p1425
aS'cavsdan'
p1426
aS'MikeMiller_13'
p1427
aS'kevinlove'
p1428
aS'__Hasna'
p1429
atp1430
Rp1431
(dp1432
g31
(iBeautifulSoup
SoupStrainer
p1433
(dp1434
g34
Nsg35
g36
sg37
(dp1435
g39
g40
ssbsbsg35
g91
sba(iscraper
User
p1436
(dp1437
g3
(lp1438
F0.0625
aF0.0
aI16
asg5
g6
(g7
g8
(lp1439
S'TheOnlyJuliann'
p1440
aS'scooterbraun'
p1441
aS'GravezMusic'
p1442
aS'Sportsmanias'
p1443
aS'MikeZombie'
p1444
aS'LoveLianeV'
p1445
aS'Chromeo'
p1446
aS'juniorsanchez'
p1447
aS'junebugxo'
p1448
aS'Nelmazou'
p1449
aS'ashleebelzo'
p1450
aS'AppMeerkat'
p1451
aS'jennac2012'
p1452
aS'RealSway'
p1453
aS'CallieRivers25'
p1454
aS'ByTimReynolds'
p1455
aS'KingOfQueenz'
p1456
aS'TariqCherif'
p1457
atp1458
Rp1459
(dp1460
g31
(iBeautifulSoup
SoupStrainer
p1461
(dp1462
g34
Nsg35
g36
sg37
(dp1463
g39
g40
ssbsbsg35
g92
sba(iscraper
User
p1464
(dp1465
g3
(lp1466
F0.0
aF0.0
aI19
asg5
g6
(g7
g8
(lp1467
S'pardesoteric'
p1468
aS'sarahmcs'
p1469
aS'ryancbiz3'
p1470
aS'alecpriester'
p1471
aS'Trevornoah'
p1472
aS'TherealTaraji'
p1473
aS'gilbertcruz'
p1474
aS'mikeconklin'
p1475
aS'jonathan_wolfe'
p1476
aS'nataliemorales'
p1477
aS'mjchiusano'
p1478
aS'dril'
p1479
aS'carr2n'
p1480
aS'reynadesai'
p1481
aS'e_alexjung'
p1482
aS'KatherineTurman'
p1483
aS'ChelseaVPeretti'
p1484
aS'TheEpochIsNow'
p1485
atp1486
Rp1487
(dp1488
g31
(iBeautifulSoup
SoupStrainer
p1489
(dp1490
g34
Nsg35
g36
sg37
(dp1491
g39
g40
ssbsbsg35
g113
sba(iscraper
User
p1492
(dp1493
g3
(lp1494
F0.0
aF0.0
aI20
asg5
g6
(g7
g8
(lp1495
S'NYTmag'
p1496
aS'mitrakalita'
p1497
aS'rapsodymusic'
p1498
aS'ChicagoReporter'
p1499
aS'KillerMikeGTO'
p1500
aS'MyronOrfield'
p1501
aS'BulldogShadow'
p1502
aS'DrBobBullard'
p1503
aS'MOREcaucusNYC'
p1504
aS'professorshih'
p1505
aS'BigBoi'
p1506
aS'CKdotbiz'
p1507
aS'schemaly'
p1508
aS'SBU_POWER'
p1509
aS'DynoJJ'
p1510
aS'rhonflatts'
p1511
aS'anirvan'
p1512
aS'LatoyaPeterson'
p1513
atp1514
Rp1515
(dp1516
g31
(iBeautifulSoup
SoupStrainer
p1517
(dp1518
g34
Nsg35
g36
sg37
(dp1519
g39
g40
ssbsbsg35
g114
sba(iscraper
User
p1520
(dp1521
g3
(lp1522
F0.0
aF0.0
aI19
asg5
g6
(g7
g8
(lp1523
S'Awl'
p1524
aS'steqheu'
p1525
aS'etherington'
p1526
aS'jwfell'
p1527
aS'jaysylva'
p1528
aS'natjarv'
p1529
aS'gabrielarana'
p1530
aS'kareemy'
p1531
aS'breathnac'
p1532
aS'digiphile'
p1533
aS'EricCarvin'
p1534
aS'SarahFKessler'
p1535
aS'FastCoDesign'
p1536
aS'advertisingweek'
p1537
aS'ctrlzee'
p1538
aS'saraparveen'
p1539
aS'ow'
p1540
aS'Snapchat'
p1541
atp1542
Rp1543
(dp1544
g31
(iBeautifulSoup
SoupStrainer
p1545
(dp1546
g34
Nsg35
g36
sg37
(dp1547
g39
g40
ssbsbsg35
g115
sba(iscraper
User
p1548
(dp1549
g3
(lp1550
F0.05263157894736842
aF0.0
aI19
asg5
g6
(g7
g8
(lp1551
S'GodBlessAchoo'
p1552
aS'eliotnelson'
p1553
aS'LilMissKirs10'
p1554
aS'cpadera'
p1555
aS'fritzo'
p1556
aS'KateSarna'
p1557
aS'hottakery'
p1558
aS'conradhackett'
p1559
aS'gzornick'
p1560
aS'nick_bunker'
p1561
aS'Hellburn716'
p1562
aS'TheShelby'
p1563
aS'el_doubleyou'
p1564
aS'BrianDeSalle'
p1565
aS'rpercelay'
p1566
aS'JeffYoung'
p1567
aS'nona'
p1568
aS'calcolgan'
p1569
atp1570
Rp1571
(dp1572
g31
(iBeautifulSoup
SoupStrainer
p1573
(dp1574
g34
Nsg35
g36
sg37
(dp1575
g39
g40
ssbsbsg35
g116
sba(iscraper
User
p1576
(dp1577
g3
(lp1578
F0.0
aF0.0
aI18
asg5
g6
(g7
g8
(lp1579
S'dtortorici'
p1580
aS'meta_porter'
p1581
aS'tiarafrancis'
p1582
aS'jsmooth995'
p1583
aS'Ramou'
p1584
aS'niederme'
p1585
aS'MOSSLESS'
p1586
aS'DavidTamarkin'
p1587
aS'emilybazelon'
p1588
aS'rce5728'
p1589
aS'parul_sehgal'
p1590
aS'MollyJongFast'
p1591
aS'imbeccable'
p1592
aS'jakesilverstein'
p1593
aS'lpolgreen'
p1594
aS'ditzkoff'
p1595
aS'mk_patter'
p1596
aS'artlikelouis'
p1597
atp1598
Rp1599
(dp1600
g31
(iBeautifulSoup
SoupStrainer
p1601
(dp1602
g34
Nsg35
g36
sg37
(dp1603
g39
g40
ssbsbsg35
g117
sba(iscraper
User
p1604
(dp1605
g3
(lp1606
F0.0
aF0.0
aI20
asg5
g6
(g7
g8
(lp1607
S'meddybln'
p1608
aS'nkulish'
p1609
aS'germanwings'
p1610
aS'lufthansa'
p1611
aS'Robin_Kiely'
p1612
aS'GURUDUDE'
p1613
aS'almarlatour'
p1614
aS'NYCAviation'
p1615
aS'SNPLFALPA'
p1616
aS'spacegovuk'
p1617
aS'studersc'
p1618
aS'lvdvoo'
p1619
aS'LVMH'
p1620
aS'LuxeChronicles'
p1621
aS'NilsdotterK'
p1622
aS'Eurostar'
p1623
aS'LeShuttle'
p1624
aS'GroupEurotunnel'
p1625
atp1626
Rp1627
(dp1628
g31
(iBeautifulSoup
SoupStrainer
p1629
(dp1630
g34
Nsg35
g36
sg37
(dp1631
g39
g40
ssbsbsg35
g118
sba(iscraper
User
p1632
(dp1633
g3
(lp1634
F0.0
aF0.0
aI18
asg5
g6
(g7
g8
(lp1635
S'voxdotcom'
p1636
aS'Gawker'
p1637
aS'AustinLAC'
p1638
aS'carr2n'
p1639
aS'inspiretamtam'
p1640
aS'ariwolfe'
p1641
aS'svmirza'
p1642
aS'SunilJaiswal'
p1643
aS'Chad_Hurley'
p1644
aS'bhorowitz'
p1645
aS'davetisch'
p1646
aS'justonpayne'
p1647
aS'google'
p1648
aS'TechCrunch'
p1649
aS'BillGates'
p1650
aS'profgalloway'
p1651
aS'NYUEntrepreneur'
p1652
aS'brianscohen'
p1653
atp1654
Rp1655
(dp1656
g31
(iBeautifulSoup
SoupStrainer
p1657
(dp1658
g34
Nsg35
g36
sg37
(dp1659
g39
g40
ssbsbsg35
g119
sba(iscraper
User
p1660
(dp1661
g3
(lp1662
F0.0
aF0.0
aI18
asg5
g6
(g7
g8
(lp1663
S'katetaylornyt'
p1664
aS'ucbcomedy'
p1665
aS'SamSifton'
p1666
aS'NYCASP'
p1667
aS'NWSNewYorkNY'
p1668
aS'Trevornoah'
p1669
aS'Liz_A_Harris'
p1670
aS'petereavis'
p1671
aS'Azi'
p1672
aS'melbournecoal'
p1673
aS'ilazer'
p1674
aS'abbijacobson'
p1675
aS'broadcity'
p1676
aS'caseybluejames'
p1677
aS'shawndaj'
p1678
aS'Heidi_Saman'
p1679
aS'TonyHorwitz'
p1680
aS'eastriverferry'
p1681
atp1682
Rp1683
(dp1684
g31
(iBeautifulSoup
SoupStrainer
p1685
(dp1686
g34
Nsg35
g36
sg37
(dp1687
g39
g40
ssbsbsg35
g120
sba(iscraper
User
p1688
(dp1689
g3
(lp1690
F0.0
aF0.0
aI18
asg5
g6
(g7
g8
(lp1691
S'crampell'
p1692
aS'samrob12'
p1693
aS'ClydeHaberman'
p1694
aS'amazon'
p1695
aS'nytDeniseGrady'
p1696
aS'TomJolly'
p1697
aS'SenWarren'
p1698
aS'chambleebrandel'
p1699
aS'TrevorImmelman'
p1700
aS'McIlroyRory'
p1701
aS'TigerWoods'
p1702
aS'acorns'
p1703
aS'StevenErlanger'
p1704
aS'maddow'
p1705
aS'deanbaquet'
p1706
aS'CharlesMBlow'
p1707
aS'TomRedburn'
p1708
aS'JanBenzel'
p1709
atp1710
Rp1711
(dp1712
g31
(iBeautifulSoup
SoupStrainer
p1713
(dp1714
g34
Nsg35
g36
sg37
(dp1715
g39
g40
ssbsbsg35
g121
sba(iscraper
User
p1716
(dp1717
g3
(lp1718
F0.0
aF0.05555555555555555
aI18
asg5
g6
(g7
g8
(lp1719
S'j_petter'
p1720
aS'TheCatTweeting'
p1721
aS'JustineMaki'
p1722
aS'afpauthz'
p1723
aS'shawnzeller'
p1724
aS'mikeallen'
p1725
aS'simpsonspod'
p1726
aS'MedievaIReact'
p1727
aS'AtlanticBID'
p1728
aS'MyrtleAveBklyn'
p1729
aS'BillWichertNJ'
p1730
aS'30rock_insults'
p1731
aS'OnThisDayNYT'
p1732
aS'lancekbooth'
p1733
aS'3ba'
p1734
aS'nytgraphics'
p1735
aS'13pt'
p1736
aS'adyabeasley'
p1737
atp1738
Rp1739
(dp1740
g31
(iBeautifulSoup
SoupStrainer
p1741
(dp1742
g34
Nsg35
g36
sg37
(dp1743
g39
g40
ssbsbsg35
g122
sba(iscraper
User
p1744
(dp1745
g3
(lp1746
F0.0
aF0.0
aI20
asg5
g6
(g7
g8
(lp1747
S'NYTArchives'
p1748
aS'Trevornoah'
p1749
aS'NYTMovies'
p1750
aS'robertasmithnyt'
p1751
aS'coopnytimes'
p1752
aS'AP'
p1753
aS'bittman'
p1754
aS'hellerNYT'
p1755
aS'RyanGosling'
p1756
aS'mikeabramsnyt'
p1757
aS'bbosker'
p1758
aS'nicknotned'
p1759
aS'SmithsonianMag'
p1760
aS'michaelroston'
p1761
aS'THR'
p1762
aS'GSearchTrends'
p1763
aS'MarkHarrisNYC'
p1764
aS'kalyTsoto'
p1765
atp1766
Rp1767
(dp1768
g31
(iBeautifulSoup
SoupStrainer
p1769
(dp1770
g34
Nsg35
g36
sg37
(dp1771
g39
g40
ssbsbsg35
g123
sba(iscraper
User
p1772
(dp1773
g3
(lp1774
F0.0
aF0.0
aI20
asg5
g6
(g7
g8
(lp1775
S'AKMetoikos'
p1776
aS'cpjasia'
p1777
aS'arunava'
p1778
aS'SusanPolgar'
p1779
aS'GMHikaru'
p1780
aS'Kasparov63'
p1781
aS'MagnusCarlsen'
p1782
aS'FabianoCaruana'
p1783
aS'vishy64theking'
p1784
aS'mkatju'
p1785
aS'jekayode'
p1786
aS'Esmatzeerak'
p1787
aS'Gunjsra'
p1788
aS'TheTweetOfGod'
p1789
aS'SCJudgments'
p1790
aS'anubhayadava'
p1791
aS'RoshniBajaj'
p1792
aS'ASuitableGirl'
p1793
atp1794
Rp1795
(dp1796
g31
(iBeautifulSoup
SoupStrainer
p1797
(dp1798
g34
Nsg35
g36
sg37
(dp1799
g39
g40
ssbsbsg35
g124
sba(iscraper
User
p1800
(dp1801
g3
(lp1802
F0.0
aF0.0
aI18
asg5
g6
(g7
g8
(lp1803
S'karronskog'
p1804
aS'tylerdst'
p1805
aS'hawaii'
p1806
aS'MHarrisPerry'
p1807
aS'SumunLPendakur'
p1808
aS'Bytemarks'
p1809
aS'ruikaneya'
p1810
aS'solomonout'
p1811
aS'alexmaccallum'
p1812
aS'Cmdr_Hadfield'
p1813
aS'HirokoTabuchi'
p1814
aS'kerrimac'
p1815
aS'chadblairCB'
p1816
aS'pinkgrammar'
p1817
aS'bydanielvictor'
p1818
aS'NYCcyn'
p1819
aS'bankonjustin'
p1820
aS'olagon'
p1821
atp1822
Rp1823
(dp1824
g31
(iBeautifulSoup
SoupStrainer
p1825
(dp1826
g34
Nsg35
g36
sg37
(dp1827
g39
g40
ssbsbsg35
g125
sba(iscraper
User
p1828
(dp1829
g3
(lp1830
F0.0
aF0.0
aI19
asg5
g6
(g7
g8
(lp1831
S'SaManchester'
p1832
aS'randal_olson'
p1833
aS'powellnyt'
p1834
aS'laurenevemay'
p1835
aS'NailbiterBot'
p1836
aS'henricauvin'
p1837
aS'Ari_NYT'
p1838
aS'samarthbhaskar'
p1839
aS'JaredCurrier'
p1840
aS'annetruax'
p1841
aS'michelledozois'
p1842
aS'LennyMBernstein'
p1843
aS'NYTmag'
p1844
aS'JuliaGTelles'
p1845
aS'ProspectParkTC'
p1846
aS'NYTMetro'
p1847
aS'PamelaPaulNYT'
p1848
aS'sangerkatz'
p1849
atp1850
Rp1851
(dp1852
g31
(iBeautifulSoup
SoupStrainer
p1853
(dp1854
g34
Nsg35
g36
sg37
(dp1855
g39
g40
ssbsbsg35
g126
sba(iscraper
User
p1856
(dp1857
g3
(lp1858
F0.0
aF0.0
aI18
asg5
g6
(g7
g8
(lp1859
S'JCMcCracken'
p1860
aS'jdbiersdorfer'
p1861
aS'Jeffrey_Cane'
p1862
aS'CBinsights'
p1863
aS'Sulliview'
p1864
aS'dgelles'
p1865
aS'deanbaquet'
p1866
aS'NellieBowles'
p1867
aS'NissanUSA'
p1868
aS'dseetharaman'
p1869
aS'RebeccaRuiz'
p1870
aS'murphmarkd'
p1871
aS'emimakinojp'
p1872
aS'emilysteel'
p1873
aS'winguero'
p1874
aS'DavidStreitfeld'
p1875
aS'SteveLohr'
p1876
aS'josephplambeck'
p1877
atp1878
Rp1879
(dp1880
g31
(iBeautifulSoup
SoupStrainer
p1881
(dp1882
g34
Nsg35
g36
sg37
(dp1883
g39
g40
ssbsbsg35
g127
sba(iscraper
User
p1884
(dp1885
g3
(lp1886
F0.0
aF0.0
aI19
asg5
g6
(g7
g8
(lp1887
S'CWAUnion'
p1888
aS'SEIU'
p1889
aS'AFSCME'
p1890
aS'AFLCIO'
p1891
aS'RichardTrumka'
p1892
aS'elmodc'
p1893
aS'jeremybowers'
p1894
aS'EricLiptonNYT'
p1895
aS'EricLichtblau'
p1896
aS'laneflorsheim'
p1897
aS'danpfeiffer'
p1898
aS'MichaelSSchmidt'
p1899
aS'timgrieve'
p1900
aS'bterris'
p1901
aS'MHIGROUPUSA'
p1902
aS'ericuman'
p1903
aS'dionnesearcey'
p1904
aS'SteveEngelberg'
p1905
atp1906
Rp1907
(dp1908
g31
(iBeautifulSoup
SoupStrainer
p1909
(dp1910
g34
Nsg35
g36
sg37
(dp1911
g39
g40
ssbsbsg35
g128
sba(iscraper
User
p1912
(dp1913
g3
(lp1914
F0.0
aF0.0
aI19
asg5
g6
(g7
g8
(lp1915
S'DavidShaftel'
p1916
aS'WaPoSean'
p1917
aS'evanasmith'
p1918
aS'HamiltonCollege'
p1919
aS'HMittelmark'
p1920
aS'FrancescaDonner'
p1921
aS'howardmegdal'
p1922
aS'Berlinger'
p1923
aS'colindickey'
p1924
aS'LyonsEve'
p1925
aS'rachellevinsf'
p1926
aS'meghangourley'
p1927
aS'ScottCacciola'
p1928
aS'golf_com'
p1929
aS'tomscocca'
p1930
aS'NYTArchives'
p1931
aS'JerryBlevins_13'
p1932
aS'JnrVrstyTrading'
p1933
atp1934
Rp1935
(dp1936
g31
(iBeautifulSoup
SoupStrainer
p1937
(dp1938
g34
Nsg35
g36
sg37
(dp1939
g39
g40
ssbsbsg35
g129
sba(iscraper
User
p1940
(dp1941
g3
(lp1942
F0.0
aF0.0
aI19
asg5
g6
(g7
g8
(lp1943
S'akallaur'
p1944
aS'celiadugger'
p1945
aS'nytopinion'
p1946
aS'NatalieShutler'
p1947
aS'MelissaClark'
p1948
aS'SamSifton'
p1949
aS'PatcohenNYT'
p1950
aS'PamelaPaulNYT'
p1951
aS'gettleman'
p1952
aS'emilynussbaum'
p1953
aS'lpolgreen'
p1954
aS'jimwindolf'
p1955
aS'EriFaith'
p1956
aS'francescab'
p1957
aS'icecream_oclock'
p1958
aS'cowellcnd'
p1959
aS'EllenBarryNYT'
p1960
aS'StevenErlanger'
p1961
atp1962
Rp1963
(dp1964
g31
(iBeautifulSoup
SoupStrainer
p1965
(dp1966
g34
Nsg35
g36
sg37
(dp1967
g39
g40
ssbsbsg35
g130
sba(iscraper
User
p1968
(dp1969
g3
(lp1970
F0.0
aF0.0
aI20
asg5
g6
(g7
g8
(lp1971
S'infoarbitrage'
p1972
aS'HermanNarula'
p1973
aS'sama'
p1974
aS'MikeCole24'
p1975
aS'TransferWise'
p1976
aS'taavet'
p1977
aS'ComplexMag'
p1978
aS'DIYGene'
p1979
aS'BernardJTyson'
p1980
aS'LauraBehrensWu'
p1981
aS'pentagoniac'
p1982
aS'Brice_Butler'
p1983
aS'NickSzabo4'
p1984
aS'HeyTammyBruce'
p1985
aS'XHNews'
p1986
aS'8en'
p1987
aS'KimKierkegaard'
p1988
aS'jdloveless'
p1989
atp1990
Rp1991
(dp1992
g31
(iBeautifulSoup
SoupStrainer
p1993
(dp1994
g34
Nsg35
g36
sg37
(dp1995
g39
g40
ssbsbsg35
g151
sba(iscraper
User
p1996
(dp1997
g3
(lp1998
F0.0
aF0.0
aI20
asg5
g6
(g7
g8
(lp1999
S'alignmed'
p2000
aS'EllieGonsalves'
p2001
aS'LifeLimits'
p2002
aS'KateUpton'
p2003
aS'IGGYAZALEA'
p2004
aS'jimmyfallon'
p2005
aS'Gerry_Corcoran'
p2006
aS'TheRealSlamtana'
p2007
aS'TigerWoods'
p2008
aS'Starbucks'
p2009
aS'zacbrownband'
p2010
aS'joeharrisuva'
p2011
aS'RobGronkowski'
p2012
aS'Legendary'
p2013
aS'JeterPublishing'
p2014
aS'sjeter2'
p2015
aS'PlayersTribune'
p2016
aS'SI_LeeJenkins'
p2017
atp2018
Rp2019
(dp2020
g31
(iBeautifulSoup
SoupStrainer
p2021
(dp2022
g34
Nsg35
g36
sg37
(dp2023
g39
g40
ssbsbsg35
g152
sba(iscraper
User
p2024
(dp2025
g3
(lp2026
F0.0
aF0.0
aI16
asg5
g6
(g7
g8
(lp2027
S'RealTJohnson'
p2028
aS'rileywilliamsMD'
p2029
aS'FrencHMonTanA'
p2030
aS'DJBANDCAMP'
p2031
aS'BrittneeRodgers'
p2032
aS'SpiderAnderson'
p2033
aS'MiZZMEllYMEl'
p2034
aS'marlainski'
p2035
aS'iRokChrist42'
p2036
aS'wasgatt'
p2037
aS'amirzing'
p2038
aS'TDORSEY_1'
p2039
aS'TheotisB'
p2040
aS'NonFiction_Ray'
p2041
aS'swindle72'
p2042
aS'RiceMoss12'
p2043
aS'TYHilton13'
p2044
aS'KrisHumphries'
p2045
atp2046
Rp2047
(dp2048
g31
(iBeautifulSoup
SoupStrainer
p2049
(dp2050
g34
Nsg35
g36
sg37
(dp2051
g39
g40
ssbsbsg35
g153
sba(iscraper
User
p2052
(dp2053
g3
(lp2054
F0.0
aF0.0
aI20
asg5
g6
(g7
g8
(lp2055
S'lukeoneil47'
p2056
aS'laurschwar'
p2057
aS'louistheroux'
p2058
aS'nyrb'
p2059
aS'nybooks'
p2060
aS'archipelagobks'
p2061
aS'HanaMichels'
p2062
aS'JamieManelis'
p2063
aS'DavidCovucci'
p2064
aS'crulge'
p2065
aS'allie_conti'
p2066
aS'A_W_Gordon'
p2067
aS'jamesyeh'
p2068
aS'chancetherapper'
p2069
aS'VICEGaming'
p2070
aS'TheTomasRios'
p2071
aS'bananalise'
p2072
aS'aaroncarter'
p2073
atp2074
Rp2075
(dp2076
g31
(iBeautifulSoup
SoupStrainer
p2077
(dp2078
g34
Nsg35
g36
sg37
(dp2079
g39
g40
ssbsbsg35
g154
sba(iscraper
User
p2080
(dp2081
g3
(lp2082
F0.0
aF0.0
aI2
asg5
g6
(g7
g8
(lp2083
S'SCRAMJONES'
p2084
aS'souljaboy'
p2085
aS'IamJohnnyMUzik'
p2086
aS'BenAffleck'
p2087
aS'egoraptor'
p2088
aS'TheNBPA'
p2089
aS'deadmau5'
p2090
aS'fucktyler'
p2091
aS'LilTunechi'
p2092
aS'NBA'
p2093
aS'justinbieber'
p2094
aS'CarmeloCity'
p2095
aS'cheddahcheese7'
p2096
aS'carmeloanthony'
p2097
aS'dickmasterson'
p2098
aS'SadlyLUT'
p2099
atp2100
Rp2101
(dp2102
g31
(iBeautifulSoup
SoupStrainer
p2103
(dp2104
g34
Nsg35
g36
sg37
(dp2105
g39
g40
ssbsbsg35
g155
sba.