(lp0
(iscraper
User
p1
(dp2
S'attraction'
p3
(lp4
F0.0
aF0.0
aI20
asS'followingUsernames'
p5
ccopy_reg
_reconstructor
p6
(cBeautifulSoup
ResultSet
p7
c__builtin__
list
p8
(lp9
S'MiniMansions'
p10
aS'TimNoakes'
p11
aS'carvellwallace'
p12
aS'thisisminnow'
p13
aS'soyrev'
p14
aS'rachel_handler'
p15
aS'_anupa'
p16
aS'_bobina'
p17
aS'jessicaviscius'
p18
aS'pistolsofficial'
p19
aS'zero7official'
p20
aS'HollywoodHolt'
p21
aS'Genius'
p22
aS'FFS_MUSIC'
p23
aS'jiggyraps'
p24
aS'emmaggarland'
p25
aS'MIFestival'
p26
aS'LordeDaily'
p27
atp28
Rp29
(dp30
S'source'
p31
(iBeautifulSoup
SoupStrainer
p32
(dp33
S'text'
p34
NsS'name'
p35
S'span'
p36
sS'attrs'
p37
(dp38
S'class'
p39
S'u-linkComplex-target'
p40
ssbsbsg35
S'pitchfork'
p41
sba(iscraper
User
p42
(dp43
g3
(lp44
F0.0
aF0.0
aI19
asg5
g6
(g7
g8
(lp45
S'CassieFenley'
p46
aS'davidfaber'
p47
aS'MadMoneyOnCNBC'
p48
aS'SquawkCNBC'
p49
aS'CNBCFastMoney'
p50
aS'jimcramer'
p51
aS'SquawkStreet'
p52
aS'carlquintanilla'
p53
aS'tanjra1985'
p54
aS'TheTweetOfGod'
p55
aS'clayco'
p56
aS'grauface'
p57
aS'hoff'
p58
aS'MichaelSlezakTV'
p59
aS'MandiBierly'
p60
aS'DaltonRoss'
p61
aS'EWTimStack'
p62
aS'McAthy10'
p63
atp64
Rp65
(dp66
g31
(iBeautifulSoup
SoupStrainer
p67
(dp68
g34
Nsg35
g36
sg37
(dp69
g39
g40
ssbsbsg35
S'kboord'
p70
sba(iscraper
User
p71
(dp72
g3
(lp73
F0.0
aF0.0
aI20
asg5
g6
(g7
g8
(lp74
S'david_s_aikman'
p75
aS'bnussey'
p76
aS'rebuildfdn'
p77
aS'Forbes'
p78
aS'IQ2US'
p79
aS'VinodColeslaw'
p80
aS'ChristopherBudd'
p81
aS'SkyGellatly'
p82
aS'fwd'
p83
aS'reboot'
p84
aS'BjarkeIngels'
p85
aS'HelloAngels'
p86
aS'henrysward'
p87
aS'Nivo0o0'
p88
aS'YellowstoneClub'
p89
aS'gaberivera'
p90
aS'wex1200'
p91
aS'PeterDiamandis'
p92
atp93
Rp94
(dp95
g31
(iBeautifulSoup
SoupStrainer
p96
(dp97
g34
Nsg35
g36
sg37
(dp98
g39
g40
ssbsbsg35
S'joshspear'
p99
sba(iscraper
User
p100
(dp101
g3
(lp102
F0.0
aF0.0
aI19
asg5
g6
(g7
g8
(lp103
S'joederosacomedy'
p104
aS'emilyzemler'
p105
aS'DaveHolmes'
p106
aS'titoortiz'
p107
aS'TraceeEllisRoss'
p108
aS'timothycsimons'
p109
aS'PaulVirzi'
p110
aS'ijustine'
p111
aS'ranwins'
p112
aS'Vincent_Marcus'
p113
aS'GrantCotter'
p114
aS'JustinHires'
p115
aS'rachelrusch'
p116
aS'aparnapkin'
p117
aS'kevinweisman'
p118
aS'MintzPlasse'
p119
aS'brittanygilp'
p120
aS'SneakerNews'
p121
atp122
Rp123
(dp124
g31
(iBeautifulSoup
SoupStrainer
p125
(dp126
g34
Nsg35
g36
sg37
(dp127
g39
g40
ssbsbsg35
S'chrisdelia'
p128
sba(iscraper
User
p129
(dp130
g3
(lp131
F0.0
aF0.0
aI20
asg5
g6
(g7
g8
(lp132
S'Square'
p133
aS'kroq'
p134
aS'riseagainst'
p135
aS'TenSecondSongs'
p136
aS'AFI'
p137
aS'30SECONDSTOMARS'
p138
aS'VyRT'
p139
aS'turnstilelive'
p140
aS'kavipaste'
p141
aS'MarkPellington'
p142
aS'InfinityAudio'
p143
aS'MallMovie'
p144
aS'OMandM'
p145
aS'NAVER_LINE'
p146
aS'PaulRieckhoff'
p147
aS'iava'
p148
aS'LPBLKMRKT'
p149
aS'ingress'
p150
atp151
Rp152
(dp153
g31
(iBeautifulSoup
SoupStrainer
p154
(dp155
g34
Nsg35
g36
sg37
(dp156
g39
g40
ssbsbsg35
S'linkinpark'
p157
sba(iscraper
User
p158
(dp159
g3
(lp160
F0.0
aF0.0
aI20
asg5
g6
(g7
g8
(lp161
S'pentametron'
p162
aS'PURITY_RING'
p163
aS'aplusk'
p164
aS'AppMeerkat'
p165
aS'glove'
p166
aS'Square'
p167
aS'jack'
p168
aS'Mazzeo'
p169
aS'glennsolomon'
p170
aS'Williams'
p171
aS'evanspiegel'
p172
aS'TWistartups'
p173
aS'birbigs'
p174
aS'youngfuego'
p175
aS'Thomaspridgen'
p176
aS'JonahMatranga'
p177
aS'echosmith'
p178
aS'alispagnola'
p179
atp180
Rp181
(dp182
g31
(iBeautifulSoup
SoupStrainer
p183
(dp184
g34
Nsg35
g36
sg37
(dp185
g39
g40
ssbsbsg35
S'mikeshinoda'
p186
sba(iscraper
User
p187
(dp188
g3
(lp189
F0.0
aF0.0
aI3
asg5
g6
(g7
g8
(lp190
S'ChloeS'
p191
aS'aunder'
p192
aS'jess'
p193
aS'KatieS'
p194
aS'vijaya'
p195
aS'janamal'
p196
atp197
Rp198
(dp199
g31
(iBeautifulSoup
SoupStrainer
p200
(dp201
g34
Nsg35
g36
sg37
(dp202
g39
g40
ssbsbsg35
S'HelloAngels'
p203
sba(iscraper
User
p204
(dp205
g3
(lp206
F0.0
aF0.0
aI19
asg5
g6
(g7
g8
(lp207
S'TabHunterDoc'
p208
aS'SchwarzJeffrey'
p209
aS'HeatherFamous'
p210
aS'RetiredSteven'
p211
aS'JeremyBobb'
p212
aS'lisarinna'
p213
aS'Uber'
p214
aS'fakedanshusband'
p215
aS'CraigRamsayFit'
p216
aS'RestingPlatypus'
p217
aS'tom_cullen'
p218
aS'jillsoloway'
p219
aS'TimTmabe'
p220
aS'MyTmabe'
p221
aS'MarkRuffalo'
p222
aS'larrysullivan'
p223
aS'TheAAshford'
p224
aS'DeltaAssist'
p225
atp226
Rp227
(dp228
g31
(iBeautifulSoup
SoupStrainer
p229
(dp230
g34
Nsg35
S'span'
p231
sg37
(dp232
S'class'
p233
S'u-linkComplex-target'
p234
ssbsbsg35
S'AndrewRannells'
p235
sba(iscraper
User
p236
(dp237
g3
(lp238
F0.0
aF0.0
aI19
asg5
g6
(g7
g8
(lp239
S'AppMeerkat'
p240
aS'alexandratyler_'
p241
aS'nigelgod'
p242
aS'annediagne'
p243
aS'GentsPlaybook'
p244
aS'MuttCutts'
p245
aS'DumbTo'
p246
aS'endclothing'
p247
aS'WSchupfer'
p248
aS'HYPEBEAST'
p249
aS'Thefuturefm'
p250
aS'LindsayLuv'
p251
aS'SGCNY'
p252
aS'IJasonAlexander'
p253
aS'samantharonson'
p254
aS'Scottlipps'
p255
aS'JasonWu'
p256
aS'Balmain'
p257
atp258
Rp259
(dp260
g31
(iBeautifulSoup
SoupStrainer
p261
(dp262
g34
Nsg35
g231
sg37
(dp263
g233
g234
ssbsbsg35
S'StyleMarkHolmes'
p264
sba(iscraper
User
p265
(dp266
g3
(lp267
F0.0
aF0.0
aI19
asg5
g6
(g7
g8
(lp268
S'BellaVella518'
p269
aS'boardtobeauty'
p270
aS'KirstiMcphail'
p271
aS'WhiteVsBlackTwt'
p272
aS'jmurbulldog'
p273
aS'C_Soules'
p274
aS'tbhjuststop'
p275
aS'megkyoung'
p276
aS'Port1Cafe'
p277
aS'ItsWaltBitch'
p278
aS'SUBWAYCanada'
p279
aS'ayeshasehra'
p280
aS'linagoncalv'
p281
aS'AndiDorfman'
p282
aS'itsBroStinson'
p283
aS'maryiscool95'
p284
aS'TheEllenShow'
p285
aS'MFredericksGolf'
p286
atp287
Rp288
(dp289
g31
(iBeautifulSoup
SoupStrainer
p290
(dp291
g34
Nsg35
g231
sg37
(dp292
g233
g234
ssbsbsg35
S'stofanieSTEF'
p293
sba(iscraper
User
p294
(dp295
g3
(lp296
F0.0
aF0.0
aI20
asg5
g6
(g7
g8
(lp297
S'DarrenCriss'
p298
aS'playbill'
p299
aS'nytimesmusic'
p300
aS'DollyParton'
p301
aS'cher'
p302
aS'andylevy'
p303
aS'EinsteinParody'
p304
aS'Always'
p305
aS'davenadelberg'
p306
aS'rationalfunk'
p307
aS'Mortified'
p308
aS'iraglass'
p309
aS'serial'
p310
aS'MayaRudolph'
p311
aS'LosFelizDayCare'
p312
aS'amyschumer'
p313
aS'st_vincent'
p314
aS'vanessabayer'
p315
atp316
Rp317
(dp318
g31
(iBeautifulSoup
SoupStrainer
p319
(dp320
g34
Nsg35
g231
sg37
(dp321
g233
g234
ssbsbsg35
S'SaraBareilles'
p322
sba(iscraper
User
p323
(dp324
g3
(lp325
F0.0
aF0.0
aI20
asg5
g6
(g7
g8
(lp326
S'andersgrahn'
p327
aS'LissaFone'
p328
aS'Fossphate'
p329
aS'mikkyekko'
p330
aS'mkburnett'
p331
aS'Diane_Warren'
p332
aS'flansongs'
p333
aS'misssunshine312'
p334
aS'Justin_5591'
p335
aS'amcmahonshop'
p336
aS'ScottWarner18'
p337
aS'raelinnie'
p338
aS'chris_cozz'
p339
aS'chris_mercaldo'
p340
aS'isorvino'
p341
aS'KTCLchannel933'
p342
aS'KellyVreeland'
p343
aS'jaymichaels13'
p344
atp345
Rp346
(dp347
g31
(iBeautifulSoup
SoupStrainer
p348
(dp349
g34
Nsg35
g231
sg37
(dp350
g233
g234
ssbsbsg35
S'andrewmcmahon'
p351
sba(iscraper
User
p352
(dp353
g3
(lp354
F0.0
aF0.0
aI18
asg5
g6
(g7
g8
(lp355
S'neongoldrecords'
p356
aS'TeenageCancer'
p357
aS'lbaris'
p358
aS'NoiseTrade'
p359
aS'derekwebb'
p360
aS'gogreennotes'
p361
aS'kevinduquette'
p362
aS'sethdecoteau'
p363
aS'yellowbirddd'
p364
aS'fieldmousemusic'
p365
aS'ElleKingMusic'
p366
aS'LowCutConnie'
p367
aS'pandoracareers'
p368
aS'TwoFreshbeats'
p369
aS'SouthByFreeNOMS'
p370
aS'nbroverman'
p371
aS'hellyesdm'
p372
aS'Prioryband'
p373
atp374
Rp375
(dp376
g31
(iBeautifulSoup
SoupStrainer
p377
(dp378
g34
Nsg35
g231
sg37
(dp379
g233
g234
ssbsbsg35
S'allycoalition'
p380
sba(iscraper
User
p381
(dp382
g3
(lp383
F0.0
aF0.0
aI20
asg5
g6
(g7
g8
(lp384
S'ThislsAmazing'
p385
aS'NativAmProverbs'
p386
aS'Emilykingmusic'
p387
aS'atlasgenius'
p388
aS'Santigold'
p389
aS'PulseRecording'
p390
aS'ChiliPeppers'
p391
aS'ArcticMonkeys'
p392
aS'Casablancas_J'
p393
aS'thestrokes'
p394
aS'YYYs'
p395
aS'TMmeditation'
p396
aS'NeilYoungLyric'
p397
aS'BeckyHill'
p398
aS'YOUNGMGMT'
p399
aS'juliancmiller'
p400
aS'elizavetaka'
p401
aS'pplmvr'
p402
atp403
Rp404
(dp405
g31
(iBeautifulSoup
SoupStrainer
p406
(dp407
g34
Nsg35
g231
sg37
(dp408
g233
g234
ssbsbsg35
S'iamlp'
p409
sba(iscraper
User
p410
(dp411
g3
(lp412
F0.0
aF0.0
aI18
asg5
g6
(g7
g8
(lp413
S'EveryNoise'
p414
aS'jooe63_joe'
p415
aS'Hozier'
p416
aS'LucasJamesCPT'
p417
aS'jizziemcguire'
p418
aS'YSL'
p419
aS'LoveandLemons'
p420
aS'samwolfson'
p421
aS'HARDWELL'
p422
aS'PeepShowQOTD'
p423
aS'julianbulian'
p424
aS'JackGarratt'
p425
aS'gomacro'
p426
aS'Cunt_Watchers'
p427
aS'haxan_cloak'
p428
aS'cocowhiteuk'
p429
aS'Lukedavisgrey'
p430
aS'BillandMar'
p431
atp432
Rp433
(dp434
g31
(iBeautifulSoup
SoupStrainer
p435
(dp436
g34
Nsg35
g231
sg37
(dp437
g233
g234
ssbsbsg35
S'elliegoulding'
p438
sba(iscraper
User
p439
(dp440
g3
(lp441
F0.0
aF0.0
aF0.0
asg5
g6
(g7
g8
(lp442
tp443
Rp444
(dp445
g31
(iBeautifulSoup
SoupStrainer
p446
(dp447
g34
Nsg35
g231
sg37
(dp448
g233
g234
ssbsbsg35
S'jasonhecht'
p449
sba(iscraper
User
p450
(dp451
g3
(lp452
F0.0
aF0.0
aI20
asg5
g6
(g7
g8
(lp453
S'signsforchange'
p454
aS'Blklivesmatter'
p455
aS'LGBT_news'
p456
aS'TransBrighton'
p457
aS'InTheMakingLGBT'
p458
aS'Trans_Students'
p459
aS'SRLP'
p460
aS'antiviolence'
p461
aS'KevinZegers'
p462
aS'ElisabethRohm'
p463
aS'GeorgeKotsi'
p464
aS'kiernanshipka'
p465
aS'marcshaiman'
p466
aS'mradamscott'
p467
aS'TheMoyWonder'
p468
aS'kellanlutz'
p469
aS'KatieHeigl'
p470
aS'ianharvie'
p471
atp472
Rp473
(dp474
g31
(iBeautifulSoup
SoupStrainer
p475
(dp476
g34
Nsg35
g231
sg37
(dp477
g233
g234
ssbsbsg35
S'TrevorProject'
p478
sba(iscraper
User
p479
(dp480
g3
(lp481
F0.0
aF0.0
aI16
asg5
g6
(g7
g8
(lp482
S'kyle_frenette'
p483
aS'sodomyqu33n'
p484
aS'_KateMara'
p485
aS'mybandowen'
p486
aS'kylefrenette'
p487
aS'HistoryInPics'
p488
aS'thelaurengraham'
p489
aS'DestinyTheGame'
p490
aS'amandabynes'
p491
aS'bogartsdoughnut'
p492
aS'Joshmadden'
p493
aS'ParisHilton'
p494
aS'rodinreallife'
p495
aS'chrisfarren'
p496
aS'JasminParkin'
p497
aS'lenadunham'
p498
aS'guitarjosie'
p499
aS'kayla_itsines'
p500
atp501
Rp502
(dp503
g31
(iBeautifulSoup
SoupStrainer
p504
(dp505
g34
Nsg35
g231
sg37
(dp506
g233
g234
ssbsbsg35
S'okaycaceface'
p507
sba(iscraper
User
p508
(dp509
g3
(lp510
F0.0
aF0.0
aI19
asg5
g6
(g7
g8
(lp511
S'WillFerri'
p512
aS'DanielGow'
p513
aS'ChrissyCostanza'
p514
aS'ATC_BAND'
p515
aS'nateruessmusic'
p516
aS'mattydookis'
p517
aS'erichalvorsen'
p518
aS'ChrisSennerVT'
p519
aS'vinyljosh'
p520
aS'NickCesarz'
p521
aS'KeeganCalmes'
p522
aS'vinyltheatre'
p523
aS'dannibouchard'
p524
aS'MitchyCollins'
p525
aS'Ohhoneymusic'
p526
aS'ReelBearMedia'
p527
aS'DCD2records'
p528
aS'AltPress'
p529
atp530
Rp531
(dp532
g31
(iBeautifulSoup
SoupStrainer
p533
(dp534
g34
Nsg35
g231
sg37
(dp535
g233
g234
ssbsbsg35
S'FueledByRamen'
p536
sba(iscraper
User
p537
(dp538
g3
(lp539
F0.0
aF0.0
aI9
asg5
g6
(g7
g8
(lp540
S'JB_Bieuville'
p541
aS'lesinrockslab'
p542
aS'basolivier'
p543
aS'JAMAICATWIT'
p544
aS'DjASHBA'
p545
aS'salome_leclerc'
p546
aS'VianneyMusique'
p547
aS'LennyKravitz'
p548
aS'Les_Wampas'
p549
aS'FloDeLavega'
p550
aS'NataliaDoco'
p551
aS'FreroDelavega'
p552
aS'JeremyFrerot'
p553
aS'texastheband'
p554
aS'carlbaratmusic'
p555
aS'dubincofficial'
p556
aS'KeziahJNZ'
p557
aS'Charlie_Winston'
p558
atp559
Rp560
(dp561
g31
(iBeautifulSoup
SoupStrainer
p562
(dp563
g34
Nsg35
g231
sg37
(dp564
g233
g234
ssbsbsg35
S'GibsonFr'
p565
sba(iscraper
User
p566
(dp567
g3
(lp568
F0.0
aF0.0
aI7
asg5
g6
(g7
g8
(lp569
S'itv2'
p570
aS'RakutenUKhelp'
p571
aS'MrMattWolfenden'
p572
aS'JessieWallaceUK'
p573
aS'amywalsh27'
p574
aS'michkeegan'
p575
aS'bbceastenders'
p576
aS'emmerdale'
p577
aS'ITV'
p578
aS'Channel4'
p579
aS'BBCOne'
p580
aS'_youhadonejob'
p581
aS'dollyjoyner'
p582
aS'LauriebrettX'
p583
aS'Nat_Cassidy'
p584
aS'RBcomedian'
p585
aS'dominictc'
p586
aS'Sam_Womack'
p587
atp588
Rp589
(dp590
g31
(iBeautifulSoup
SoupStrainer
p591
(dp592
g34
Nsg35
g231
sg37
(dp593
g233
g234
ssbsbsg35
S'madacj'
p594
sba(iscraper
User
p595
(dp596
g3
(lp597
F0.0
aF0.0
aI20
asg5
g6
(g7
g8
(lp598
S'localgiftshop'
p599
aS'McrMosaics'
p600
aS'MissMinimanna'
p601
aS'61side'
p602
aS'BuddyCards'
p603
aS'MNubiah'
p604
aS'TiffsArt'
p605
aS'petefitz52'
p606
aS'mcrcoffeeco'
p607
aS'nqmarketmcr'
p608
aS'MyWorldCards'
p609
aS'MCRMarkets'
p610
aS'DeirdreHughess'
p611
aS'SWALKcreative'
p612
aS'studioLWD'
p613
aS'Sallyswannell'
p614
aS'ZiferblatEdgeSt'
p615
aS'rdberryhill'
p616
atp617
Rp618
(dp619
g31
(iBeautifulSoup
SoupStrainer
p620
(dp621
g34
Nsg35
g231
sg37
(dp622
g233
g234
ssbsbsg35
S'Wraptious'
p623
sba(iscraper
User
p624
(dp625
g3
(lp626
F0.0
aF0.0
aI17
asg5
g6
(g7
g8
(lp627
S'AskeBay'
p628
aS'AmazonHelp'
p629
aS'RakutenUKhelp'
p630
aS'PlaycomHelp'
p631
aS'monstersoutside'
p632
aS'shelliwalsh'
p633
aS'alexmoss'
p634
aS'Design_By_Day'
p635
aS'mNwork'
p636
aS'creativesparknq'
p637
aS'MadeByShape'
p638
aS'toonholechris'
p639
aS'Bullshirt_UK'
p640
aS'thegoldblumlife'
p641
aS'GritFX'
p642
aS'ryanxcharles'
p643
aS'eruditebaboon'
p644
aS'AshyHiggs'
p645
atp646
Rp647
(dp648
g31
(iBeautifulSoup
SoupStrainer
p649
(dp650
g34
Nsg35
g231
sg37
(dp651
g233
g234
ssbsbsg35
S'Tabners'
p652
sba(iscraper
User
p653
(dp654
g3
(lp655
F0.0
aF0.0
aI18
asg5
g6
(g7
g8
(lp656
S'NatWest_Help'
p657
aS'DroppingAnchorz'
p658
aS'Allie_Milledge'
p659
aS'Jasmin_Bishop'
p660
aS'alicekimberley'
p661
aS'Ccampbellmusic'
p662
aS'Sia'
p663
aS'melblatt'
p664
aS'TomOrryYT'
p665
aS'SamTheYouTuber'
p666
aS'WickedUK'
p667
aS'Ben_Blogsss'
p668
aS'TheEddyWatson'
p669
aS'thatjenlynch'
p670
aS'ODEONHelp'
p671
aS'Joe_Sugg'
p672
aS'jalicecorral'
p673
aS'StineTveito'
p674
atp675
Rp676
(dp677
g31
(iBeautifulSoup
SoupStrainer
p678
(dp679
g34
Nsg35
g231
sg37
(dp680
g233
g234
ssbsbsg35
S'mrbradleycoker'
p681
sba(iscraper
User
p682
(dp683
g3
(lp684
F0.05263157894736842
aF0.0
aI19
asg5
g6
(g7
g8
(lp685
S'demetriwalters'
p686
aS'Disasterpeace'
p687
aS'JessieJ'
p688
aS'RakutenUKhelp'
p689
aS'TheOutfitUK'
p690
aS'SteveEasterbrk'
p691
aS'Millice_'
p692
aS'elle19842'
p693
aS'J0Roberts'
p694
aS'NialConnacher1'
p695
aS'AcousticTrench'
p696
aS'berrybrosrudd'
p697
aS'brookfield84'
p698
aS'LidiaSzmid'
p699
aS'apegroup'
p700
aS'SkiBeat'
p701
aS'Ski_La_Rosiere'
p702
aS'La_Thuile_ski'
p703
atp704
Rp705
(dp706
g31
(iBeautifulSoup
SoupStrainer
p707
(dp708
g34
Nsg35
g231
sg37
(dp709
g233
g234
ssbsbsg35
S'tomjamesoneill'
p710
sba(iscraper
User
p711
(dp712
g3
(lp713
F0.10526315789473684
aF0.0
aI19
asg5
g6
(g7
g8
(lp714
S'bruceybhughes'
p715
aS'Danibeaumont3'
p716
aS'xoRachyyyox'
p717
aS'RakutenUKhelp'
p718
aS'ScarlettMoffatt'
p719
aS'homebargains'
p720
aS'ClublandTVUK'
p721
aS'AmyHarper22'
p722
aS'niarockyjones'
p723
aS'sharonwatters32'
p724
aS'PaddyMcGuinness'
p725
aS'Meghan_Trainor'
p726
aS'QuennieBunch'
p727
aS'FleurEast'
p728
aS'Top_CashBack'
p729
aS'CandyCrushSoda'
p730
aS'4NorthWales'
p731
aS'samsmithworld'
p732
atp733
Rp734
(dp735
g31
(iBeautifulSoup
SoupStrainer
p736
(dp737
g34
Nsg35
g231
sg37
(dp738
g233
g234
ssbsbsg35
S'IainKnill'
p739
sba(iscraper
User
p740
(dp741
g3
(lp742
F0.0
aF0.0
aI19
asg5
g6
(g7
g8
(lp743
S'RakutenUKhelp'
p744
aS'RakutenUK'
p745
aS'WillsJoanna'
p746
aS'loulouPScully'
p747
aS'BadTimeBabble'
p748
aS'Plus1HD'
p749
aS'simonjgrant'
p750
aS'ComedyChamps'
p751
aS'Dgirl22211'
p752
aS'linzimartin81'
p753
aS'AnikaBostelaar'
p754
aS'BigReunionITV'
p755
aS'Shine_TV'
p756
aS'_Princess_TV_'
p757
aS'MusicalTalkThos'
p758
aS'HelenPeters22'
p759
aS'CaulfieldTwins'
p760
aS'drummernicky'
p761
atp762
Rp763
(dp764
g31
(iBeautifulSoup
SoupStrainer
p765
(dp766
g34
Nsg35
g231
sg37
(dp767
g233
g234
ssbsbsg35
S'TomGironTowers'
p768
sba(iscraper
User
p769
(dp770
g3
(lp771
F0.0
aF0.0
aI20
asg5
g6
(g7
g8
(lp772
S'MelanieMse'
p773
aS'ScaramangaUK'
p774
aS'melandjake99'
p775
aS'DoveUK'
p776
aS'what2buy4kids'
p777
aS'Chevronbags'
p778
aS'Jens_Journal'
p779
aS'shhhbeautyblog'
p780
aS'hqHairBeauty'
p781
aS'brentcross'
p782
aS'scratchstars'
p783
aS'CholulaUK'
p784
aS'homestylemaguk'
p785
aS'weloveperfect10'
p786
aS'ContourCosmetic'
p787
aS'123andrea456'
p788
aS'cocoacashmereuk'
p789
aS'frostyjackcider'
p790
atp791
Rp792
(dp793
g31
(iBeautifulSoup
SoupStrainer
p794
(dp795
g34
Nsg35
g231
sg37
(dp796
g233
g234
ssbsbsg35
S'zoe_89_'
p797
sba(iscraper
User
p798
(dp799
g3
(lp800
F0.0
aF0.0
aI20
asg5
g6
(g7
g8
(lp801
S'SilknSolution'
p802
aS'tomcarterwatch'
p803
aS'justmustard'
p804
aS'SagaUK'
p805
aS'WareStyle'
p806
aS'labelmUK'
p807
aS'thenorthface'
p808
aS'NickelodeonTV'
p809
aS'nickjr'
p810
aS'paddypower'
p811
aS'ShowbizSecrets'
p812
aS'Devon_Valley'
p813
aS'sudocrem'
p814
aS'ACECLEANUK'
p815
aS'MalawiGovt'
p816
aS'MetroUK'
p817
aS'cultnoisemag'
p818
aS'wolfandwhistle'
p819
atp820
Rp821
(dp822
g31
(iBeautifulSoup
SoupStrainer
p823
(dp824
g34
Nsg35
g231
sg37
(dp825
g233
g234
ssbsbsg35
S'KateWedge'
p826
sba(iscraper
User
p827
(dp828
g3
(lp829
F0.0
aF0.0
aI19
asg5
g6
(g7
g8
(lp830
S'hotdiamonds'
p831
aS'SandbergIT'
p832
aS'glenfarclas'
p833
aS'bathtakeaway'
p834
aS'BeWarmers'
p835
aS'MountainWHouse'
p836
aS'CompareMyMove'
p837
aS'BcardArena'
p838
aS'Hurley_shops'
p839
aS'abodehome'
p840
aS'4Tmedical'
p841
aS'SCIMX'
p842
aS'ShoeLicks'
p843
aS'airospring'
p844
aS'UKMagicFreebies'
p845
aS'ExpertHomeTips'
p846
aS'seedandbean'
p847
aS'LandLoveMag'
p848
atp849
Rp850
(dp851
g31
(iBeautifulSoup
SoupStrainer
p852
(dp853
g34
Nsg35
g231
sg37
(dp854
g233
g234
ssbsbsg35
S'jamesharland4'
p855
sba(iscraper
User
p856
(dp857
g3
(lp858
F0.0
aF0.0
aI19
asg5
g6
(g7
g8
(lp859
S'Hyperec_HRS'
p860
aS'CPWTweets'
p861
aS'ASOS'
p862
aS'ciatelondon'
p863
aS'GameSeek'
p864
aS'womanandhome'
p865
aS'mycoopfood'
p866
aS'Disaronno_UK'
p867
aS'Jens_Journal'
p868
aS'blucigsUK'
p869
aS'AlexdeCurtis'
p870
aS'flannelsfashion'
p871
aS'KrugBaumen_com'
p872
aS'Kissglove'
p873
aS'RakutenUK'
p874
aS'verynetwork'
p875
aS'Cohenschem'
p876
aS'unislim'
p877
atp878
Rp879
(dp880
g31
(iBeautifulSoup
SoupStrainer
p881
(dp882
g34
Nsg35
g231
sg37
(dp883
g233
g234
ssbsbsg35
S'HannahCw95'
p884
sba(iscraper
User
p885
(dp886
g3
(lp887
F0.0
aF0.0
aI20
asg5
g6
(g7
g8
(lp888
S'eastpak'
p889
aS'DrPepper_GB'
p890
aS'yoursclothing'
p891
aS'VitaCocoKidsUK'
p892
aS'Haus_of_Fox'
p893
aS'abodehome'
p894
aS'TalkBusinessMag'
p895
aS'IconBeverages'
p896
aS'ifloristUK'
p897
aS'envirofoneuk'
p898
aS'SpindleMagazine'
p899
aS'LAbathroomsUK'
p900
aS'CarbuyerUK'
p901
aS'OandG'
p902
aS'BluewaveInfo'
p903
aS'UUniqueLondon'
p904
aS'IndianTadkaLtd'
p905
aS'KETTLEChipsUK'
p906
atp907
Rp908
(dp909
g31
(iBeautifulSoup
SoupStrainer
p910
(dp911
g34
Nsg35
g231
sg37
(dp912
g233
g234
ssbsbsg35
S'jacja'
p913
sba(iscraper
User
p914
(dp915
g3
(lp916
F0.0
aF0.0
aI20
asg5
g6
(g7
g8
(lp917
S'makersemporium'
p918
aS'ZOO'
p919
aS'CarolineCreba'
p920
aS'ListersSmart'
p921
aS'Indo_Style_'
p922
aS'Mumsnetbookclub'
p923
aS'BerrysWindsor'
p924
aS'TargetOvarian'
p925
aS'Carpetright'
p926
aS'SunBelievable'
p927
aS'Portmeirion'
p928
aS'NickJrUK'
p929
aS'NuBandSports'
p930
aS'Garden__Benches'
p931
aS'tetley_teafolk'
p932
aS'OSVMotoringNews'
p933
aS'BestformUK'
p934
aS'confexltd'
p935
atp936
Rp937
(dp938
g31
(iBeautifulSoup
SoupStrainer
p939
(dp940
g34
Nsg35
g231
sg37
(dp941
g233
g234
ssbsbsg35
S'NaomiSFB'
p942
sba(iscraper
User
p943
(dp944
g3
(lp945
F0.0
aF0.0
aI19
asg5
g6
(g7
g8
(lp946
S'Totally_Funky'
p947
aS'CrownTilesLtd'
p948
aS'BESTFITMagazine'
p949
aS'ElderburnLodges'
p950
aS'TeamGB'
p951
aS'OrtisDeley'
p952
aS'Sennheiser_UK'
p953
aS'TalkBusinessMag'
p954
aS'VidaVidaBags'
p955
aS'CharmsUK'
p956
aS'CrabtreeUK'
p957
aS'SteensHoney'
p958
aS'JewelsAndAll'
p959
aS'RefurbiPhones'
p960
aS'brentcross'
p961
aS'Jewellery4'
p962
aS'CherryTreeFarm_'
p963
aS'BountifulPrizes'
p964
atp965
Rp966
(dp967
g31
(iBeautifulSoup
SoupStrainer
p968
(dp969
g34
Nsg35
g231
sg37
(dp970
g233
g234
ssbsbsg35
S'NineLondon'
p971
sba(iscraper
User
p972
(dp973
g3
(lp974
F0.0
aF0.0
aI18
asg5
g6
(g7
g8
(lp975
S'FollowGousto'
p976
aS'FOMcosmetics'
p977
aS'camillelingerie'
p978
aS'Shiseido_Canada'
p979
aS'Oliveit_UK'
p980
aS'VidaVidaBags'
p981
aS'CaketoppersLtd'
p982
aS'MoviePreviewNet'
p983
aS'World_Ch'
p984
aS'pidyuk'
p985
aS'BountifulPrizes'
p986
aS'paperdollsuk'
p987
aS'blackcircles'
p988
aS'ProteinWorld'
p989
aS'lsa_int'
p990
aS'CophallParking'
p991
aS'LeCoindeMel'
p992
aS'WhosOn'
p993
atp994
Rp995
(dp996
g31
(iBeautifulSoup
SoupStrainer
p997
(dp998
g34
Nsg35
g231
sg37
(dp999
g233
g234
ssbsbsg35
S'clareyfairy2506'
p1000
sba(iscraper
User
p1001
(dp1002
g3
(lp1003
F0.0
aF0.0
aI19
asg5
g6
(g7
g8
(lp1004
S'TravelodgePR'
p1005
aS'MsportinPubs'
p1006
aS'NEO_Magazine'
p1007
aS'LDNcard'
p1008
aS'ABTA_Magazine'
p1009
aS'SussexPages'
p1010
aS'Potter_Memories'
p1011
aS'AdolescentLifes'
p1012
aS'AntlerUK'
p1013
aS'travelistajess'
p1014
aS'performbetteruk'
p1015
aS'chelleb09'
p1016
aS'BalconesWhisky'
p1017
aS'MasterOfMalt'
p1018
aS'ILoveCornwallUK'
p1019
aS'rednoseday'
p1020
aS'QVSkincare_UK'
p1021
aS'BionsenBeauty'
p1022
atp1023
Rp1024
(dp1025
g31
(iBeautifulSoup
SoupStrainer
p1026
(dp1027
g34
Nsg35
g231
sg37
(dp1028
g233
g234
ssbsbsg35
S'mardylady'
p1029
sba(iscraper
User
p1030
(dp1031
g3
(lp1032
F0.0
aF0.0
aI20
asg5
g6
(g7
g8
(lp1033
S'JHartJewellers'
p1034
aS'BrandJobs'
p1035
aS'doddsfarms'
p1036
aS'loandsons'
p1037
aS'StyleHaul'
p1038
aS'EthologieLondon'
p1039
aS'PinkMag_'
p1040
aS'RotherwoodRec'
p1041
aS'DHorizons'
p1042
aS'peacocks'
p1043
aS'VodkaGhost'
p1044
aS'BoojaBooja'
p1045
aS'AnnieHaak'
p1046
aS'TheExchangeSW15'
p1047
aS'airospring'
p1048
aS'cosy_cosy'
p1049
aS'Floral_Scents'
p1050
aS'The_Gatemaker'
p1051
atp1052
Rp1053
(dp1054
g31
(iBeautifulSoup
SoupStrainer
p1055
(dp1056
g34
Nsg35
g231
sg37
(dp1057
g233
g234
ssbsbsg35
S'laurenjean23'
p1058
sba(iscraper
User
p1059
(dp1060
g3
(lp1061
F0.0
aF0.0
aI19
asg5
g6
(g7
g8
(lp1062
S'KikkomanUK'
p1063
aS'grabthisbook'
p1064
aS'CrabtreeUK'
p1065
aS'Lighting_R_us'
p1066
aS'Comte_Cheese'
p1067
aS'KiranParry1'
p1068
aS'UKcentralheat'
p1069
aS'Pot_Noodle'
p1070
aS'CloserOnline'
p1071
aS'beautybay'
p1072
aS'easyuk'
p1073
aS'buddabag'
p1074
aS'MagnumUK'
p1075
aS'DevineNails1'
p1076
aS'Kidscardealer'
p1077
aS'ScreenRelish'
p1078
aS'ShoeLicks'
p1079
aS'TheThumbsUp'
p1080
atp1081
Rp1082
(dp1083
g31
(iBeautifulSoup
SoupStrainer
p1084
(dp1085
g34
Nsg35
g231
sg37
(dp1086
g233
g234
ssbsbsg35
S'judy2357'
p1087
sba(iscraper
User
p1088
(dp1089
g3
(lp1090
F0.0
aF0.0
aI19
asg5
g6
(g7
g8
(lp1091
S'CalebWilde'
p1092
aS'ukcarers'
p1093
aS'trevburnip'
p1094
aS'benrileysmith'
p1095
aS'Jon_Proctor92'
p1096
aS'debbiedaywalker'
p1097
aS'ftbusinessforum'
p1098
aS'TeleWonderWomen'
p1099
aS'TommySheppard'
p1100
aS'VoteHollandSF'
p1101
aS'MalkiEightO'
p1102
aS'libertinejay'
p1103
aS'dbbaye'
p1104
aS'MyMP2015'
p1105
aS'ConnectionsScot'
p1106
aS'Femme1Bella'
p1107
aS'dundeelibraries'
p1108
aS'AnimalAid'
p1109
atp1110
Rp1111
(dp1112
g31
(iBeautifulSoup
SoupStrainer
p1113
(dp1114
g34
Nsg35
g231
sg37
(dp1115
g233
g234
ssbsbsg35
S'robmcd85'
p1116
sba(iscraper
User
p1117
(dp1118
g3
(lp1119
F0.0
aF0.0
aI20
asg5
g6
(g7
g8
(lp1120
S'ao'
p1121
aS'tommcrae'
p1122
aS'JohnWickMovie'
p1123
aS'ChrissySteed'
p1124
aS'Stephenwebb71'
p1125
aS'JimiHendrix'
p1126
aS'ledzeppelin'
p1127
aS'DavidBowieReal'
p1128
aS'TheAlexJames'
p1129
aS'ashofficial'
p1130
aS'TimWheeler1977'
p1131
aS'GazCoombes'
p1132
aS'InvigorMCR'
p1133
aS'WalkingTheNile'
p1134
aS'skyhd'
p1135
aS'sky1'
p1136
aS'sianjohns'
p1137
aS'kevboyle7'
p1138
atp1139
Rp1140
(dp1141
g31
(iBeautifulSoup
SoupStrainer
p1142
(dp1143
g34
Nsg35
g231
sg37
(dp1144
g233
g234
ssbsbsg35
S'jayde1983'
p1145
sba(iscraper
User
p1146
(dp1147
g3
(lp1148
F0.0
aF0.0
aI19
asg5
g6
(g7
g8
(lp1149
S'fitzpatrickref'
p1150
aS'DavidLearmount'
p1151
aS'BakerofBenfleet'
p1152
aS'LuwandaJenkins'
p1153
aS'TheOnionMaid'
p1154
aS'SBarlow_ROB'
p1155
aS'adseanor'
p1156
aS'grantimahara'
p1157
aS'xtaldave'
p1158
aS's_hunt_author'
p1159
aS'canuckuk'
p1160
aS'MsCupcakeUK'
p1161
aS'TheTweetOfGod'
p1162
aS'michaelsky'
p1163
aS'katbrown82'
p1164
aS'scalzi'
p1165
aS'RikerGoogling'
p1166
aS'windowpane_moon'
p1167
atp1168
Rp1169
(dp1170
g31
(iBeautifulSoup
SoupStrainer
p1171
(dp1172
g34
Nsg35
g231
sg37
(dp1173
g233
g234
ssbsbsg35
S'AdamaSelene'
p1174
sba(iscraper
User
p1175
(dp1176
g3
(lp1177
F0.0
aF0.0
aI19
asg5
g6
(g7
g8
(lp1178
S'Grand_designz'
p1179
aS'potpiegirl'
p1180
aS'CharterhouseAq'
p1181
aS'daraobriain'
p1182
aS'Glinner'
p1183
aS'RachaelvsWorld'
p1184
aS'RufusHound'
p1185
aS'ThePirateProxy'
p1186
aS'Webbo_init'
p1187
aS'ukhardcore'
p1188
aS'ao'
p1189
aS'S3RL_DJ'
p1190
aS'xboxuk'
p1191
aS'marilynmanson'
p1192
aS'IGNUK'
p1193
aS'indiecabal'
p1194
aS'lifehacker'
p1195
aS'laravelphp'
p1196
atp1197
Rp1198
(dp1199
g31
(iBeautifulSoup
SoupStrainer
p1200
(dp1201
g34
Nsg35
g231
sg37
(dp1202
g233
g234
ssbsbsg35
S'bdwicks'
p1203
sba(iscraper
User
p1204
(dp1205
g3
(lp1206
F0.0
aF0.0
aI20
asg5
g6
(g7
g8
(lp1207
S'roasted_media'
p1208
aS'sarahirschnyc'
p1209
aS'elenahuerga'
p1210
aS'maxmedi'
p1211
aS'celebr8_twc'
p1212
aS'desiraymelendez'
p1213
aS'Miss_Colleen'
p1214
aS'justadreamCH'
p1215
aS'Leanne2100'
p1216
aS'SidekickWain'
p1217
aS'CuizineDurban'
p1218
aS'JennyProcter'
p1219
aS'DJBellaScratch'
p1220
aS'ExploreDuJour'
p1221
aS'dhtucker'
p1222
aS'Jeff_Shear'
p1223
aS'Steph_Mcr'
p1224
aS'WeePiggiesDebbi'
p1225
atp1226
Rp1227
(dp1228
g31
(iBeautifulSoup
SoupStrainer
p1229
(dp1230
g34
Nsg35
g231
sg37
(dp1231
g233
g234
ssbsbsg35
S'Hootsuite_Help'
p1232
sba(iscraper
User
p1233
(dp1234
g3
(lp1235
F0.0
aF0.0
aI16
asg5
g6
(g7
g8
(lp1236
S'ao'
p1237
aS'TimCoronel'
p1238
aS'CSainz_oficial'
p1239
aS'carlosainz'
p1240
aS'Max33Verstappen'
p1241
aS'FelipeNasr'
p1242
aS'DarnellFurlong'
p1243
aS'simonmhill'
p1244
aS'JakeHillDriver'
p1245
aS'TheRealNimoy'
p1246
aS'AviationJobsMe'
p1247
aS'lauraseregely'
p1248
aS'F1Headline'
p1249
aS'F1'
p1250
aS'BoeingAirplanes'
p1251
aS'GiGiHadid'
p1252
aS'AviationSafety'
p1253
aS'AviationWeek'
p1254
atp1255
Rp1256
(dp1257
g31
(iBeautifulSoup
SoupStrainer
p1258
(dp1259
g34
Nsg35
g231
sg37
(dp1260
g233
g234
ssbsbsg35
S'Lifes_A_Birch'
p1261
sba(iscraper
User
p1262
(dp1263
g3
(lp1264
F0.0
aF0.0
aF0.0
asg5
g6
(g7
g8
(lp1265
tp1266
Rp1267
(dp1268
g31
(iBeautifulSoup
SoupStrainer
p1269
(dp1270
g34
Nsg35
g231
sg37
(dp1271
g233
g234
ssbsbsg35
S'joannaperry'
p1272
sba(iscraper
User
p1273
(dp1274
g3
(lp1275
F0.0
aF0.0
aI19
asg5
g6
(g7
g8
(lp1276
S'davidduchovny'
p1277
aS'gigsandtours'
p1278
aS'thepooluk'
p1279
aS'mrsmiawallace11'
p1280
aS'RealHughJackman'
p1281
aS'juancow'
p1282
aS'michaelsheen'
p1283
aS'sorted247'
p1284
aS'benjium'
p1285
aS'BenjiTalent'
p1286
aS'lastheroesblog'
p1287
aS'MirandaArnold'
p1288
aS'Jam_56'
p1289
aS'hisdookness'
p1290
aS'snoopzj'
p1291
aS'emmajgleed'
p1292
aS'Afrojules'
p1293
aS'Rutster'
p1294
atp1295
Rp1296
(dp1297
g31
(iBeautifulSoup
SoupStrainer
p1298
(dp1299
g34
Nsg35
g231
sg37
(dp1300
g233
g234
ssbsbsg35
S'LeanneMacco'
p1301
sba(iscraper
User
p1302
(dp1303
g3
(lp1304
F0.0
aF0.0
aI19
asg5
g6
(g7
g8
(lp1305
S'WillMcHoebag'
p1306
aS'KatiexMcGlynn'
p1307
aS'TWR_Local'
p1308
aS'YoungMindsCEO'
p1309
aS'blackmilkcereal'
p1310
aS'chrisslaterMEN'
p1311
aS'Uber'
p1312
aS'Argos_Online'
p1313
aS'SoundbaseMCR'
p1314
aS'JDonOfficial'
p1315
aS'UoMStaffNet'
p1316
aS'uom_benefits'
p1317
aS'JackPShepherd88'
p1318
aS'_GreatHR'
p1319
aS'TheCooperative'
p1320
aS'juliehes'
p1321
aS'bdaily'
p1322
aS'TurquoiseUK1'
p1323
atp1324
Rp1325
(dp1326
g31
(iBeautifulSoup
SoupStrainer
p1327
(dp1328
g34
Nsg35
g231
sg37
(dp1329
g233
g234
ssbsbsg35
S'MedEquip4Kids'
p1330
sba(iscraper
User
p1331
(dp1332
g3
(lp1333
F0.0
aF0.0
aI20
asg5
g6
(g7
g8
(lp1334
S'EnviroLewisham'
p1335
aS'prop_network'
p1336
aS'JustLandlords'
p1337
aS'HitherGreenLee'
p1338
aS'shawpres'
p1339
aS'SETimberDamp'
p1340
aS'LandlordsHelper'
p1341
aS'MoneySavingExp'
p1342
aS'UKPropertyTrade'
p1343
aS'InspireHomeAuto'
p1344
aS'MartinSLewis'
p1345
aS'TBBChallenge'
p1346
aS'bbcapprentice'
p1347
aS'BBSuccess'
p1348
aS'TBBCoach411'
p1349
aS'WL_Creative'
p1350
aS'shauntfitness'
p1351
aS'teambeachbody'
p1352
atp1353
Rp1354
(dp1355
g31
(iBeautifulSoup
SoupStrainer
p1356
(dp1357
g34
Nsg35
g231
sg37
(dp1358
g233
g234
ssbsbsg35
S'HannaHunter'
p1359
sba(iscraper
User
p1360
(dp1361
g3
(lp1362
F0.0
aF0.0
aI19
asg5
g6
(g7
g8
(lp1363
S'TeamMindMatter'
p1364
aS'ashleighmoney'
p1365
aS'ao'
p1366
aS'MrEddieHuang'
p1367
aS'wandering_will'
p1368
aS'Playbox_hd'
p1369
aS'yorkgritter'
p1370
aS'TeamStrangeF'
p1371
aS'EDBPro'
p1372
aS'alliancerally'
p1373
aS'TmSlightlyLost'
p1374
aS'gobiyond'
p1375
aS'robdickenson198'
p1376
aS'FUKPnews'
p1377
aS'almurray'
p1378
aS'ProblemsInYork'
p1379
aS'DealsofYork'
p1380
aS'scottydogdart'
p1381
atp1382
Rp1383
(dp1384
g31
(iBeautifulSoup
SoupStrainer
p1385
(dp1386
g34
Nsg35
g231
sg37
(dp1387
g233
g234
ssbsbsg35
S'filipino_chino'
p1388
sba(iscraper
User
p1389
(dp1390
g3
(lp1391
F0.0
aF0.0
aI19
asg5
g6
(g7
g8
(lp1392
S'CashSlickFittie'
p1393
aS'HelenaBC_'
p1394
aS'Melrose_Morgan'
p1395
aS'YogaRootsLondon'
p1396
aS'hbros'
p1397
aS'TayeDiggs'
p1398
aS'ao'
p1399
aS'yossierd'
p1400
aS'temesed'
p1401
aS'standardnews'
p1402
aS'chicocowater'
p1403
aS'WeledaUK'
p1404
aS'GreenPeopleUK'
p1405
aS'ThisisDavina'
p1406
aS'Schofe'
p1407
aS'JessipesRecipes'
p1408
aS'jessnutrition'
p1409
aS'beyond_bread'
p1410
atp1411
Rp1412
(dp1413
g31
(iBeautifulSoup
SoupStrainer
p1414
(dp1415
g34
Nsg35
g231
sg37
(dp1416
g233
g234
ssbsbsg35
S'PlenishCleanse'
p1417
sba(iscraper
User
p1418
(dp1419
g3
(lp1420
F0.05555555555555555
aF0.0
aI18
asg5
g6
(g7
g8
(lp1421
S'RobinBr44673068'
p1422
aS'pshlufc'
p1423
aS'StephenjmasonMe'
p1424
aS'kevhancock'
p1425
aS'deakko7'
p1426
aS'sfairika'
p1427
aS'MarkLufc77'
p1428
aS'TakingTheLeeds'
p1429
aS'lufc233'
p1430
aS'AStanners7'
p1431
aS'mrpaulme'
p1432
aS'davewarner_dave'
p1433
aS'RippyLUFC'
p1434
aS'Fender_1957'
p1435
aS'NycLufc'
p1436
aS'bowk62'
p1437
aS'thepeterobbo'
p1438
aS'leedsuntednews'
p1439
atp1440
Rp1441
(dp1442
g31
(iBeautifulSoup
SoupStrainer
p1443
(dp1444
g34
Nsg35
g231
sg37
(dp1445
g233
g234
ssbsbsg35
S'DebsHLUFC'
p1446
sba(iscraper
User
p1447
(dp1448
g3
(lp1449
F0.0
aF0.0
aI19
asg5
g6
(g7
g8
(lp1450
S'johnrobb77'
p1451
aS'Henry_Westons'
p1452
aS'IFYorkshire'
p1453
aS'nickmachin'
p1454
aS'ao'
p1455
aS'wetherspoonuk'
p1456
aS'HAPPYMEM0R1ES'
p1457
aS'atlasobscura'
p1458
aS'Fernando_Rees'
p1459
aS'MrChrisAshby'
p1460
aS'F1Racing_mag'
p1461
aS'TheFunnyFml'
p1462
aS'FalkenTire'
p1463
aS'BestRecipesUK'
p1464
aS'BBC_TopGear'
p1465
aS'RitaGamer'
p1466
aS'BBCFood'
p1467
aS'RetroMotorCo'
p1468
atp1469
Rp1470
(dp1471
g31
(iBeautifulSoup
SoupStrainer
p1472
(dp1473
g34
Nsg35
g231
sg37
(dp1474
g233
g234
ssbsbsg35
S'stusatirical'
p1475
sba(iscraper
User
p1476
(dp1477
g3
(lp1478
F0.0
aF0.0
aI19
asg5
g6
(g7
g8
(lp1479
S'AmpikaPickston1'
p1480
aS'laurensimon835'
p1481
aS'dawnward4'
p1482
aS'TanyaBardo7'
p1483
aS'eventim_uk'
p1484
aS'Winifred_Holtby'
p1485
aS'Franparman'
p1486
aS'MissGeorgiakx'
p1487
aS'CloserOnline'
p1488
aS'Yourbodygoal'
p1489
aS'HealthyPiglet'
p1490
aS'CrohnsColitisUK'
p1491
aS'MGS__PR'
p1492
aS'UnexplainedPix'
p1493
aS'leegogglebox'
p1494
aS'sockshopuk'
p1495
aS'LindtUK'
p1496
aS'BestMagDaily'
p1497
atp1498
Rp1499
(dp1500
g31
(iBeautifulSoup
SoupStrainer
p1501
(dp1502
g34
Nsg35
g231
sg37
(dp1503
g233
g234
ssbsbsg35
S'paulak1976'
p1504
sba(iscraper
User
p1505
(dp1506
g3
(lp1507
F0.0
aF0.0
aI18
asg5
g6
(g7
g8
(lp1508
S'templecycles'
p1509
aS'LCCLondon'
p1510
aS'benstopher'
p1511
aS'StudioSpilsbury'
p1512
aS'_Enanem_'
p1513
aS'3BrosBurgers'
p1514
aS'djchristofu'
p1515
aS'GrowEatGather'
p1516
aS'Hole_and_Corner'
p1517
aS'theQuietus'
p1518
aS'mfhbrown'
p1519
aS'visualolly'
p1520
aS'PTdavelewis'
p1521
aS'salihughes'
p1522
aS'FineryLondon'
p1523
aS'atomicsmash'
p1524
aS'konichiwa_pr'
p1525
aS'dan_hayman'
p1526
atp1527
Rp1528
(dp1529
g31
(iBeautifulSoup
SoupStrainer
p1530
(dp1531
g34
Nsg35
g231
sg37
(dp1532
g233
g234
ssbsbsg35
S'caseypurkiss'
p1533
sba(iscraper
User
p1534
(dp1535
g3
(lp1536
F0.0
aF0.0
aI19
asg5
g6
(g7
g8
(lp1537
S'SmoothSkinIPL'
p1538
aS'indigomemoirs'
p1539
aS'ObeseBritain'
p1540
aS'CarLoanHero'
p1541
aS'bathstore'
p1542
aS'rowsehoney'
p1543
aS'thermonet_ufh'
p1544
aS'SylvanianUK'
p1545
aS'SamiBrown92'
p1546
aS'PWAbroad'
p1547
aS'MaxWilliamsUK'
p1548
aS'lorealprofuk'
p1549
aS'Fiskars_HQ'
p1550
aS'OnlinePharmUK'
p1551
aS'UrbanOutfitters'
p1552
aS'SagaUK'
p1553
aS'REDDolphins'
p1554
aS'Wild_Swans'
p1555
atp1556
Rp1557
(dp1558
g31
(iBeautifulSoup
SoupStrainer
p1559
(dp1560
g34
Nsg35
g231
sg37
(dp1561
g233
g234
ssbsbsg35
S'Saspidistra'
p1562
sba(iscraper
User
p1563
(dp1564
g3
(lp1565
F0.0
aF0.0
aI19
asg5
g6
(g7
g8
(lp1566
S'zeppy_vintage'
p1567
aS'MaVilleApp'
p1568
aS'search_magician'
p1569
aS'Battleofh2012'
p1570
aS'1066battleabbey'
p1571
aS'EsteeLauder'
p1572
aS'Clinique'
p1573
aS'LancomeUSA'
p1574
aS'revlon'
p1575
aS'LOrealParisUSA'
p1576
aS'Maybelline'
p1577
aS'rimmellondonuk'
p1578
aS'MaxFactorUK'
p1579
aS'LOrealParisUK'
p1580
aS'BaBylissUK'
p1581
aS'RemingtonUK'
p1582
aS'RussellHobbsUK'
p1583
aS'RobertDyas'
p1584
atp1585
Rp1586
(dp1587
g31
(iBeautifulSoup
SoupStrainer
p1588
(dp1589
g34
Nsg35
g231
sg37
(dp1590
g233
g234
ssbsbsg35
S'itmeanstruth'
p1591
sba(iscraper
User
p1592
(dp1593
g3
(lp1594
F0.0
aF0.0
aI16
asg5
g6
(g7
g8
(lp1595
S'Everton'
p1596
aS'thenutribullet'
p1597
aS'BeverlySeeley'
p1598
aS'medesignuk'
p1599
aS'LINDORUK'
p1600
aS'BekoUK'
p1601
aS'ao'
p1602
aS'uniqueformby'
p1603
aS'leftbankformby'
p1604
aS'CheekyParties'
p1605
aS'LittleItaly336'
p1606
aS'KTHopkins'
p1607
aS'Jorutherford'
p1608
aS'SandwichStop14'
p1609
aS'PerezHilton'
p1610
aS'JackBoxCrew'
p1611
aS'misskayls'
p1612
aS'marinebrasserie'
p1613
atp1614
Rp1615
(dp1616
g31
(iBeautifulSoup
SoupStrainer
p1617
(dp1618
g34
Nsg35
g231
sg37
(dp1619
g233
g234
ssbsbsg35
S'kackymac'
p1620
sba(iscraper
User
p1621
(dp1622
g3
(lp1623
F0.0
aF0.0
aI17
asg5
g6
(g7
g8
(lp1624
S'OswestryChron'
p1625
aS'StarOswestry'
p1626
aS'RussellHobbsUK'
p1627
aS'edsheeran'
p1628
aS'Parklifefest'
p1629
aS'OfficialWolves'
p1630
aS'JordHarrold'
p1631
aS'BrittOfficials'
p1632
aS'JHenderson'
p1633
aS'DanieJPx'
p1634
aS'StevePanayi'
p1635
aS'Official_NFFC'
p1636
aS'Simply_Spurs'
p1637
aS'Leetomlin10'
p1638
aS'chrismyatt_'
p1639
aS'DaleHaworth'
p1640
aS'EJMozza'
p1641
aS'maxrushden'
p1642
atp1643
Rp1644
(dp1645
g31
(iBeautifulSoup
SoupStrainer
p1646
(dp1647
g34
Nsg35
g231
sg37
(dp1648
g233
g234
ssbsbsg35
S'feazus'
p1649
sba(iscraper
User
p1650
(dp1651
g3
(lp1652
F0.0
aF0.0
aI19
asg5
g6
(g7
g8
(lp1653
S'feelaliveuk'
p1654
aS'BarryMCosmetics'
p1655
aS'LidlUK'
p1656
aS'hmgdesigns'
p1657
aS'BHS_UK'
p1658
aS'FragranceDirect'
p1659
aS'ThePerfumeShop'
p1660
aS'FragranceShopUK'
p1661
aS'Poundland'
p1662
aS'LoveWilko'
p1663
aS'DunelmUK'
p1664
aS'LOrealGradJobs'
p1665
aS'RussellHobbsUK'
p1666
aS'SoapandGlory'
p1667
aS'TheBodyShopUK'
p1668
aS'superdrug'
p1669
aS'nextofficial'
p1670
aS'verynetwork'
p1671
atp1672
Rp1673
(dp1674
g31
(iBeautifulSoup
SoupStrainer
p1675
(dp1676
g34
Nsg35
g231
sg37
(dp1677
g233
g234
ssbsbsg35
S'rie136'
p1678
sba(iscraper
User
p1679
(dp1680
g3
(lp1681
F0.0
aF0.0
aF0.0
asg5
g6
(g7
g8
(lp1682
S'HavodaParty'
p1683
aS'acrionline'
p1684
aS'knesset99'
p1685
aS'hamishmar'
p1686
aS'SparklingBingo'
p1687
aS'gossipbingo'
p1688
aS'BingoCodes'
p1689
aS'MoonBingo'
p1690
aS'RobinHoodBingo'
p1691
aS'Butterfly_Bingo'
p1692
aS'Littlewoods_Toy'
p1693
aS'tombolabingo'
p1694
aS'RussellHobbsUK'
p1695
aS'prizebingo'
p1696
aS'bingohouseuk'
p1697
aS'bingoblog'
p1698
aS'BestBingoOffers'
p1699
aS'loquaxbingo'
p1700
atp1701
Rp1702
(dp1703
g31
(iBeautifulSoup
SoupStrainer
p1704
(dp1705
g34
Nsg35
g231
sg37
(dp1706
g233
g234
ssbsbsg35
S'rinateliyahu'
p1707
sba(iscraper
User
p1708
(dp1709
g3
(lp1710
F0.058823529411764705
aF0.0
aI17
asg5
g6
(g7
g8
(lp1711
S'RussellHobbsUK'
p1712
aS'Patrick_Bamford'
p1713
aS'TheLadBible'
p1714
aS'SkySportsCL'
p1715
aS'OptaJoe'
p1716
aS'90sfootball'
p1717
aS'hazardeden10'
p1718
aS'RobWaggott'
p1719
aS'Ibra_official'
p1720
aS'dannykellywords'
p1721
aS'FootballManager'
p1722
aS'Nickfros'
p1723
aS'Vikings'
p1724
aS'Eagles'
p1725
aS'Cleatscleavage'
p1726
aS'BakerKellyBTS'
p1727
aS'DCComics'
p1728
aS'm4tt_williams'
p1729
atp1730
Rp1731
(dp1732
g31
(iBeautifulSoup
SoupStrainer
p1733
(dp1734
g34
Nsg35
g231
sg37
(dp1735
g233
g234
ssbsbsg35
S'Jord_Safehands'
p1736
sba(iscraper
User
p1737
(dp1738
g3
(lp1739
F0.0
aF0.0
aI19
asg5
g6
(g7
g8
(lp1740
S'RussellHobbsUK'
p1741
aS'evolvetelecom'
p1742
aS'andy23471'
p1743
aS'dollyjoyner'
p1744
aS'scentperfumes'
p1745
aS'cottonandgems'
p1746
aS'boxuponatime'
p1747
aS'ClintonsTweet'
p1748
aS'glitterbugspark'
p1749
aS'LightwaterV'
p1750
aS'altontowers'
p1751
aS'ChurchillTheDog'
p1752
aS'mindfuleveryday'
p1753
aS'LushWeCare'
p1754
aS'EMTrains'
p1755
aS'OfficialMarkO'
p1756
aS'sweet_tree_co'
p1757
aS'premestateswine'
p1758
atp1759
Rp1760
(dp1761
g31
(iBeautifulSoup
SoupStrainer
p1762
(dp1763
g34
Nsg35
g231
sg37
(dp1764
g233
g234
ssbsbsg35
S'samlockwoodxxx'
p1765
sba(iscraper
User
p1766
(dp1767
g3
(lp1768
F0.0
aF0.0
aI14
asg5
g6
(g7
g8
(lp1769
S'arrivasouthend'
p1770
aS'RussellHobbsUK'
p1771
aS'asda'
p1772
aS'Ginofantastico'
p1773
aS'andrea_mclean'
p1774
aS'russelltovey'
p1775
aS'CherylOfficial'
p1776
aS'TheSunNewspaper'
p1777
aS'Palomafaith'
p1778
aS'Madonna'
p1779
aS'jennyeclair'
p1780
aS'kimbochambers'
p1781
aS'jeremypiven'
p1782
aS'BBCRadio2'
p1783
aS'lemontwittor'
p1784
aS'almurray'
p1785
aS'BBCOne'
p1786
aS'heatworld'
p1787
atp1788
Rp1789
(dp1790
g31
(iBeautifulSoup
SoupStrainer
p1791
(dp1792
g34
Nsg35
g231
sg37
(dp1793
g233
g234
ssbsbsg35
S'sweetmax22'
p1794
sba(iscraper
User
p1795
(dp1796
g3
(lp1797
F0.0
aF0.0
aI17
asg5
g6
(g7
g8
(lp1798
S'Eliquidshop'
p1799
aS'ideal_home_show'
p1800
aS'DunelmDiscounts'
p1801
aS'NinaWmakeup'
p1802
aS'davelackie'
p1803
aS'A_listedPRgirl'
p1804
aS'candismagazine'
p1805
aS'LeoDiCaprio'
p1806
aS'amazon'
p1807
aS'Groupon'
p1808
aS'LivingSocial'
p1809
aS'LivingSocialUK'
p1810
aS'Groupon_UK'
p1811
aS'wearall'
p1812
aS'4Tmedical'
p1813
aS'BusyBeeCandles'
p1814
aS'competitionhunt'
p1815
aS'OnlineUKComps'
p1816
atp1817
Rp1818
(dp1819
g31
(iBeautifulSoup
SoupStrainer
p1820
(dp1821
g34
Nsg35
g231
sg37
(dp1822
g233
g234
ssbsbsg35
S'shipley_sally'
p1823
sba(iscraper
User
p1824
(dp1825
g3
(lp1826
F0.0
aF0.0
aI19
asg5
g6
(g7
g8
(lp1827
S'DualitLtd'
p1828
aS'vanity_forless'
p1829
aS'ArkwrightsTools'
p1830
aS'UKBlogAwards'
p1831
aS'LidlUK'
p1832
aS'Iloveemmsuk'
p1833
aS'LydiaMcKenzieS'
p1834
aS'Gabr1elleCD'
p1835
aS'Brill_British'
p1836
aS'HomeBakingGifts'
p1837
aS'RussellHobbsUK'
p1838
aS'lecreuset'
p1839
aS'LeCreusetUK'
p1840
aS'CraftBlogUK'
p1841
aS'Argos_Online'
p1842
aS'PyrexUKOfficial'
p1843
aS'MasonCash_UK'
p1844
aS'Kilner_UK'
p1845
atp1846
Rp1847
(dp1848
g31
(iBeautifulSoup
SoupStrainer
p1849
(dp1850
g34
Nsg35
g231
sg37
(dp1851
g233
g234
ssbsbsg35
S'MsTaylor_Tala'
p1852
sba(iscraper
User
p1853
(dp1854
g3
(lp1855
F0.0
aF0.0
aI5
asg5
g6
(g7
g8
(lp1856
S'tomandclaire'
p1857
aS'LilianGreenwood'
p1858
aS'beatsbydreUK'
p1859
aS'EDINBURGHROOFER'
p1860
aS'TheForestForum'
p1861
aS'OptoRank'
p1862
aS'EDINBUILDERS'
p1863
aS'STORMDAMGECLAIM'
p1864
aS'QUALITYPLUMBERS'
p1865
aS'EpicNotts'
p1866
aS'ACEREPAIR'
p1867
aS'honeycabaret'
p1868
aS'ContactLm75'
p1869
aS'alisha_jphealth'
p1870
aS'Bingo_Buddies'
p1871
aS'FIREDAMAGECLAIM'
p1872
aS'HenryReith'
p1873
aS'EDINBURGHJOINER'
p1874
atp1875
Rp1876
(dp1877
g31
(iBeautifulSoup
SoupStrainer
p1878
(dp1879
g34
Nsg35
g231
sg37
(dp1880
g233
g234
ssbsbsg35
S'Hackett37Sarah'
p1881
sba(iscraper
User
p1882
(dp1883
g3
(lp1884
F0.0
aF0.0
aI18
asg5
g6
(g7
g8
(lp1885
S'SkySportsScout'
p1886
aS'EnglandCYP'
p1887
aS'UberSportsFact'
p1888
aS'ForbesRicky'
p1889
aS'Homebase_uk'
p1890
aS'DHLighting'
p1891
aS'GeorgeForeman'
p1892
aS'holyfield'
p1893
aS'SugarRayLeonard'
p1894
aS'MikeTyson'
p1895
aS'RealCFrampton'
p1896
aS'McGuigans_Gym'
p1897
aS'frankwarren_tv'
p1898
aS'ClonesCyclone'
p1899
aS'LennoxLewis'
p1900
aS'RealJoeCalzaghe'
p1901
aS'jamesdegale1'
p1902
aS'HitmanHatton'
p1903
atp1904
Rp1905
(dp1906
g31
(iBeautifulSoup
SoupStrainer
p1907
(dp1908
g34
Nsg35
g231
sg37
(dp1909
g233
g234
ssbsbsg35
S'JayneHemming'
p1910
sba(iscraper
User
p1911
(dp1912
g3
(lp1913
F0.0
aF0.0
aI16
asg5
g6
(g7
g8
(lp1914
S'fon_61'
p1915
aS'brunofaok'
p1916
aS'khansaad_10'
p1917
aS'edziak_design'
p1918
aS'JimmiReid'
p1919
aS'heydaybooks'
p1920
aS'thechadded'
p1921
aS'lightcapturer'
p1922
aS'SAFSwimShow'
p1923
aS'Tombraider75'
p1924
aS'PlayLSI'
p1925
aS'Harrogatehour'
p1926
aS'JoseMariaGuti77'
p1927
aS'SabyTigger'
p1928
aS'heilamp'
p1929
aS'IreneAMagafan'
p1930
aS'adrianelcan'
p1931
aS'SafeCandleShops'
p1932
atp1933
Rp1934
(dp1935
g31
(iBeautifulSoup
SoupStrainer
p1936
(dp1937
g34
Nsg35
g231
sg37
(dp1938
g233
g234
ssbsbsg35
S'aku_ero'
p1939
sba(iscraper
User
p1940
(dp1941
g3
(lp1942
F0.0
aF0.0
aI18
asg5
g6
(g7
g8
(lp1943
S'cryxatic'
p1944
aS'Aeropostale'
p1945
aS'Mr_Sark'
p1946
aS'SuprMaryFace'
p1947
aS'SeaNanners'
p1948
aS'GassyMexican'
p1949
aS'ScribbleNetty'
p1950
aS'PewDiePieSwag'
p1951
aS'Outerminds'
p1952
aS'RussellHobbsUK'
p1953
aS'HarperCollinsUK'
p1954
aS'littlewoods'
p1955
aS'Waterstones'
p1956
aS'funnyortruth'
p1957
aS'mollyharperauth'
p1958
aS'littlebrown'
p1959
aS'MusicsTexts'
p1960
aS'ohteenquotes'
p1961
atp1962
Rp1963
(dp1964
g31
(iBeautifulSoup
SoupStrainer
p1965
(dp1966
g34
Nsg35
g231
sg37
(dp1967
g233
g234
ssbsbsg35
S'rosalita1313'
p1968
sba(iscraper
User
p1969
(dp1970
g3
(lp1971
F0.0
aF0.0
aI18
asg5
g6
(g7
g8
(lp1972
S'RussellHobbsUK'
p1973
aS'LMarkec50'
p1974
aS'RokiahKhan'
p1975
aS'abigailshephard'
p1976
aS'alexwatsonxox'
p1977
aS'_loisblackwell'
p1978
aS'matwhitehouse'
p1979
aS'feazus'
p1980
aS'elerieleri'
p1981
aS'gibbonsalex_'
p1982
aS'Sam__Wesley'
p1983
aS'chrismyatt_'
p1984
aS'JonnayP'
p1985
aS'KyleJamesHP'
p1986
aS'thewombats'
p1987
aS'HarryMorriss'
p1988
aS'Im_RebeccaKate'
p1989
aS'sterling31'
p1990
atp1991
Rp1992
(dp1993
g31
(iBeautifulSoup
SoupStrainer
p1994
(dp1995
g34
Nsg35
g231
sg37
(dp1996
g233
g234
ssbsbsg35
S'DaleHaworth'
p1997
sba(iscraper
User
p1998
(dp1999
g3
(lp2000
F0.0
aF0.0
aI19
asg5
g6
(g7
g8
(lp2001
S'ASMTechnologies'
p2002
aS'N0TasteLikeHome'
p2003
aS'rawvehicle'
p2004
aS'McCainEmoji'
p2005
aS'tandp_usa'
p2006
aS'Yummy'
p2007
aS'BusinessBob'
p2008
aS'angelrubia'
p2009
aS'intl_sales'
p2010
aS'assuncao_carla'
p2011
aS'VasuKorapati'
p2012
aS'LEECLtd'
p2013
aS'HackettsPipe'
p2014
aS'CronerTrade'
p2015
aS'DriveMedicalUK'
p2016
aS'AmtekPlastics'
p2017
aS'DuraManufacture'
p2018
aS'ProCharterUK'
p2019
atp2020
Rp2021
(dp2022
g31
(iBeautifulSoup
SoupStrainer
p2023
(dp2024
g34
Nsg35
g231
sg37
(dp2025
g233
g234
ssbsbsg35
S'ChamberInt_JB'
p2026
sba(iscraper
User
p2027
(dp2028
g3
(lp2029
F0.0
aF0.0
aI19
asg5
g6
(g7
g8
(lp2030
S'TackEnterprises'
p2031
aS'PHI_AJL'
p2032
aS'amossPHI'
p2033
aS'Hendroma'
p2034
aS'Zeekaindustries'
p2035
aS'adaviesPHI'
p2036
aS'ArlaFoodsUK'
p2037
aS'Simplyexport'
p2038
aS'PJKExport'
p2039
aS'ViamedLtd'
p2040
aS'ghd'
p2041
aS'NECCBrian'
p2042
aS'BeModernFires'
p2043
aS'AiredaleAC'
p2044
aS'HydraPermCoLtd'
p2045
aS'Thorite'
p2046
aS'beaconlamps'
p2047
aS'RichardAlanGrp'
p2048
atp2049
Rp2050
(dp2051
g31
(iBeautifulSoup
SoupStrainer
p2052
(dp2053
g34
Nsg35
g231
sg37
(dp2054
g233
g234
ssbsbsg35
S'ChamberInt_NC'
p2055
sba(iscraper
User
p2056
(dp2057
g3
(lp2058
F0.0
aF0.0
aI18
asg5
g6
(g7
g8
(lp2059
S'ecoplumber'
p2060
aS'BH_Kitchens'
p2061
aS'cuciniere_il'
p2062
aS'DazMoss'
p2063
aS'RoofingChester'
p2064
aS'stfelectrical'
p2065
aS'781Ec'
p2066
aS'extensionsbuilt'
p2067
aS'OptadMM'
p2068
aS'mpelectrics64'
p2069
aS'TPBalhamHill'
p2070
aS'HVACRR'
p2071
aS'DandDHeating'
p2072
aS'shh_handyperson'
p2073
aS'scotiaplumbing'
p2074
aS'plumbgasltd'
p2075
aS'JoeConmeePlumb'
p2076
aS'ProactPM'
p2077
atp2078
Rp2079
(dp2080
g31
(iBeautifulSoup
SoupStrainer
p2081
(dp2082
g34
Nsg35
g231
sg37
(dp2083
g233
g234
ssbsbsg35
S'BuildersBap'
p2084
sba(iscraper
User
p2085
(dp2086
g3
(lp2087
F0.0
aF0.0
aI6
asg5
g6
(g7
g8
(lp2088
S'UNOBTUSE'
p2089
aS'seriouslyyikes'
p2090
aS'HungryHarps'
p2091
aS'paulsartwork'
p2092
aS'SpacioDesign'
p2093
aS'SevenoaksCars'
p2094
aS'countrysidehour'
p2095
aS'XamachCuisine'
p2096
aS'theplastermanco'
p2097
aS'BuddypressPlugs'
p2098
aS'MarcGuberti'
p2099
aS'Best_CMS'
p2100
aS'ToritoEc'
p2101
aS'mariakelley6481'
p2102
aS'RealLuisDeMatos'
p2103
aS'AL3XANDERSTRAUB'
p2104
aS'aarongoodwin82'
p2105
aS'karlsson266'
p2106
atp2107
Rp2108
(dp2109
g31
(iBeautifulSoup
SoupStrainer
p2110
(dp2111
g34
Nsg35
g231
sg37
(dp2112
g233
g234
ssbsbsg35
S'InsonConstructi'
p2113
sba(iscraper
User
p2114
(dp2115
g3
(lp2116
F0.0
aF0.0
aI19
asg5
g6
(g7
g8
(lp2117
S'fiercewrlsstech'
p2118
aS'AdrienneNort'
p2119
aS'JonFreier'
p2120
aS'tefficient'
p2121
aS'medialab'
p2122
aS'techreview'
p2123
aS'EE'
p2124
aS'TWCBreaking'
p2125
aS'weatherchannel'
p2126
aS'AppMeerkat'
p2127
aS'LouGranberry'
p2128
aS'politico'
p2129
aS'chineseprv'
p2130
aS'debrabenson'
p2131
aS'sprintbusiness'
p2132
aS'VZWTamika'
p2133
aS'adamiswriting'
p2134
aS'VZWScott'
p2135
atp2136
Rp2137
(dp2138
g31
(iBeautifulSoup
SoupStrainer
p2139
(dp2140
g34
Nsg35
g231
sg37
(dp2141
g233
g234
ssbsbsg35
S'billho888'
p2142
sba(iscraper
User
p2143
(dp2144
g3
(lp2145
F0.0
aF0.0
aI20
asg5
g6
(g7
g8
(lp2146
S'joshelman'
p2147
aS'divya'
p2148
aS'justbrad23'
p2149
aS'streamwithadot'
p2150
aS'benrbn'
p2151
aS'IPOtweet'
p2152
aS'montalvo_d'
p2153
aS'leolaporte'
p2154
aS'EliLanger'
p2155
aS'AppMeerkat'
p2156
aS'Patriprodu'
p2157
aS'Shiba4NY'
p2158
aS'JaniceHuff4ny'
p2159
aS'alansmurray'
p2160
aS'azandy'
p2161
aS'MichellePhan'
p2162
aS'CNBCtech'
p2163
aS'jessdujour'
p2164
atp2165
Rp2166
(dp2167
g31
(iBeautifulSoup
SoupStrainer
p2168
(dp2169
g34
Nsg35
g231
sg37
(dp2170
g233
g234
ssbsbsg35
S'jonfortt'
p2171
sba(iscraper
User
p2172
(dp2173
g3
(lp2174
F0.05263157894736842
aF0.0
aI19
asg5
g6
(g7
g8
(lp2175
S'JohnLegere'
p2176
aS'BlakeRun'
p2177
aS'trainoutpain'
p2178
aS'cjbirmingham'
p2179
aS'joshdavidrowe'
p2180
aS'SethPolitsch'
p2181
aS'WMMajors'
p2182
aS'3Disciplines'
p2183
aS'DuaneSelner'
p2184
aS'lopezlomong'
p2185
aS'BoulderWave'
p2186
aS'Rosassociati'
p2187
aS'Sksambu'
p2188
aS'RickyPerez77'
p2189
aS'one4onesports'
p2190
aS'MachaFlocka'
p2191
aS'PACE_PDX'
p2192
aS'ZachPanning'
p2193
atp2194
Rp2195
(dp2196
g31
(iBeautifulSoup
SoupStrainer
p2197
(dp2198
g34
Nsg35
g231
sg37
(dp2199
g233
g234
ssbsbsg35
S'djritzenhein'
p2200
sba(iscraper
User
p2201
(dp2202
g3
(lp2203
F0.10526315789473684
aF0.0
aI19
asg5
g6
(g7
g8
(lp2204
S'juanlbarrios'
p2205
aS'NDscience'
p2206
aS'BillBradley3'
p2207
aS'GoTrackTownUSA'
p2208
aS'TatyanaMcFadden'
p2209
aS'MHuds2'
p2210
aS'Scotty_Huddle22'
p2211
aS'ilazer'
p2212
aS'mbkessler'
p2213
aS'Gladwell'
p2214
aS'SteveMartinToGo'
p2215
aS'Calvinn_Hobbes'
p2216
aS'CamLevins'
p2217
aS'milesplit'
p2218
aS'NYTSports'
p2219
aS'annarohrer97'
p2220
aS'BenRosario1'
p2221
aS'MarkDanielsPJ'
p2222
atp2223
Rp2224
(dp2225
g31
(iBeautifulSoup
SoupStrainer
p2226
(dp2227
g34
Nsg35
g231
sg37
(dp2228
g233
g234
ssbsbsg35
S'MollyHuddle'
p2229
sba(iscraper
User
p2230
(dp2231
g3
(lp2232
F0.0
aF0.0
aI20
asg5
g6
(g7
g8
(lp2233
S'JohnBerman'
p2234
aS'maureenpetrosky'
p2235
aS'saeed_ahmed'
p2236
aS'RamCNN'
p2237
aS'FromCarl'
p2238
aS'CNN_Oppmann'
p2239
aS'kellyhobson'
p2240
aS'robyoon'
p2241
aS'brianstelter'
p2242
aS'jimsciutto'
p2243
aS'faithcnn'
p2244
aS'ShimonPro'
p2245
aS'evanperez'
p2246
aS'AnaCabrera'
p2247
aS'donlemon'
p2248
aS'afantz'
p2249
aS'CNNFC'
p2250
aS'MarlenaCNN'
p2251
atp2252
Rp2253
(dp2254
g31
(iBeautifulSoup
SoupStrainer
p2255
(dp2256
g34
Nsg35
g231
sg37
(dp2257
g233
g234
ssbsbsg35
S'cnnbrk'
p2258
sba(iscraper
User
p2259
(dp2260
g3
(lp2261
F0.0
aF0.0
aI19
asg5
g6
(g7
g8
(lp2262
S'Quibb'
p2263
aS'KateSBlanchard'
p2264
aS'Emily_Griffin8'
p2265
aS'MonicaLewinsky'
p2266
aS'Lubin44'
p2267
aS'Lee44'
p2268
aS'WeDelivr'
p2269
aS'JimmyLynnDC'
p2270
aS'ErinAndrews'
p2271
aS'DickieV'
p2272
aS'marchmadness'
p2273
aS'lucyleid'
p2274
aS'360verified'
p2275
aS'kristinanugent'
p2276
aS'amazonsmile'
p2277
aS'AppMeerkat'
p2278
aS'WeberShandwick'
p2279
aS'levitanl'
p2280
atp2281
Rp2282
(dp2283
g31
(iBeautifulSoup
SoupStrainer
p2284
(dp2285
g34
Nsg35
g231
sg37
(dp2286
g233
g234
ssbsbsg35
S'MEOS'
p2287
sba(iscraper
User
p2288
(dp2289
g3
(lp2290
F0.0
aF0.0
aI1
asg5
g6
(g7
g8
(lp2291
S'JohnLegere'
p2292
aS'titanic'
p2293
aS'focusonline'
p2294
aS'beckenbauer'
p2295
aS'SZ'
p2296
aS'DFB_Team'
p2297
aS'Pharrell'
p2298
aS'SPIEGELONLINE'
p2299
aS'MarioGoetze'
p2300
aS'DerSPIEGEL'
p2301
aS'sternde'
p2302
aS'HansSarpei'
p2303
aS'ZDFsport'
p2304
aS'welt'
p2305
atp2306
Rp2307
(dp2308
g31
(iBeautifulSoup
SoupStrainer
p2309
(dp2310
g34
Nsg35
g231
sg37
(dp2311
g233
g234
ssbsbsg35
S'Baltihoettges'
p2312
sba(iscraper
User
p2313
(dp2314
g3
(lp2315
F0.0
aF0.0
aI21
asg5
g6
(g7
g8
(lp2316
S'SophiaBush'
p2317
aS'Learn_Things'
p2318
aS'shiraz'
p2319
aS'CWGym56'
p2320
aS'JohnLegere'
p2321
aS'onetoughnerd'
p2322
aS'EvanMcM'
p2323
aS'AnnaKendrick47'
p2324
aS'DiscoverMag'
p2325
aS'Prof_Malhotra'
p2326
aS'ashleymayer'
p2327
aS'TomPenders'
p2328
aS'normmacdonald'
p2329
aS'KDTrey5'
p2330
aS'MargaretAtwood'
p2331
aS'robdelaney'
p2332
aS'rilaws'
p2333
aS'TheGRAMMYs'
p2334
atp2335
Rp2336
(dp2337
g31
(iBeautifulSoup
SoupStrainer
p2338
(dp2339
g34
Nsg35
g231
sg37
(dp2340
g233
g234
ssbsbsg35
S'dickc'
p2341
sba(iscraper
User
p2342
(dp2343
g3
(lp2344
F0.0
aF0.0
aI20
asg5
g6
(g7
g8
(lp2345
S'ChrisLicht'
p2346
aS'RealJayWilliams'
p2347
aS'BrianGrazer'
p2348
aS'1charityjordan'
p2349
aS'joanchittister'
p2350
aS'JohnLegere'
p2351
aS'carmenejogo'
p2352
aS'cynthiabondruby'
p2353
aS'RichardRohrOFM'
p2354
aS'jasalata'
p2355
aS'colmandomingo'
p2356
aS'common'
p2357
aS'shawnachor'
p2358
aS'AwardsDaily'
p2359
aS'donnabrazile'
p2360
aS'SelmaMovie'
p2361
aS'violadavis'
p2362
aS'AnthonyKShriver'
p2363
atp2364
Rp2365
(dp2366
g31
(iBeautifulSoup
SoupStrainer
p2367
(dp2368
g34
Nsg35
g231
sg37
(dp2369
g233
g234
ssbsbsg35
S'Oprah'
p2370
sba(iscraper
User
p2371
(dp2372
g3
(lp2373
F0.0
aF0.0
aI19
asg5
g6
(g7
g8
(lp2374
S'karliekloss'
p2375
aS'taylorswift13'
p2376
aS'Caradelevingne'
p2377
aS'FaithReeI'
p2378
aS'KimKourtKhloeK'
p2379
aS'TrulyAKhloeKFan'
p2380
aS'MolestMeKardash'
p2381
aS'lovekardashhian'
p2382
aS'steph_shep'
p2383
aS'Women_Of_Christ'
p2384
aS'OfficialALT'
p2385
aS'officialjaden'
p2386
aS'annieleibovitz'
p2387
aS'voguemagazine'
p2388
aS'kardashiankids'
p2389
aS'_xmarissabee'
p2390
aS'KimKanyeKimyeFC'
p2391
aS'MyleezaKardash'
p2392
atp2393
Rp2394
(dp2395
g31
(iBeautifulSoup
SoupStrainer
p2396
(dp2397
g34
Nsg35
g231
sg37
(dp2398
g233
g234
ssbsbsg35
S'KimKardashian'
p2399
sba(iscraper
User
p2400
(dp2401
g3
(lp2402
F0.0
aF0.0
aI20
asg5
g6
(g7
g8
(lp2403
S'doctorow'
p2404
aS'timberners_lee'
p2405
aS'ericfeigenbaum'
p2406
aS'michi83'
p2407
aS'zephoria'
p2408
aS'SG'
p2409
aS'taxreformer'
p2410
aS'Josh_Finestone'
p2411
aS'sidecar22'
p2412
aS'michaelkhoo'
p2413
aS'FakeAjitPai'
p2414
aS'rfishdog'
p2415
aS'danbenavente'
p2416
aS'MollyZang'
p2417
aS'AustenAllred'
p2418
aS'AEI'
p2419
aS'jnsuss'
p2420
aS'mdmcgeary'
p2421
atp2422
Rp2423
(dp2424
g31
(iBeautifulSoup
SoupStrainer
p2425
(dp2426
g34
Nsg35
g231
sg37
(dp2427
g233
g234
ssbsbsg35
S'FakeTomWheeler'
p2428
sba(iscraper
User
p2429
(dp2430
g3
(lp2431
F0.0
aF0.0
aI19
asg5
g6
(g7
g8
(lp2432
S'ElizabethBanks'
p2433
aS'HUBBLE_space'
p2434
aS'NASAVoyager'
p2435
aS'COSMOSonTV'
p2436
aS'cinefamily'
p2437
aS'newbeverly'
p2438
aS'echoparkrecords'
p2439
aS'BCentralLibrary'
p2440
aS'neiltyson'
p2441
aS'thejokersfilms'
p2442
aS'ART_Tapia'
p2443
aS'tavitulle'
p2444
aS'elonmusk'
p2445
aS'QuoteHavens'
p2446
aS'RobZabrecky'
p2447
aS'JohnLegere'
p2448
aS'RockyBalbowler'
p2449
aS'Got_Djent'
p2450
atp2451
Rp2452
(dp2453
g31
(iBeautifulSoup
SoupStrainer
p2454
(dp2455
g34
Nsg35
g231
sg37
(dp2456
g233
g234
ssbsbsg35
S'RyanGosling'
p2457
sba(iscraper
User
p2458
(dp2459
g3
(lp2460
F0.0
aF0.0
aI20
asg5
g6
(g7
g8
(lp2461
S'sdevore'
p2462
aS'TikiBarber'
p2463
aS'_GRFF'
p2464
aS'emanuszak'
p2465
aS'HillaryClinton'
p2466
aS'bennettrun'
p2467
aS'Rain82218789'
p2468
aS'adelle_tracey'
p2469
aS'WilliamClaye'
p2470
aS'Chris_J_Chavez'
p2471
aS'MikeyBrannigan'
p2472
aS'EamonnCoghlan1'
p2473
aS'chellibates'
p2474
aS'timrileyphd'
p2475
aS'CerakeG'
p2476
aS'MilerHawkins'
p2477
aS'rachfran'
p2478
aS'JeanWang8'
p2479
atp2480
Rp2481
(dp2482
g31
(iBeautifulSoup
SoupStrainer
p2483
(dp2484
g34
Nsg35
g231
sg37
(dp2485
g233
g234
ssbsbsg35
S'Lagat1500'
p2486
sba(iscraper
User
p2487
(dp2488
g3
(lp2489
F0.0
aF0.0
aF0.0
asg5
g6
(g7
g8
(lp2490
S'DougWilliamsSNY'
p2491
aS'NBCNightlyNews'
p2492
aS'nytimes'
p2493
aS'theBravest'
p2494
atp2495
Rp2496
(dp2497
g31
(iBeautifulSoup
SoupStrainer
p2498
(dp2499
g34
Nsg35
g231
sg37
(dp2500
g233
g234
ssbsbsg35
S'BWilliams'
p2501
sba(iscraper
User
p2502
(dp2503
g3
(lp2504
F0.0
aF0.0
aI20
asg5
g6
(g7
g8
(lp2505
S'FairFolks'
p2506
aS'TomBevanRCP'
p2507
aS'explorebrooklyn'
p2508
aS'OYEQF'
p2509
aS'jonathanweisman'
p2510
aS'colebunzel'
p2511
aS'intelwire'
p2512
aS'will_mccants'
p2513
aS'Hegghammer'
p2514
aS'lfrayer'
p2515
aS'RichPreston'
p2516
aS'ElBeardsley'
p2517
aS'alaskaHQ'
p2518
aS'malachybrowne'
p2519
aS'reportedly'
p2520
aS'PuzzledSurfer'
p2521
aS'RyanSeacrest'
p2522
aS'SteveBattaglio'
p2523
atp2524
Rp2525
(dp2526
g31
(iBeautifulSoup
SoupStrainer
p2527
(dp2528
g34
Nsg35
g231
sg37
(dp2529
g233
g234
ssbsbsg35
S'andersoncooper'
p2530
sba(iscraper
User
p2531
(dp2532
g3
(lp2533
F0.0
aF0.0
aI19
asg5
g6
(g7
g8
(lp2534
S'ToniReavis'
p2535
aS'Bob_Babbitt'
p2536
aS'Shea_Martinez'
p2537
aS'sallykipyego'
p2538
aS'HistoryInPics'
p2539
aS'taylordutch'
p2540
aS'lmwallace800'
p2541
aS'dlanes800'
p2542
aS'benfblankenship'
p2543
aS'stephCharnigo'
p2544
aS'David_Torrence'
p2545
aS'lashawnmerritt'
p2546
aS'Akrunners'
p2547
aS'TwitfoxApp'
p2548
aS'DrakeRelays'
p2549
aS'ManteoMitchell'
p2550
aS'mesalerno'
p2551
aS'heidi_see'
p2552
atp2553
Rp2554
(dp2555
g31
(iBeautifulSoup
SoupStrainer
p2556
(dp2557
g34
Nsg35
g231
sg37
(dp2558
g233
g234
ssbsbsg35
S'bmartrun'
p2559
sba(iscraper
User
p2560
(dp2561
g3
(lp2562
F0.0
aF0.0
aI17
asg5
g6
(g7
g8
(lp2563
S'YoungMakeda'
p2564
aS'TheDavidJohnson'
p2565
aS'LoveBeeSweet'
p2566
aS'philipr26'
p2567
aS'MattMillen'
p2568
aS'GoDaddy'
p2569
aS'WLCUnivision'
p2570
aS'Telemundo'
p2571
aS'Univision'
p2572
aS'repjohnlewis'
p2573
aS'elua1780'
p2574
aS'misskathy815'
p2575
aS'FortuneMagazine'
p2576
aS'MayorBowser'
p2577
aS'JasonMacHTC'
p2578
aS'csandovaltmo'
p2579
aS'SantayeMusic'
p2580
aS'sidbothra'
p2581
atp2582
Rp2583
(dp2584
g31
(iBeautifulSoup
SoupStrainer
p2585
(dp2586
g34
Nsg35
g231
sg37
(dp2587
g233
g234
ssbsbsg35
S'm_wan4life'
p2588
sba(iscraper
User
p2589
(dp2590
g3
(lp2591
F0.0
aF0.0
aI20
asg5
g6
(g7
g8
(lp2592
S'jimmykimmel'
p2593
aS'mm_square'
p2594
aS'CharityMiles'
p2595
aS'UN'
p2596
aS'sxsw'
p2597
aS'WorldAthleticsC'
p2598
aS'PfaffSC'
p2599
aS'TonyCaseyJCP'
p2600
aS'champagnesprts'
p2601
aS'barnardxc'
p2602
aS'TTFAustin'
p2603
aS'NAZ_Elite'
p2604
aS'bostrackclassic'
p2605
aS'flashg88dwin'
p2606
aS'Picayune_Connie'
p2607
aS'BoysGirlsClubBB'
p2608
aS'WorldofCocaCola'
p2609
aS'CocaColaCo'
p2610
atp2611
Rp2612
(dp2613
g31
(iBeautifulSoup
SoupStrainer
p2614
(dp2615
g34
Nsg35
g231
sg37
(dp2616
g233
g234
ssbsbsg35
S'Leomanzano'
p2617
sba(iscraper
User
p2618
(dp2619
g3
(lp2620
F0.0
aF0.0
aI18
asg5
g6
(g7
g8
(lp2621
S'handmadepretzel'
p2622
aS'onepoint4'
p2623
aS'NickDager'
p2624
aS'patrickvons'
p2625
aS'cinetechgeek'
p2626
aS'jamiegau'
p2627
aS'MarkSelzer'
p2628
aS'patmacdonald'
p2629
aS'astewart1010'
p2630
aS'cecbrown2'
p2631
aS'jbwilke'
p2632
aS'LARichwine'
p2633
aS'TimNLambert'
p2634
aS'fairuse'
p2635
aS'Iain_A_Cook'
p2636
aS'allegroconkicks'
p2637
aS'palemieux'
p2638
aS'bybccda'
p2639
atp2640
Rp2641
(dp2642
g31
(iBeautifulSoup
SoupStrainer
p2643
(dp2644
g34
Nsg35
g231
sg37
(dp2645
g233
g234
ssbsbsg35
S'ShowbizSandbox'
p2646
sba(iscraper
User
p2647
(dp2648
g3
(lp2649
F0.0
aF0.0
aI19
asg5
g6
(g7
g8
(lp2650
S'MentosUS'
p2651
aS'OrvilleIV'
p2652
aS'IWMarkRubin'
p2653
aS'InfinityWard'
p2654
aS'KLM'
p2655
aS'AirFranceUS'
p2656
aS'SportsCentre'
p2657
aS'TSNHockey'
p2658
aS'twittels'
p2659
aS'DavidSpade'
p2660
aS'Jon_Favreau'
p2661
aS'iamrashidajones'
p2662
aS'edhelms'
p2663
aS'ElizabethBanks'
p2664
aS'WSJ'
p2665
aS'cnnbrk'
p2666
aS'TIME'
p2667
aS'HuffingtonPost'
p2668
atp2669
Rp2670
(dp2671
g31
(iBeautifulSoup
SoupStrainer
p2672
(dp2673
g34
Nsg35
g231
sg37
(dp2674
g233
g234
ssbsbsg35
S'arnettwill'
p2675
sba(iscraper
User
p2676
(dp2677
g3
(lp2678
F0.0
aF0.0
aI20
asg5
g6
(g7
g8
(lp2679
S'BeyondDiff'
p2680
aS'WPSProject'
p2681
aS'WJCLibrary'
p2682
aS'2SmallToFail'
p2683
aS'ClintonSchool'
p2684
aS'ClintonGlobal'
p2685
aS'ClintonFdn'
p2686
aS'billclinton'
p2687
aS'ChelseaClinton'
p2688
atp2689
Rp2690
(dp2691
g31
(iBeautifulSoup
SoupStrainer
p2692
(dp2693
g34
Nsg35
g231
sg37
(dp2694
g233
g234
ssbsbsg35
S'HillaryClinton'
p2695
sba(iscraper
User
p2696
(dp2697
g3
(lp2698
F0.0
aF0.0
aI19
asg5
g6
(g7
g8
(lp2699
S'TheRealAnnaCamp'
p2700
aS'AnnaKendrick47'
p2701
aS'StephenAtHome'
p2702
aS'TerryGilliam'
p2703
aS'DameEdnaEverage'
p2704
aS'KelseyGrammer'
p2705
aS'the_d_morris'
p2706
aS'TheSongBirds3'
p2707
aS'MelissaJoanHart'
p2708
aS'iaretweeting'
p2709
aS'RalphGarman'
p2710
aS'MiloVentimiglia'
p2711
aS'jmrLuna'
p2712
aS'Tellmovie2014'
p2713
aS'ElizabethBanks'
p2714
aS'eisingerj'
p2715
aS'bethanymac12'
p2716
aS'jeffreytambor'
p2717
atp2718
Rp2719
(dp2720
g31
(iBeautifulSoup
SoupStrainer
p2721
(dp2722
g34
Nsg35
g231
sg37
(dp2723
g233
g234
ssbsbsg35
S'Real_JMHiggins'
p2724
sba(iscraper
User
p2725
(dp2726
g3
(lp2727
F0.0
aF0.0
aI16
asg5
g6
(g7
g8
(lp2728
S'chideo'
p2729
aS'ciara'
p2730
aS'Amanda_Furrer'
p2731
aS'jcharles25'
p2732
aS'RealSway'
p2733
aS'DJMichaelWatts'
p2734
aS'MikeAndMike'
p2735
aS'Earl_Thomas'
p2736
aS'LangdonAbbey'
p2737
aS'ReggieMillerTNT'
p2738
aS'NBAAllStar'
p2739
aS'Paintboxer'
p2740
aS'boogiecousins'
p2741
aS'judahsmith'
p2742
aS'MoneyLynch'
p2743
aS'thealexreid'
p2744
aS'mosesbread72'
p2745
aS'Seahawks'
p2746
atp2747
Rp2748
(dp2749
g31
(iBeautifulSoup
SoupStrainer
p2750
(dp2751
g34
Nsg35
g231
sg37
(dp2752
g233
g234
ssbsbsg35
S'aldridge_12'
p2753
sba(iscraper
User
p2754
(dp2755
g3
(lp2756
F0.0
aF0.0
aI20
asg5
g6
(g7
g8
(lp2757
S'theblacktux'
p2758
aS'AprilLockhart'
p2759
aS'PageSix'
p2760
aS'ted_bakerUSA'
p2761
aS'candidlynicole'
p2762
aS'MaryKay'
p2763
aS'PaulMitchellUS'
p2764
aS'fekkai'
p2765
aS'InStyleDana'
p2766
aS'M_Lhuillier'
p2767
aS'GlamSquad'
p2768
aS'Balmain'
p2769
aS'extratv'
p2770
aS'montblanc_world'
p2771
aS'prince_ej'
p2772
aS'rachaelxwang'
p2773
aS'KimptoninPGH'
p2774
aS'KensingtonRoyal'
p2775
atp2776
Rp2777
(dp2778
g31
(iBeautifulSoup
SoupStrainer
p2779
(dp2780
g34
Nsg35
g231
sg37
(dp2781
g233
g234
ssbsbsg35
S'StyleList'
p2782
sba(iscraper
User
p2783
(dp2784
g3
(lp2785
F0.0
aF0.0
aI19
asg5
g6
(g7
g8
(lp2786
S'chrishemsworth'
p2787
aS'thegeekypub'
p2788
aS'romancebooknerd'
p2789
aS'mtvmovies'
p2790
aS'JolvieMag'
p2791
aS'LionsgateUK'
p2792
aS'QuarterQuellOrg'
p2793
aS'GalaxyTheatres'
p2794
aS'panemrising'
p2795
aS'Everlark_heart'
p2796
aS'evans_melyndans'
p2797
aS'tfa332001'
p2798
aS'iHeartRadio'
p2799
aS'JenLawFilms'
p2800
aS'WiredUK'
p2801
aS'lordemusic'
p2802
aS'lawrencedayy'
p2803
aS'pikko'
p2804
atp2805
Rp2806
(dp2807
g31
(iBeautifulSoup
SoupStrainer
p2808
(dp2809
g34
Nsg35
g231
sg37
(dp2810
g233
g234
ssbsbsg35
S'HGgirlonfire'
p2811
sba(iscraper
User
p2812
(dp2813
g3
(lp2814
F0.0
aF0.0
aI18
asg5
g6
(g7
g8
(lp2815
S'ggreenwald'
p2816
aS'Lesdoggg'
p2817
aS'mrDaveKrumholtz'
p2818
aS'HitFix'
p2819
aS'Puddinstrip'
p2820
aS'wikileaks'
p2821
aS'Dave_Canseco'
p2822
aS'RealDeanCain'
p2823
aS'KristySwansonXO'
p2824
aS'JessieWare'
p2825
aS'elonmusk'
p2826
aS'erniecline'
p2827
aS'Elizbethperkins'
p2828
aS'plymptoons'
p2829
aS'MatthewModine'
p2830
aS'stevewoz'
p2831
aS'aliamjadrizvi'
p2832
aS'point_grey'
p2833
atp2834
Rp2835
(dp2836
g31
(iBeautifulSoup
SoupStrainer
p2837
(dp2838
g34
Nsg35
g231
sg37
(dp2839
g233
g234
ssbsbsg35
S'Sethrogen'
p2840
sba(iscraper
User
p2841
(dp2842
g3
(lp2843
F0.0
aF0.0
aI20
asg5
g6
(g7
g8
(lp2844
S'guyoseary'
p2845
aS'30for30'
p2846
aS'thefredsavage'
p2847
aS'laettnerbball'
p2848
aS'GurvitzM'
p2849
aS'ShababLibya'
p2850
aS'JarradPaul'
p2851
aS'billclinton'
p2852
aS'steve_schaeffer'
p2853
aS'ekwendell'
p2854
aS'iHeartMiko'
p2855
aS'Variety'
p2856
aS'meatheadrob'
p2857
aS'EWSpivey'
p2858
aS'DarnellMartens'
p2859
aS'arcsv1'
p2860
aS'GBerlanti'
p2861
aS'WeitzRweitz'
p2862
atp2863
Rp2864
(dp2865
g31
(iBeautifulSoup
SoupStrainer
p2866
(dp2867
g34
Nsg35
g231
sg37
(dp2868
g233
g234
ssbsbsg35
S'RobLowe'
p2869
sba(iscraper
User
p2870
(dp2871
g3
(lp2872
F0.0
aF0.0
aI20
asg5
g6
(g7
g8
(lp2873
S'KMcCartyAD7'
p2874
aS'BenAllenCA'
p2875
aS'ProgressWomenUS'
p2876
aS'CraigCheslog'
p2877
aS'SenJanetNguyen'
p2878
aS'ChadMayesCA'
p2879
aS'Baker4Assembly'
p2880
aS'LACoSheriff'
p2881
aS'LASDHQ'
p2882
aS'LACProbation'
p2883
aS'CAFirefighters'
p2884
aS'londonbreed'
p2885
aS'maura_healy'
p2886
aS'ODonnellUpdate'
p2887
aS'ChildDefender'
p2888
aS'IrvineFdn'
p2889
aS'SteveBradford'
p2890
aS'ccbarden'
p2891
atp2892
Rp2893
(dp2894
g31
(iBeautifulSoup
SoupStrainer
p2895
(dp2896
g34
Nsg35
g231
sg37
(dp2897
g233
g234
ssbsbsg35
S'KamalaHarris'
p2898
sba(iscraper
User
p2899
(dp2900
g3
(lp2901
F0.0
aF0.0
aF0.0
asg5
g6
(g7
g8
(lp2902
S'KingJames'
p2903
aS'CHANEL'
p2904
aS'nytimes'
p2905
aS'simonpegg'
p2906
aS'carmeloanthony'
p2907
aS'bbchealth'
p2908
aS'VictoriasSecret'
p2909
aS'rihanna'
p2910
aS'KDTrey5'
p2911
aS'PlayStation'
p2912
aS'RockstarGames'
p2913
aS'voguemagazine'
p2914
aS'planetepics'
p2915
aS'MensHealthMag'
p2916
aS'Ubisoft'
p2917
aS'nasahqphoto'
p2918
aS'MeetAnimals'
p2919
aS'Xbox'
p2920
atp2921
Rp2922
(dp2923
g31
(iBeautifulSoup
SoupStrainer
p2924
(dp2925
g34
Nsg35
S'span'
p2926
sg37
(dp2927
S'class'
p2928
S'u-linkComplex-target'
p2929
ssbsbsg35
S'armanjtehrani'
p2930
sba(iscraper
User
p2931
(dp2932
g3
(lp2933
F0.0
aF0.0
aI17
asg5
g6
(g7
g8
(lp2934
S'Jackpotjoy'
p2935
aS'DogsTrust'
p2936
aS'hsnewsbreak'
p2937
aS'guidedogs'
p2938
aS'ScotRail'
p2939
aS'TravelineScot'
p2940
aS'BBCTravelScot'
p2941
aS'cannykay1'
p2942
aS'dazhop'
p2943
aS'trafficscotland'
p2944
aS'Watches2U'
p2945
aS'marciadorsey'
p2946
aS'jack'
p2947
aS'OurNameIsFun'
p2948
aS'RakutenUK'
p2949
aS'Tom_Morgs'
p2950
aS'ao'
p2951
aS'RussellHobbsUK'
p2952
atp2953
Rp2954
(dp2955
g31
(iBeautifulSoup
SoupStrainer
p2956
(dp2957
g34
Nsg35
g2926
sg37
(dp2958
g2928
g2929
ssbsbsg35
S'joof'
p2959
sba(iscraper
User
p2960
(dp2961
g3
(lp2962
F0.0
aF0.0
aI19
asg5
g6
(g7
g8
(lp2963
tp2964
Rp2965
(dp2966
g31
(iBeautifulSoup
SoupStrainer
p2967
(dp2968
g34
Nsg35
g2926
sg37
(dp2969
g2928
g2929
ssbsbsg35
g2904
sba(iscraper
User
p2970
(dp2971
g3
(lp2972
F0.0
aF0.0
aI20
asg5
g6
(g7
g8
(lp2973
S'ElizabethBanks'
p2974
aS'KendrickPerkins'
p2975
aS'ItsMeTamraD'
p2976
aS'rihanna'
p2977
aS'CarrieKeagan'
p2978
aS'TrainwreckMovie'
p2979
aS'Gibbsyyyy'
p2980
aS'CoachDambrot'
p2981
aS'TBurich'
p2982
aS'uninterrupted'
p2983
aS'Amanda_Furrer'
p2984
aS'RealDealBeal23'
p2985
aS'jtimberlake'
p2986
aS'CharissaT'
p2987
aS'MrCavalier34'
p2988
aS'FSOAllieOop'
p2989
aS'cavs'
p2990
aS'TeamVic'
p2991
atp2992
Rp2993
(dp2994
g31
(iBeautifulSoup
SoupStrainer
p2995
(dp2996
g34
Nsg35
g2926
sg37
(dp2997
g2928
g2929
ssbsbsg35
g2903
sba(iscraper
User
p2998
(dp2999
g3
(lp3000
F0.0
aF0.0
aI20
asg5
g6
(g7
g8
(lp3001
tp3002
Rp3003
(dp3004
g31
(iBeautifulSoup
SoupStrainer
p3005
(dp3006
g34
Nsg35
g2926
sg37
(dp3007
g2928
g2929
ssbsbsg35
g2906
sba(iscraper
User
p3008
(dp3009
g3
(lp3010
F0.0
aF0.0
aI20
asg5
g6
(g7
g8
(lp3011
S'_nicolaclark'
p3012
aS'stevemayne'
p3013
aS'tatertatiana'
p3014
aS'wmcdonaldnyt'
p3015
aS'tomwp'
p3016
aS'astrzemien'
p3017
aS'manujosephsan'
p3018
aS'lauriek808'
p3019
aS'pinkgrammar'
p3020
aS'puiwingtam'
p3021
aS'noamscheiber'
p3022
aS'jimwindolf'
p3023
aS'FrancescaDonner'
p3024
aS'Jayduh10'
p3025
aS'gordonnyt'
p3026
aS'LukeVnenchak'
p3027
aS'mrbaopanrui'
p3028
aS'stefsaul'
p3029
atp3030
Rp3031
(dp3032
g31
(iBeautifulSoup
SoupStrainer
p3033
(dp3034
g34
Nsg35
g2926
sg37
(dp3035
g2928
g2929
ssbsbsg35
g2905
sba(iscraper
User
p3036
(dp3037
g3
(lp3038
F0.0
aF0.0
aI19
asg5
g6
(g7
g8
(lp3039
S'NickTriggle'
p3040
aS'janedreaper'
p3041
aS'branwenjeffreys'
p3042
aS'BBCWorld'
p3043
aS'BBCBreaking'
p3044
aS'BBCNews'
p3045
aS'BBCFergusWalsh'
p3046
atp3047
Rp3048
(dp3049
g31
(iBeautifulSoup
SoupStrainer
p3050
(dp3051
g34
Nsg35
g2926
sg37
(dp3052
g2928
g2929
ssbsbsg35
g2908
sba(iscraper
User
p3053
(dp3054
g3
(lp3055
F0.0
aF0.0
aI19
asg5
g6
(g7
g8
(lp3056
S'bhorowitz'
p3057
aS'kevinlove'
p3058
aS'Yg_Trece'
p3059
aS'VICE'
p3060
aS'RichardCocks'
p3061
aS'cecenightowl'
p3062
aS'runlikemk'
p3063
aS'jpknicks'
p3064
aS'blossombubble'
p3065
aS'DrinkPOWERCOCO'
p3066
aS'HEBRUBRANTLEY'
p3067
aS'kendricklamar'
p3068
aS'ravinbracha'
p3069
aS'LouisFarrakhan'
p3070
aS'RealJasonKidd'
p3071
aS'LewisHamilton'
p3072
aS'MassaFelipe19'
p3073
aS'kobebryant'
p3074
atp3075
Rp3076
(dp3077
g31
(iBeautifulSoup
SoupStrainer
p3078
(dp3079
g34
Nsg35
g2926
sg37
(dp3080
g2928
g2929
ssbsbsg35
g2907
sba(iscraper
User
p3081
(dp3082
g3
(lp3083
F0.0
aF0.0
aI17
asg5
g6
(g7
g8
(lp3084
S'ayoDO_o'
p3085
aS'ImChrissyChriss'
p3086
aS'fatbellybella'
p3087
aS'BahtheLegend'
p3088
aS'OftenImitated_'
p3089
aS'laurabrown99'
p3090
aS'Vevo'
p3091
aS'_sydneic'
p3092
aS'NicoKartel'
p3093
aS'iHateScottieToo'
p3094
aS'10yearsofslay'
p3095
aS'bmorenavy'
p3096
aS'DNZLX'
p3097
aS'Malamin_J'
p3098
aS'MakeYouMyBitch'
p3099
aS'KaiCole_'
p3100
aS'SamerSum'
p3101
aS'ciphasounds'
p3102
atp3103
Rp3104
(dp3105
g31
(iBeautifulSoup
SoupStrainer
p3106
(dp3107
g34
Nsg35
g2926
sg37
(dp3108
g2928
g2929
ssbsbsg35
g2910
sba(iscraper
User
p3109
(dp3110
g3
(lp3111
F0.0
aF0.0
aI20
asg5
g6
(g7
g8
(lp3112
S'libbynicole1'
p3113
aS'teamkoralreef'
p3114
aS'PINK_Bubblessx3'
p3115
aS'daishastar'
p3116
aS'paracryptid'
p3117
aS'TaySalo'
p3118
aS'Phatyo'
p3119
aS'juanes'
p3120
aS'x__kaatiee'
p3121
aS'lxvatoswxrrior'
p3122
aS'rebecca_dot'
p3123
aS'mn_espngirl99'
p3124
aS'vitasidorkina'
p3125
aS'SuzFlooze'
p3126
aS'MccradyMiasha'
p3127
aS'jadefowler__'
p3128
aS'Coach_Thumper'
p3129
aS'1K00LKAT'
p3130
atp3131
Rp3132
(dp3133
g31
(iBeautifulSoup
SoupStrainer
p3134
(dp3135
g34
Nsg35
g2926
sg37
(dp3136
g2928
g2929
ssbsbsg35
g2909
sba(iscraper
User
p3137
(dp3138
g3
(lp3139
F0.0
aF0.0
aI19
asg5
g6
(g7
g8
(lp3140
S'xHBHFx'
p3141
aS'DontGivUpOnGod'
p3142
aS'KedowWalker'
p3143
aS'Nelzzzzz32'
p3144
aS'Enes_Kanter'
p3145
aS'KyleSingler'
p3146
aS'LALovetheboss'
p3147
aS'RobGronkowski'
p3148
aS'djones7861'
p3149
aS'amfam'
p3150
aS'CharissaT'
p3151
aS'WojYahooNBA'
p3152
aS'TrevorJordanNYC'
p3153
aS'devontetyoung'
p3154
aS'JrMarkyMark'
p3155
aS'ShapeFutureOK'
p3156
aS'sonicdrivein'
p3157
aS'anthonyVslater'
p3158
atp3159
Rp3160
(dp3161
g31
(iBeautifulSoup
SoupStrainer
p3162
(dp3163
g34
Nsg35
g2926
sg37
(dp3164
g2928
g2929
ssbsbsg35
g2911
sba(iscraper
User
p3165
(dp3166
g3
(lp3167
F0.05
aF0.0
aI20
asg5
g6
(g7
g8
(lp3168
S'thegranturismo'
p3169
aS'psnstores'
p3170
aS'AxiomVerge'
p3171
aS'Dan_Adelman'
p3172
aS'drdre'
p3173
aS'StephenCurry30'
p3174
aS'YasielPuig'
p3175
aS'shaunwhite'
p3176
aS'SnoopDogg'
p3177
aS'ranminisce'
p3178
aS'CallofDuty'
p3179
aS'Treyarch'
p3180
aS'TheRealStanLee'
p3181
aS'Polygon'
p3182
aS'MichnaOfficial'
p3183
aS'YachtClubGames'
p3184
aS'FF_XIV_EN'
p3185
aS'CapcomFighters'
p3186
atp3187
Rp3188
(dp3189
g31
(iBeautifulSoup
SoupStrainer
p3190
(dp3191
g34
Nsg35
g2926
sg37
(dp3192
g2928
g2929
ssbsbsg35
g2912
sba(iscraper
User
p3193
(dp3194
g3
(lp3195
F0.0
aF0.0
aI20
asg5
g6
(g7
g8
(lp3196
S'jessieheyman'
p3197
aS'MagnumPhotos'
p3198
aS'henryandrel'
p3199
aS'DefJamRecords'
p3200
aS'gwneff'
p3201
aS'JennaRennert'
p3202
aS'angelica_cheung'
p3203
aS'nbcsnl'
p3204
aS'iamwill'
p3205
aS'solangeknowles'
p3206
aS'ItsStarWarsTime'
p3207
aS'spring'
p3208
aS'rebeccabengal'
p3209
aS'SophieElgort'
p3210
aS'didiondoc'
p3211
aS'THECORNERdotcom'
p3212
aS'devhynes'
p3213
aS'B_Millepied'
p3214
atp3215
Rp3216
(dp3217
g31
(iBeautifulSoup
SoupStrainer
p3218
(dp3219
g34
Nsg35
g2926
sg37
(dp3220
g2928
g2929
ssbsbsg35
g2914
sba(iscraper
User
p3221
(dp3222
g3
(lp3223
F0.0
aF0.0
aI20
asg5
g6
(g7
g8
(lp3224
S'BadFredRhodes'
p3225
aS'mediangame'
p3226
aS'davis_mccarthy'
p3227
aS'drassenov'
p3228
aS'__Jerwin__'
p3229
aS'MaxScoville'
p3230
aS'agentbizzle'
p3231
aS'IIJERiiCHOII'
p3232
aS'BloodyBeetroots'
p3233
aS'ohsnapjbsmoove'
p3234
aS'dimmak'
p3235
aS'gtafiveallday'
p3236
aS'Herbal_Gamer_89'
p3237
aS'GTA_Society'
p3238
aS'RealFPJr'
p3239
aS'GTAGFX'
p3240
aS'iCrazyTeddy'
p3241
aS'MrNastyDJ'
p3242
atp3243
Rp3244
(dp3245
g31
(iBeautifulSoup
SoupStrainer
p3246
(dp3247
g34
Nsg35
g2926
sg37
(dp3248
g2928
g2929
ssbsbsg35
g2913
sba(iscraper
User
p3249
(dp3250
g3
(lp3251
F0.0
aF0.0
aI19
asg5
g6
(g7
g8
(lp3252
S'Neville_fox82'
p3253
aS'NicolaFarleigh'
p3254
aS'chargraham99'
p3255
aS'helsrouts'
p3256
aS'Natasha2662'
p3257
aS'Dyoxus'
p3258
aS'SheridanJemma'
p3259
aS'KingPrebs'
p3260
aS'samanthayoungX'
p3261
aS'Mikey_moo_86'
p3262
aS'NellyWreland'
p3263
aS'tracymcgettrick'
p3264
aS'caitlinorman5'
p3265
aS'abiha_110'
p3266
aS'lynsey_rainey'
p3267
aS'VixLindsay'
p3268
aS'DietzDonA'
p3269
aS'wiickstrand'
p3270
atp3271
Rp3272
(dp3273
g31
(iBeautifulSoup
SoupStrainer
p3274
(dp3275
g34
Nsg35
g2926
sg37
(dp3276
g2928
g2929
ssbsbsg35
g2915
sba(iscraper
User
p3277
(dp3278
g3
(lp3279
F0.0
aF0.0
aI20
asg5
g6
(g7
g8
(lp3280
S'DSWShoeLovers'
p3281
aS'BodyForWife'
p3282
aS'GreggStebben'
p3283
aS'EatCleanFeed'
p3284
aS'VictoriaWolk'
p3285
aS'Arifnimous'
p3286
aS'Prondhi'
p3287
aS'JustinCrew'
p3288
aS'joeamedio'
p3289
aS'contbarth'
p3290
aS'MensHealthMVPs'
p3291
aS'KevinHart4real'
p3292
aS'thunderdan09'
p3293
aS'Season_Nvr_Ends'
p3294
aS'michaeldiamondz'
p3295
aS'TheBatMat'
p3296
aS'greatist'
p3297
aS'RodaleInc'
p3298
atp3299
Rp3300
(dp3301
g31
(iBeautifulSoup
SoupStrainer
p3302
(dp3303
g34
Nsg35
g2926
sg37
(dp3304
g2928
g2929
ssbsbsg35
g2916
sba(iscraper
User
p3305
(dp3306
g3
(lp3307
F0.0
aF0.0
aI20
asg5
g6
(g7
g8
(lp3308
S'beetlebear'
p3309
aS'SXSWGaming'
p3310
aS'sxsw'
p3311
aS'Siefe'
p3312
aS'middleearthgame'
p3313
aS'Obsidian'
p3314
aS'RabAnderson7'
p3315
aS'RogueMoosic'
p3316
aS'AsoboStudio'
p3317
aS'purplefooty'
p3318
aS'20thcenturyfox'
p3319
aS'Deadline'
p3320
aS'TigerWoods'
p3321
aS'koareck'
p3322
aS'chocomongosnaps'
p3323
aS'gaming_ink'
p3324
aS'KrishnaDammert'
p3325
aS'UbiMehri'
p3326
atp3327
Rp3328
(dp3329
g31
(iBeautifulSoup
SoupStrainer
p3330
(dp3331
g34
Nsg35
g2926
sg37
(dp3332
g2928
g2929
ssbsbsg35
g2917
sba(iscraper
User
p3333
(dp3334
g3
(lp3335
F0.0
aF0.0
aI17
asg5
g6
(g7
g8
(lp3336
S'ulalaunch'
p3337
aS'MichaelStarobin'
p3338
aS'NASA_Johnson'
p3339
aS'bnjacobs'
p3340
aS'schierholz'
p3341
aS'USSenatePhoto'
p3342
aS'ingallsimages'
p3343
aS'jakowsky'
p3344
aS'JAXA_en'
p3345
aS'AsteroidWatch'
p3346
aS'cambridgecolour'
p3347
aS'DavidWeaver'
p3348
aS'nytimesscience'
p3349
aS'NASA_Rain'
p3350
aS'geekdotcom'
p3351
aS'keithwj'
p3352
aS'JamesEstrin'
p3353
aS'miatramz'
p3354
atp3355
Rp3356
(dp3357
g31
(iBeautifulSoup
SoupStrainer
p3358
(dp3359
g34
Nsg35
g2926
sg37
(dp3360
g2928
g2929
ssbsbsg35
g2918
sba(iscraper
User
p3361
(dp3362
g3
(lp3363
F0.0
aF0.0
aI18
asg5
g6
(g7
g8
(lp3364
S'Deborah_Cox'
p3365
aS'Nicole_Murphy'
p3366
aS'DuleHill'
p3367
aS'NiaLong'
p3368
aS'IvankaTrump'
p3369
aS'HamiltonAnthony'
p3370
aS'NiecyNash'
p3371
aS'Jtillathekilla2'
p3372
aS'anthonyanderson'
p3373
aS'kevwilliamson'
p3374
aS'kristoffstjohn1'
p3375
aS'PamGrier'
p3376
aS'ApprenticeNBC'
p3377
aS'TheRealEve'
p3378
aS'LilKim'
p3379
aS'BrandiGlanville'
p3380
aS'SamuelLJackson'
p3381
aS'debbimorgan'
p3382
atp3383
Rp3384
(dp3385
g31
(iBeautifulSoup
SoupStrainer
p3386
(dp3387
g34
Nsg35
g2926
sg37
(dp3388
g2928
g2929
ssbsbsg35
g2919
sba(iscraper
User
p3389
(dp3390
g3
(lp3391
F0.0
aF0.0
aI20
asg5
g6
(g7
g8
(lp3392
S'HaloFollowerCom'
p3393
aS'ChiefCanuck'
p3394
aS'subzerotd'
p3395
aS'Wild_Morrigan'
p3396
aS'Magiz'
p3397
aS'hokie98jj'
p3398
aS'TheStarbuck86x'
p3399
aS'ClixWizard'
p3400
aS'B_Dailey13'
p3401
aS'djrunning11'
p3402
aS'LASeaN8'
p3403
aS'iThe_Truth'
p3404
aS'AWM26'
p3405
aS'nfl'
p3406
aS'HoloLens'
p3407
aS'Ibiso4realIbi'
p3408
aS'alotofcurls'
p3409
aS'Josh_Bridge'
p3410
atp3411
Rp3412
(dp3413
g31
(iBeautifulSoup
SoupStrainer
p3414
(dp3415
g34
Nsg35
g2926
sg37
(dp3416
g2928
g2929
ssbsbsg35
g2920
sba(iscraper
User
p3417
(dp3418
g3
(lp3419
F0.0
aF0.0
aI20
asg5
g6
(g7
g8
(lp3420
S'xmunie'
p3421
aS'bella97p'
p3422
aS'WhichBingoUK'
p3423
aS'Impressionator2'
p3424
aS'PaddyMcGuinness'
p3425
aS'GURGELUK'
p3426
aS'simplymeasured'
p3427
aS'SupportJPJ'
p3428
aS'hashtracking'
p3429
aS'miklea'
p3430
aS'mikecarr899'
p3431
aS'IncomeAccess'
p3432
aS'dougkeatinge'
p3433
aS'SnapchatProbbz'
p3434
aS'Brendan_Surrey'
p3435
aS'Kwei_Quartey'
p3436
aS'AvivVodka'
p3437
aS'MsMelanieSykes'
p3438
atp3439
Rp3440
(dp3441
g31
(iBeautifulSoup
SoupStrainer
p3442
(dp3443
g34
Nsg35
g2926
sg37
(dp3444
g2928
g2929
ssbsbsg35
g2935
sba(iscraper
User
p3445
(dp3446
g3
(lp3447
F0.0
aF0.0
aI19
asg5
g6
(g7
g8
(lp3448
S'Kings_Hall_HB'
p3449
aS'BallDarrel'
p3450
aS'TreinoCanino1'
p3451
aS'ChloeGrassOrkin'
p3452
aS'Bethjonesi'
p3453
aS'PADSKENNELS'
p3454
aS'ASOS_Lucy'
p3455
aS'michloomill'
p3456
aS'mummie0661'
p3457
aS'geeadams'
p3458
aS'TheMalonesGB'
p3459
aS'claire69373781'
p3460
aS'Andrew_Whitelaw'
p3461
aS'cherryewilson'
p3462
aS'barbarafromwath'
p3463
aS'kate_wake'
p3464
aS'Metro_Bank'
p3465
aS'almurray'
p3466
atp3467
Rp3468
(dp3469
g31
(iBeautifulSoup
SoupStrainer
p3470
(dp3471
g34
Nsg35
g2926
sg37
(dp3472
g2928
g2929
ssbsbsg35
g2936
sba(iscraper
User
p3473
(dp3474
g3
(lp3475
F0.0
aF0.0
aI20
asg5
g6
(g7
g8
(lp3476
S'Herald_Editor'
p3477
aS'heraldscotland'
p3478
atp3479
Rp3480
(dp3481
g31
(iBeautifulSoup
SoupStrainer
p3482
(dp3483
g34
Nsg35
g2926
sg37
(dp3484
g2928
g2929
ssbsbsg35
g2937
sba(iscraper
User
p3485
(dp3486
g3
(lp3487
F0.0
aF0.0
aI21
asg5
g6
(g7
g8
(lp3488
S'GuideDogsMMT'
p3489
aS'Volonteurope'
p3490
aS'nicestjob'
p3491
aS'lopwert'
p3492
aS'OutdoorsShow'
p3493
aS'GdnVoluntary'
p3494
aS'nfumcolchester'
p3495
aS'JustSimonCowell'
p3496
aS'ollyofficial'
p3497
aS'lourobertshaw'
p3498
aS'JustTextGiving'
p3499
aS'buffer'
p3500
aS'thehut_com'
p3501
aS'Tog4ShortLives'
p3502
aS'WellChild'
p3503
aS'TippingPointITV'
p3504
aS'itv2'
p3505
aS'ITVTextSanta'
p3506
atp3507
Rp3508
(dp3509
g31
(iBeautifulSoup
SoupStrainer
p3510
(dp3511
g34
Nsg35
g2926
sg37
(dp3512
g2928
g2929
ssbsbsg35
g2938
sba(iscraper
User
p3513
(dp3514
g3
(lp3515
F0.0
aF0.0
aI19
asg5
g6
(g7
g8
(lp3516
S'ScotRail_RBS'
p3517
aS'fredsdeadbob'
p3518
aS'emmakemp1986'
p3519
aS'linnaeustoloci'
p3520
aS'thomasshanks'
p3521
aS'OhMyCrabcakes'
p3522
aS'grant_roseanne'
p3523
aS'NetworkRailEGIP'
p3524
aS'Steoph'
p3525
aS'3i1idh'
p3526
aS'Lindamurray82'
p3527
aS'Uzey_MohX'
p3528
aS'ashhhhh_x'
p3529
aS'_Rhitweetx'
p3530
aS'alandunsmore1'
p3531
aS'gregmcmullen96'
p3532
aS'spookyjonathan'
p3533
aS'SarahMcMast3r'
p3534
atp3535
Rp3536
(dp3537
g31
(iBeautifulSoup
SoupStrainer
p3538
(dp3539
g34
Nsg35
g2926
sg37
(dp3540
g2928
g2929
ssbsbsg35
g2939
sba(iscraper
User
p3541
(dp3542
g3
(lp3543
F0.0
aF0.0
aI20
asg5
g6
(g7
g8
(lp3544
S'BTP'
p3545
aS'TrapezeGroupUK'
p3546
aS'ArgyllFerries'
p3547
aS'PentlandFerries'
p3548
aS'CalMac_Updates'
p3549
aS'StagecoachNScot'
p3550
aS'TransportTimes'
p3551
aS'StagecoachWScot'
p3552
aS'Simpli_info'
p3553
aS'GLASubwayTravel'
p3554
aS'CPT_UK'
p3555
aS'crosscountryuk'
p3556
aS'TwitterUKI_SME'
p3557
aS'CalMacFerries'
p3558
aS'PerrymansBuses'
p3559
aS'PLUSBUS_UK'
p3560
aS'stagecoachgroup'
p3561
aS'GoAheadGroup'
p3562
atp3563
Rp3564
(dp3565
g31
(iBeautifulSoup
SoupStrainer
p3566
(dp3567
g34
Nsg35
g2926
sg37
(dp3568
g2928
g2929
ssbsbsg35
g2940
sba(iscraper
User
p3569
(dp3570
g3
(lp3571
F0.0
aF0.0
aI20
asg5
g6
(g7
g8
(lp3572
S'northsound1'
p3573
aS'BritPanopticon'
p3574
aS'bbcweather'
p3575
aS'BBCRadioScot'
p3576
aS'Schafernaker'
p3577
aS'johnco'
p3578
aS'NETrunkRoads'
p3579
aS'ArgyllFerries'
p3580
aS'NetworkRailSCOT'
p3581
aS'STVNews'
p3582
aS'Daily_Record'
p3583
aS'BBCMarkDaly'
p3584
aS'STN_Airport'
p3585
aS'LDNLutonAirport'
p3586
aS'AmazonUK'
p3587
aS'SETrunkRoads'
p3588
aS'BBCNews'
p3589
aS'BBCBreaking'
p3590
atp3591
Rp3592
(dp3593
g31
(iBeautifulSoup
SoupStrainer
p3594
(dp3595
g34
Nsg35
g2926
sg37
(dp3596
g2928
g2929
ssbsbsg35
g2941
sba(iscraper
User
p3597
(dp3598
g3
(lp3599
F0.0
aF0.0
aI17
asg5
g6
(g7
g8
(lp3600
S'hbthewriter'
p3601
aS'Taurushoroscop'
p3602
aS'Chips_Away'
p3603
aS'upsidedownstud'
p3604
aS'InteriorDesire'
p3605
aS'davidsonandson'
p3606
aS'Sadenss'
p3607
aS'statics4you'
p3608
aS'StCyrusPrk'
p3609
aS'Baseysofalnwick'
p3610
aS'GeoffBurch'
p3611
aS'kennym_gaplny'
p3612
aS'KatVintage'
p3613
aS'funnelholic'
p3614
aS'MrSteThompson'
p3615
aS'VoucherCave'
p3616
aS'bubblesoccerNE'
p3617
aS'RobertMAnthony1'
p3618
atp3619
Rp3620
(dp3621
g31
(iBeautifulSoup
SoupStrainer
p3622
(dp3623
g34
Nsg35
g2926
sg37
(dp3624
g2928
g2929
ssbsbsg35
g2942
sba(iscraper
User
p3625
(dp3626
g3
(lp3627
F0.0
aF0.0
aI16
asg5
g6
(g7
g8
(lp3628
S'VanessaAmorosi'
p3629
aS'richardosman'
p3630
aS'OfficialClancy'
p3631
aS'ZozeeBo'
p3632
aS'ITVTextSanta'
p3633
aS'virgingalactic'
p3634
aS'laurenplatt7'
p3635
aS'AmazonUK'
p3636
aS'WeeMissBea'
p3637
aS'BBCOne'
p3638
aS'ITV'
p3639
aS'Nigel_Farage'
p3640
aS'NickFerrariLBC'
p3641
aS'IainDale'
p3642
aS'THEJamesWhale'
p3643
aS'TOTDS'
p3644
aS'laurasayers'
p3645
aS'LadyWilloughby'
p3646
atp3647
Rp3648
(dp3649
g31
(iBeautifulSoup
SoupStrainer
p3650
(dp3651
g34
Nsg35
g2926
sg37
(dp3652
g2928
g2929
ssbsbsg35
g2943
sba.