(lp0
(iscraper
User
p1
(dp2
S'attraction'
p3
(lp4
I0
aI0
aI0
asS'name'
p5
S'armanjtehrani'
p6
sba(iscraper
User
p7
(dp8
g3
(lp9
I0
aI0
aI17
asg5
S'joof'
p10
sba(iscraper
User
p11
(dp12
g3
(lp13
I0
aI0
aI20
asg5
S'KingJames'
p14
sba(iscraper
User
p15
(dp16
g3
(lp17
I0
aI0
aI19
asg5
S'CHANEL'
p18
sba(iscraper
User
p19
(dp20
g3
(lp21
I0
aI0
aI20
asg5
S'simonpegg'
p22
sba(iscraper
User
p23
(dp24
g3
(lp25
I0
aI0
aI17
asg5
S'rihanna'
p26
sba(iscraper
User
p27
(dp28
g3
(lp29
I0
aI0
aI19
asg5
S'carmeloanthony'
p30
sba(iscraper
User
p31
(dp32
g3
(lp33
I0
aI0
aI20
asg5
S'VictoriasSecret'
p34
sba(iscraper
User
p35
(dp36
g3
(lp37
I0
aI0
aI20
asg5
S'RedCross'
p38
sba(iscraper
User
p39
(dp40
g3
(lp41
I0
aI0
aI21
asg5
S'RockstarGames'
p42
sba(iscraper
User
p43
(dp44
g3
(lp45
I0
aI0
aI20
asg5
S'planetepics'
p46
sba(iscraper
User
p47
(dp48
g3
(lp49
I0
aI0
aI20
asg5
S'voguemagazine'
p50
sba.