(lp0
(iscraper
User
p1
(dp2
S'attraction'
p3
(lp4
F0.0
aF0.0
aI20
asS'followingUsernames'
p5
ccopy_reg
_reconstructor
p6
(cBeautifulSoup
ResultSet
p7
c__builtin__
list
p8
(lp9
S'MiniMansions'
p10
aS'TimNoakes'
p11
aS'carvellwallace'
p12
aS'thisisminnow'
p13
aS'soyrev'
p14
aS'rachel_handler'
p15
aS'_anupa'
p16
aS'_bobina'
p17
aS'jessicaviscius'
p18
aS'pistolsofficial'
p19
aS'zero7official'
p20
aS'HollywoodHolt'
p21
aS'Genius'
p22
aS'FFS_MUSIC'
p23
aS'jiggyraps'
p24
aS'emmaggarland'
p25
aS'MIFestival'
p26
aS'LordeDaily'
p27
atp28
Rp29
(dp30
S'source'
p31
(iBeautifulSoup
SoupStrainer
p32
(dp33
S'text'
p34
NsS'name'
p35
S'span'
p36
sS'attrs'
p37
(dp38
S'class'
p39
S'u-linkComplex-target'
p40
ssbsbsg35
S'pitchfork'
p41
sba(iscraper
User
p42
(dp43
g3
(lp44
F0.0
aF0.0
aI19
asg5
g6
(g7
g8
(lp45
S'CassieFenley'
p46
aS'davidfaber'
p47
aS'MadMoneyOnCNBC'
p48
aS'SquawkCNBC'
p49
aS'CNBCFastMoney'
p50
aS'jimcramer'
p51
aS'SquawkStreet'
p52
aS'carlquintanilla'
p53
aS'tanjra1985'
p54
aS'TheTweetOfGod'
p55
aS'clayco'
p56
aS'grauface'
p57
aS'hoff'
p58
aS'MichaelSlezakTV'
p59
aS'MandiBierly'
p60
aS'DaltonRoss'
p61
aS'EWTimStack'
p62
aS'McAthy10'
p63
atp64
Rp65
(dp66
g31
(iBeautifulSoup
SoupStrainer
p67
(dp68
g34
Nsg35
g36
sg37
(dp69
g39
g40
ssbsbsg35
S'kboord'
p70
sba(iscraper
User
p71
(dp72
g3
(lp73
F0.0
aF0.0
aI20
asg5
g6
(g7
g8
(lp74
S'david_s_aikman'
p75
aS'bnussey'
p76
aS'rebuildfdn'
p77
aS'Forbes'
p78
aS'IQ2US'
p79
aS'VinodColeslaw'
p80
aS'ChristopherBudd'
p81
aS'SkyGellatly'
p82
aS'fwd'
p83
aS'reboot'
p84
aS'BjarkeIngels'
p85
aS'HelloAngels'
p86
aS'henrysward'
p87
aS'Nivo0o0'
p88
aS'YellowstoneClub'
p89
aS'gaberivera'
p90
aS'wex1200'
p91
aS'PeterDiamandis'
p92
atp93
Rp94
(dp95
g31
(iBeautifulSoup
SoupStrainer
p96
(dp97
g34
Nsg35
g36
sg37
(dp98
g39
g40
ssbsbsg35
S'joshspear'
p99
sba(iscraper
User
p100
(dp101
g3
(lp102
F0.0
aF0.0
aI19
asg5
g6
(g7
g8
(lp103
S'joederosacomedy'
p104
aS'emilyzemler'
p105
aS'DaveHolmes'
p106
aS'titoortiz'
p107
aS'TraceeEllisRoss'
p108
aS'timothycsimons'
p109
aS'PaulVirzi'
p110
aS'ijustine'
p111
aS'ranwins'
p112
aS'Vincent_Marcus'
p113
aS'GrantCotter'
p114
aS'JustinHires'
p115
aS'rachelrusch'
p116
aS'aparnapkin'
p117
aS'kevinweisman'
p118
aS'MintzPlasse'
p119
aS'brittanygilp'
p120
aS'SneakerNews'
p121
atp122
Rp123
(dp124
g31
(iBeautifulSoup
SoupStrainer
p125
(dp126
g34
Nsg35
g36
sg37
(dp127
g39
g40
ssbsbsg35
S'chrisdelia'
p128
sba(iscraper
User
p129
(dp130
g3
(lp131
F0.0
aF0.0
aI20
asg5
g6
(g7
g8
(lp132
S'Square'
p133
aS'kroq'
p134
aS'riseagainst'
p135
aS'TenSecondSongs'
p136
aS'AFI'
p137
aS'30SECONDSTOMARS'
p138
aS'VyRT'
p139
aS'turnstilelive'
p140
aS'kavipaste'
p141
aS'MarkPellington'
p142
aS'InfinityAudio'
p143
aS'MallMovie'
p144
aS'OMandM'
p145
aS'NAVER_LINE'
p146
aS'PaulRieckhoff'
p147
aS'iava'
p148
aS'LPBLKMRKT'
p149
aS'ingress'
p150
atp151
Rp152
(dp153
g31
(iBeautifulSoup
SoupStrainer
p154
(dp155
g34
Nsg35
g36
sg37
(dp156
g39
g40
ssbsbsg35
S'linkinpark'
p157
sba(iscraper
User
p158
(dp159
g3
(lp160
F0.0
aF0.0
aI20
asg5
g6
(g7
g8
(lp161
S'pentametron'
p162
aS'PURITY_RING'
p163
aS'aplusk'
p164
aS'AppMeerkat'
p165
aS'glove'
p166
aS'Square'
p167
aS'jack'
p168
aS'Mazzeo'
p169
aS'glennsolomon'
p170
aS'Williams'
p171
aS'evanspiegel'
p172
aS'TWistartups'
p173
aS'birbigs'
p174
aS'youngfuego'
p175
aS'Thomaspridgen'
p176
aS'JonahMatranga'
p177
aS'echosmith'
p178
aS'alispagnola'
p179
atp180
Rp181
(dp182
g31
(iBeautifulSoup
SoupStrainer
p183
(dp184
g34
Nsg35
g36
sg37
(dp185
g39
g40
ssbsbsg35
S'mikeshinoda'
p186
sba(iscraper
User
p187
(dp188
g3
(lp189
F0.0
aF0.0
aI3
asg5
g6
(g7
g8
(lp190
S'ChloeS'
p191
aS'aunder'
p192
aS'jess'
p193
aS'KatieS'
p194
aS'vijaya'
p195
aS'janamal'
p196
atp197
Rp198
(dp199
g31
(iBeautifulSoup
SoupStrainer
p200
(dp201
g34
Nsg35
g36
sg37
(dp202
g39
g40
ssbsbsg35
S'HelloAngels'
p203
sba.